ARM GAS  /tmp/ccEto00Y.s 			page 1


   1              		.cpu cortex-m4
   2              		.eabi_attribute 27, 1
   3              		.eabi_attribute 28, 1
   4              		.eabi_attribute 20, 1
   5              		.eabi_attribute 21, 1
   6              		.eabi_attribute 23, 3
   7              		.eabi_attribute 24, 1
   8              		.eabi_attribute 25, 1
   9              		.eabi_attribute 26, 1
  10              		.eabi_attribute 30, 1
  11              		.eabi_attribute 34, 1
  12              		.eabi_attribute 18, 4
  13              		.file	"ili9341.c"
  14              		.text
  15              	.Ltext0:
  16              		.cfi_sections	.debug_frame
  17              		.section	.text.LCD_RST_1,"ax",%progbits
  18              		.align	1
  19              		.global	LCD_RST_1
  20              		.syntax unified
  21              		.thumb
  22              		.thumb_func
  23              		.fpu fpv4-sp-d16
  25              	LCD_RST_1:
  26              	.LFB131:
  27              		.file 1 "application-library/ili9341-lcd/ili9341.c"
   1:application-library/ili9341-lcd/ili9341.c **** /**
   2:application-library/ili9341-lcd/ili9341.c ****   ******** ******** ******** ******** ******** ******** ******** ******** ******** ******** *******
   3:application-library/ili9341-lcd/ili9341.c ****   * @file      :     ili9341.c
   4:application-library/ili9341-lcd/ili9341.c ****   * @author    :     Luyao Han
   5:application-library/ili9341-lcd/ili9341.c ****   * @email     :     luyaohan1001@gmail.com
   6:application-library/ili9341-lcd/ili9341.c ****   * @brief     :     C library for ILITEK ili9341 TFTLCD Controller.
   7:application-library/ili9341-lcd/ili9341.c ****   * @date      :     05-07-2022
   8:application-library/ili9341-lcd/ili9341.c ****   * Copyright (C) 2022-2122 Luyao Han. The following code may be shared or modified for personal us
   9:application-library/ili9341-lcd/ili9341.c ****   ******** ******** ******** ******** ******** ******** ******** ******** ******** ******** *******
  10:application-library/ili9341-lcd/ili9341.c **** 
  11:application-library/ili9341-lcd/ili9341.c **** /* Includes ---------------------------------------------------------------------------------------
  12:application-library/ili9341-lcd/ili9341.c **** #include "ili9341.h"
  13:application-library/ili9341-lcd/ili9341.c **** 
  14:application-library/ili9341-lcd/ili9341.c **** 
  15:application-library/ili9341-lcd/ili9341.c **** /* Macros -----------------------------------------------------------------------------------------
  16:application-library/ili9341-lcd/ili9341.c **** #define ILI9341_DEBUG /* When defined, debug messages are logged through serial_print(). */
  17:application-library/ili9341-lcd/ili9341.c **** 
  18:application-library/ili9341-lcd/ili9341.c **** /* GPIO physical layer ----------------------------------------------------------------------------
  19:application-library/ili9341-lcd/ili9341.c **** /* GPIO Defined on STM32F401 */
  20:application-library/ili9341-lcd/ili9341.c **** /* Module Pin Name         Description                Assigned GPIO */
  21:application-library/ili9341-lcd/ili9341.c **** /* LCD_RST                 Reset                      PC1 */
  22:application-library/ili9341-lcd/ili9341.c **** /* LCD_CS                  8080 Chip Select           PB0 */
  23:application-library/ili9341-lcd/ili9341.c **** /* LCD_RS (D/CX)           Data / Command Select      PA4 */
  24:application-library/ili9341-lcd/ili9341.c **** /* LCD_WR                  Write Enable               PA1 */
  25:application-library/ili9341-lcd/ili9341.c **** /* LCD_RD                  Read Enable                PA0 */
  26:application-library/ili9341-lcd/ili9341.c **** /* LCD_D2                  8080 Data 2                PA10*/
  27:application-library/ili9341-lcd/ili9341.c **** /* LCD_D3                  8080 Data 3                PB3*/
  28:application-library/ili9341-lcd/ili9341.c **** /* LCD_D4                  8080 Data 4                PB5*/
  29:application-library/ili9341-lcd/ili9341.c **** /* LCD_D5                  8080 Data 5                PB4*/
  30:application-library/ili9341-lcd/ili9341.c **** /* LCD_D6                  8080 Data 6                PB10*/
  31:application-library/ili9341-lcd/ili9341.c **** /* LCD_D7                  8080 Data 7                PA8*/
ARM GAS  /tmp/ccEto00Y.s 			page 2


  32:application-library/ili9341-lcd/ili9341.c **** /* LCD_D0                  8080 Data 0                PA9*/
  33:application-library/ili9341-lcd/ili9341.c **** /* LCD_D1                  8080 Data 1                PC7*/
  34:application-library/ili9341-lcd/ili9341.c **** 
  35:application-library/ili9341-lcd/ili9341.c **** /**
  36:application-library/ili9341-lcd/ili9341.c ****   * @brief   Set TFT LCD module RST (Reset) high.
  37:application-library/ili9341-lcd/ili9341.c ****   * @param   None.
  38:application-library/ili9341-lcd/ili9341.c ****   * @retval  None.
  39:application-library/ili9341-lcd/ili9341.c ****   */
  40:application-library/ili9341-lcd/ili9341.c **** void LCD_RST_1()
  41:application-library/ili9341-lcd/ili9341.c **** {
  28              		.loc 1 41 0
  29              		.cfi_startproc
  30              		@ args = 0, pretend = 0, frame = 0
  31              		@ frame_needed = 0, uses_anonymous_args = 0
  32 0000 08B5     		push	{r3, lr}
  33              	.LCFI0:
  34              		.cfi_def_cfa_offset 8
  35              		.cfi_offset 3, -8
  36              		.cfi_offset 14, -4
  42:application-library/ili9341-lcd/ili9341.c ****   HAL_GPIO_WritePin(GPIOC, GPIO_PIN_1, GPIO_PIN_SET);  
  37              		.loc 1 42 0
  38 0002 0122     		movs	r2, #1
  39 0004 0221     		movs	r1, #2
  40 0006 0248     		ldr	r0, .L3
  41 0008 FFF7FEFF 		bl	HAL_GPIO_WritePin
  42              	.LVL0:
  43 000c 08BD     		pop	{r3, pc}
  44              	.L4:
  45 000e 00BF     		.align	2
  46              	.L3:
  47 0010 00080240 		.word	1073874944
  48              		.cfi_endproc
  49              	.LFE131:
  51              		.section	.text.LCD_RST_0,"ax",%progbits
  52              		.align	1
  53              		.global	LCD_RST_0
  54              		.syntax unified
  55              		.thumb
  56              		.thumb_func
  57              		.fpu fpv4-sp-d16
  59              	LCD_RST_0:
  60              	.LFB132:
  43:application-library/ili9341-lcd/ili9341.c **** }
  44:application-library/ili9341-lcd/ili9341.c **** 
  45:application-library/ili9341-lcd/ili9341.c **** /**
  46:application-library/ili9341-lcd/ili9341.c ****   * @brief   Set TFT LCD module RST (Reset) low.
  47:application-library/ili9341-lcd/ili9341.c ****   * @param   None.
  48:application-library/ili9341-lcd/ili9341.c ****   * @retval  None.
  49:application-library/ili9341-lcd/ili9341.c ****   */
  50:application-library/ili9341-lcd/ili9341.c **** void LCD_RST_0()
  51:application-library/ili9341-lcd/ili9341.c **** {
  61              		.loc 1 51 0
  62              		.cfi_startproc
  63              		@ args = 0, pretend = 0, frame = 0
  64              		@ frame_needed = 0, uses_anonymous_args = 0
  65 0000 08B5     		push	{r3, lr}
  66              	.LCFI1:
ARM GAS  /tmp/ccEto00Y.s 			page 3


  67              		.cfi_def_cfa_offset 8
  68              		.cfi_offset 3, -8
  69              		.cfi_offset 14, -4
  52:application-library/ili9341-lcd/ili9341.c ****   HAL_GPIO_WritePin(GPIOC, GPIO_PIN_1, GPIO_PIN_RESET);  
  70              		.loc 1 52 0
  71 0002 0022     		movs	r2, #0
  72 0004 0221     		movs	r1, #2
  73 0006 0248     		ldr	r0, .L7
  74 0008 FFF7FEFF 		bl	HAL_GPIO_WritePin
  75              	.LVL1:
  76 000c 08BD     		pop	{r3, pc}
  77              	.L8:
  78 000e 00BF     		.align	2
  79              	.L7:
  80 0010 00080240 		.word	1073874944
  81              		.cfi_endproc
  82              	.LFE132:
  84              		.section	.text.LCD_CS_1,"ax",%progbits
  85              		.align	1
  86              		.global	LCD_CS_1
  87              		.syntax unified
  88              		.thumb
  89              		.thumb_func
  90              		.fpu fpv4-sp-d16
  92              	LCD_CS_1:
  93              	.LFB133:
  53:application-library/ili9341-lcd/ili9341.c **** }
  54:application-library/ili9341-lcd/ili9341.c ****  
  55:application-library/ili9341-lcd/ili9341.c **** 
  56:application-library/ili9341-lcd/ili9341.c **** /**
  57:application-library/ili9341-lcd/ili9341.c ****   * @brief   Set TFT LCD module CS (Chip Select) high.
  58:application-library/ili9341-lcd/ili9341.c ****   * @param   None.
  59:application-library/ili9341-lcd/ili9341.c ****   * @retval  None.
  60:application-library/ili9341-lcd/ili9341.c ****   */
  61:application-library/ili9341-lcd/ili9341.c **** void LCD_CS_1()
  62:application-library/ili9341-lcd/ili9341.c **** {
  94              		.loc 1 62 0
  95              		.cfi_startproc
  96              		@ args = 0, pretend = 0, frame = 0
  97              		@ frame_needed = 0, uses_anonymous_args = 0
  98 0000 08B5     		push	{r3, lr}
  99              	.LCFI2:
 100              		.cfi_def_cfa_offset 8
 101              		.cfi_offset 3, -8
 102              		.cfi_offset 14, -4
  63:application-library/ili9341-lcd/ili9341.c ****   HAL_GPIO_WritePin(GPIOB, GPIO_PIN_0, GPIO_PIN_SET);  
 103              		.loc 1 63 0
 104 0002 0122     		movs	r2, #1
 105 0004 1146     		mov	r1, r2
 106 0006 0248     		ldr	r0, .L11
 107 0008 FFF7FEFF 		bl	HAL_GPIO_WritePin
 108              	.LVL2:
 109 000c 08BD     		pop	{r3, pc}
 110              	.L12:
 111 000e 00BF     		.align	2
 112              	.L11:
 113 0010 00040240 		.word	1073873920
ARM GAS  /tmp/ccEto00Y.s 			page 4


 114              		.cfi_endproc
 115              	.LFE133:
 117              		.section	.text.LCD_CS_0,"ax",%progbits
 118              		.align	1
 119              		.global	LCD_CS_0
 120              		.syntax unified
 121              		.thumb
 122              		.thumb_func
 123              		.fpu fpv4-sp-d16
 125              	LCD_CS_0:
 126              	.LFB134:
  64:application-library/ili9341-lcd/ili9341.c **** }
  65:application-library/ili9341-lcd/ili9341.c **** 
  66:application-library/ili9341-lcd/ili9341.c **** /**
  67:application-library/ili9341-lcd/ili9341.c ****   * @brief   Set TFT LCD module CS (Chip Select) low.
  68:application-library/ili9341-lcd/ili9341.c ****   * @param   None.
  69:application-library/ili9341-lcd/ili9341.c ****   * @retval  None.
  70:application-library/ili9341-lcd/ili9341.c ****   */
  71:application-library/ili9341-lcd/ili9341.c **** void LCD_CS_0()
  72:application-library/ili9341-lcd/ili9341.c **** {
 127              		.loc 1 72 0
 128              		.cfi_startproc
 129              		@ args = 0, pretend = 0, frame = 0
 130              		@ frame_needed = 0, uses_anonymous_args = 0
 131 0000 08B5     		push	{r3, lr}
 132              	.LCFI3:
 133              		.cfi_def_cfa_offset 8
 134              		.cfi_offset 3, -8
 135              		.cfi_offset 14, -4
  73:application-library/ili9341-lcd/ili9341.c ****   HAL_GPIO_WritePin(GPIOB, GPIO_PIN_0, GPIO_PIN_RESET);  
 136              		.loc 1 73 0
 137 0002 0022     		movs	r2, #0
 138 0004 0121     		movs	r1, #1
 139 0006 0248     		ldr	r0, .L15
 140 0008 FFF7FEFF 		bl	HAL_GPIO_WritePin
 141              	.LVL3:
 142 000c 08BD     		pop	{r3, pc}
 143              	.L16:
 144 000e 00BF     		.align	2
 145              	.L15:
 146 0010 00040240 		.word	1073873920
 147              		.cfi_endproc
 148              	.LFE134:
 150              		.section	.text.LCD_RS_1,"ax",%progbits
 151              		.align	1
 152              		.global	LCD_RS_1
 153              		.syntax unified
 154              		.thumb
 155              		.thumb_func
 156              		.fpu fpv4-sp-d16
 158              	LCD_RS_1:
 159              	.LFB135:
  74:application-library/ili9341-lcd/ili9341.c **** }
  75:application-library/ili9341-lcd/ili9341.c **** 
  76:application-library/ili9341-lcd/ili9341.c ****  
  77:application-library/ili9341-lcd/ili9341.c **** /**
  78:application-library/ili9341-lcd/ili9341.c ****   * @brief   Set TFT LCD module RS (Register Select) high.
ARM GAS  /tmp/ccEto00Y.s 			page 5


  79:application-library/ili9341-lcd/ili9341.c ****   * @param   None.
  80:application-library/ili9341-lcd/ili9341.c ****   * @retval  None.
  81:application-library/ili9341-lcd/ili9341.c ****   * @note    RS pin is equvilent to D/C or DCX pin. 
  82:application-library/ili9341-lcd/ili9341.c ****   *          RS = 1 indicates D7-D0 sends data.
  83:application-library/ili9341-lcd/ili9341.c ****   *          RS = 0 indicates D7-D0 sends command.
  84:application-library/ili9341-lcd/ili9341.c ****   */
  85:application-library/ili9341-lcd/ili9341.c **** void LCD_RS_1()
  86:application-library/ili9341-lcd/ili9341.c **** {
 160              		.loc 1 86 0
 161              		.cfi_startproc
 162              		@ args = 0, pretend = 0, frame = 0
 163              		@ frame_needed = 0, uses_anonymous_args = 0
 164 0000 08B5     		push	{r3, lr}
 165              	.LCFI4:
 166              		.cfi_def_cfa_offset 8
 167              		.cfi_offset 3, -8
 168              		.cfi_offset 14, -4
  87:application-library/ili9341-lcd/ili9341.c ****   HAL_GPIO_WritePin(GPIOA, GPIO_PIN_4, GPIO_PIN_SET);  
 169              		.loc 1 87 0
 170 0002 0122     		movs	r2, #1
 171 0004 1021     		movs	r1, #16
 172 0006 0248     		ldr	r0, .L19
 173 0008 FFF7FEFF 		bl	HAL_GPIO_WritePin
 174              	.LVL4:
 175 000c 08BD     		pop	{r3, pc}
 176              	.L20:
 177 000e 00BF     		.align	2
 178              	.L19:
 179 0010 00000240 		.word	1073872896
 180              		.cfi_endproc
 181              	.LFE135:
 183              		.section	.text.LCD_RS_0,"ax",%progbits
 184              		.align	1
 185              		.global	LCD_RS_0
 186              		.syntax unified
 187              		.thumb
 188              		.thumb_func
 189              		.fpu fpv4-sp-d16
 191              	LCD_RS_0:
 192              	.LFB136:
  88:application-library/ili9341-lcd/ili9341.c **** }
  89:application-library/ili9341-lcd/ili9341.c **** 
  90:application-library/ili9341-lcd/ili9341.c **** /**
  91:application-library/ili9341-lcd/ili9341.c ****   * @brief   Set TFT LCD module RS (Register Select) low.
  92:application-library/ili9341-lcd/ili9341.c ****   * @param   None.
  93:application-library/ili9341-lcd/ili9341.c ****   * @retval  None.
  94:application-library/ili9341-lcd/ili9341.c ****   * @note    RS pin is equvilent to D/C or DCX pin. 
  95:application-library/ili9341-lcd/ili9341.c ****   *          RS = 1 indicates D7-D0 sends data.
  96:application-library/ili9341-lcd/ili9341.c ****   *          RS = 0 indicates D7-D0 sends command.
  97:application-library/ili9341-lcd/ili9341.c ****   */
  98:application-library/ili9341-lcd/ili9341.c **** void LCD_RS_0()
  99:application-library/ili9341-lcd/ili9341.c **** {
 193              		.loc 1 99 0
 194              		.cfi_startproc
 195              		@ args = 0, pretend = 0, frame = 0
 196              		@ frame_needed = 0, uses_anonymous_args = 0
 197 0000 08B5     		push	{r3, lr}
ARM GAS  /tmp/ccEto00Y.s 			page 6


 198              	.LCFI5:
 199              		.cfi_def_cfa_offset 8
 200              		.cfi_offset 3, -8
 201              		.cfi_offset 14, -4
 100:application-library/ili9341-lcd/ili9341.c ****   HAL_GPIO_WritePin(GPIOA, GPIO_PIN_4, GPIO_PIN_RESET);  
 202              		.loc 1 100 0
 203 0002 0022     		movs	r2, #0
 204 0004 1021     		movs	r1, #16
 205 0006 0248     		ldr	r0, .L23
 206 0008 FFF7FEFF 		bl	HAL_GPIO_WritePin
 207              	.LVL5:
 208 000c 08BD     		pop	{r3, pc}
 209              	.L24:
 210 000e 00BF     		.align	2
 211              	.L23:
 212 0010 00000240 		.word	1073872896
 213              		.cfi_endproc
 214              	.LFE136:
 216              		.section	.text.LCD_WR_1,"ax",%progbits
 217              		.align	1
 218              		.global	LCD_WR_1
 219              		.syntax unified
 220              		.thumb
 221              		.thumb_func
 222              		.fpu fpv4-sp-d16
 224              	LCD_WR_1:
 225              	.LFB137:
 101:application-library/ili9341-lcd/ili9341.c **** }
 102:application-library/ili9341-lcd/ili9341.c **** 
 103:application-library/ili9341-lcd/ili9341.c **** /**
 104:application-library/ili9341-lcd/ili9341.c ****   * @brief   Set TFT LCD module WR(Write) pin high.
 105:application-library/ili9341-lcd/ili9341.c ****   * @param   None.
 106:application-library/ili9341-lcd/ili9341.c ****   * @retval  None.
 107:application-library/ili9341-lcd/ili9341.c ****   */
 108:application-library/ili9341-lcd/ili9341.c **** void LCD_WR_1()
 109:application-library/ili9341-lcd/ili9341.c **** {
 226              		.loc 1 109 0
 227              		.cfi_startproc
 228              		@ args = 0, pretend = 0, frame = 0
 229              		@ frame_needed = 0, uses_anonymous_args = 0
 230 0000 08B5     		push	{r3, lr}
 231              	.LCFI6:
 232              		.cfi_def_cfa_offset 8
 233              		.cfi_offset 3, -8
 234              		.cfi_offset 14, -4
 110:application-library/ili9341-lcd/ili9341.c ****   HAL_GPIO_WritePin(GPIOA, GPIO_PIN_1, GPIO_PIN_SET);  
 235              		.loc 1 110 0
 236 0002 0122     		movs	r2, #1
 237 0004 0221     		movs	r1, #2
 238 0006 0248     		ldr	r0, .L27
 239 0008 FFF7FEFF 		bl	HAL_GPIO_WritePin
 240              	.LVL6:
 241 000c 08BD     		pop	{r3, pc}
 242              	.L28:
 243 000e 00BF     		.align	2
 244              	.L27:
 245 0010 00000240 		.word	1073872896
ARM GAS  /tmp/ccEto00Y.s 			page 7


 246              		.cfi_endproc
 247              	.LFE137:
 249              		.section	.text.LCD_WR_0,"ax",%progbits
 250              		.align	1
 251              		.global	LCD_WR_0
 252              		.syntax unified
 253              		.thumb
 254              		.thumb_func
 255              		.fpu fpv4-sp-d16
 257              	LCD_WR_0:
 258              	.LFB138:
 111:application-library/ili9341-lcd/ili9341.c **** }
 112:application-library/ili9341-lcd/ili9341.c **** 
 113:application-library/ili9341-lcd/ili9341.c **** /**
 114:application-library/ili9341-lcd/ili9341.c ****   * @brief   Set TFT LCD module WR(Write) pin low.
 115:application-library/ili9341-lcd/ili9341.c ****   * @param   None.
 116:application-library/ili9341-lcd/ili9341.c ****   * @retval  None.
 117:application-library/ili9341-lcd/ili9341.c ****   */
 118:application-library/ili9341-lcd/ili9341.c **** void LCD_WR_0()
 119:application-library/ili9341-lcd/ili9341.c **** {
 259              		.loc 1 119 0
 260              		.cfi_startproc
 261              		@ args = 0, pretend = 0, frame = 0
 262              		@ frame_needed = 0, uses_anonymous_args = 0
 263 0000 08B5     		push	{r3, lr}
 264              	.LCFI7:
 265              		.cfi_def_cfa_offset 8
 266              		.cfi_offset 3, -8
 267              		.cfi_offset 14, -4
 120:application-library/ili9341-lcd/ili9341.c ****   HAL_GPIO_WritePin(GPIOA, GPIO_PIN_1, GPIO_PIN_RESET);  
 268              		.loc 1 120 0
 269 0002 0022     		movs	r2, #0
 270 0004 0221     		movs	r1, #2
 271 0006 0248     		ldr	r0, .L31
 272 0008 FFF7FEFF 		bl	HAL_GPIO_WritePin
 273              	.LVL7:
 274 000c 08BD     		pop	{r3, pc}
 275              	.L32:
 276 000e 00BF     		.align	2
 277              	.L31:
 278 0010 00000240 		.word	1073872896
 279              		.cfi_endproc
 280              	.LFE138:
 282              		.section	.text.LCD_WR_RISING_EDGE,"ax",%progbits
 283              		.align	1
 284              		.global	LCD_WR_RISING_EDGE
 285              		.syntax unified
 286              		.thumb
 287              		.thumb_func
 288              		.fpu fpv4-sp-d16
 290              	LCD_WR_RISING_EDGE:
 291              	.LFB139:
 121:application-library/ili9341-lcd/ili9341.c **** }
 122:application-library/ili9341-lcd/ili9341.c **** 
 123:application-library/ili9341-lcd/ili9341.c **** /**
 124:application-library/ili9341-lcd/ili9341.c ****   * @brief   Set rising edge on TFT LCD module WR(Write) pin.
 125:application-library/ili9341-lcd/ili9341.c ****   * @param   None.
ARM GAS  /tmp/ccEto00Y.s 			page 8


 126:application-library/ili9341-lcd/ili9341.c ****   * @retval  None.
 127:application-library/ili9341-lcd/ili9341.c ****   */
 128:application-library/ili9341-lcd/ili9341.c **** void LCD_WR_RISING_EDGE()
 129:application-library/ili9341-lcd/ili9341.c **** {
 292              		.loc 1 129 0
 293              		.cfi_startproc
 294              		@ args = 0, pretend = 0, frame = 0
 295              		@ frame_needed = 0, uses_anonymous_args = 0
 296 0000 10B5     		push	{r4, lr}
 297              	.LCFI8:
 298              		.cfi_def_cfa_offset 8
 299              		.cfi_offset 4, -8
 300              		.cfi_offset 14, -4
 130:application-library/ili9341-lcd/ili9341.c ****   HAL_GPIO_WritePin(GPIOA, GPIO_PIN_1, GPIO_PIN_RESET);  
 301              		.loc 1 130 0
 302 0002 064C     		ldr	r4, .L35
 303 0004 0022     		movs	r2, #0
 304 0006 0221     		movs	r1, #2
 305 0008 2046     		mov	r0, r4
 306 000a FFF7FEFF 		bl	HAL_GPIO_WritePin
 307              	.LVL8:
 131:application-library/ili9341-lcd/ili9341.c ****   HAL_GPIO_WritePin(GPIOA, GPIO_PIN_1, GPIO_PIN_SET);  
 308              		.loc 1 131 0
 309 000e 0122     		movs	r2, #1
 310 0010 0221     		movs	r1, #2
 311 0012 2046     		mov	r0, r4
 312 0014 FFF7FEFF 		bl	HAL_GPIO_WritePin
 313              	.LVL9:
 314 0018 10BD     		pop	{r4, pc}
 315              	.L36:
 316 001a 00BF     		.align	2
 317              	.L35:
 318 001c 00000240 		.word	1073872896
 319              		.cfi_endproc
 320              	.LFE139:
 322              		.section	.text.LCD_RD_1,"ax",%progbits
 323              		.align	1
 324              		.global	LCD_RD_1
 325              		.syntax unified
 326              		.thumb
 327              		.thumb_func
 328              		.fpu fpv4-sp-d16
 330              	LCD_RD_1:
 331              	.LFB140:
 132:application-library/ili9341-lcd/ili9341.c **** }
 133:application-library/ili9341-lcd/ili9341.c **** 
 134:application-library/ili9341-lcd/ili9341.c **** 
 135:application-library/ili9341-lcd/ili9341.c **** /**
 136:application-library/ili9341-lcd/ili9341.c ****   * @brief   Set TFT LCD module RD (Read) high.
 137:application-library/ili9341-lcd/ili9341.c ****   * @param   None.
 138:application-library/ili9341-lcd/ili9341.c ****   * @retval  None.
 139:application-library/ili9341-lcd/ili9341.c ****   */
 140:application-library/ili9341-lcd/ili9341.c **** void LCD_RD_1()
 141:application-library/ili9341-lcd/ili9341.c **** {
 332              		.loc 1 141 0
 333              		.cfi_startproc
 334              		@ args = 0, pretend = 0, frame = 0
ARM GAS  /tmp/ccEto00Y.s 			page 9


 335              		@ frame_needed = 0, uses_anonymous_args = 0
 336 0000 08B5     		push	{r3, lr}
 337              	.LCFI9:
 338              		.cfi_def_cfa_offset 8
 339              		.cfi_offset 3, -8
 340              		.cfi_offset 14, -4
 142:application-library/ili9341-lcd/ili9341.c ****   HAL_GPIO_WritePin(GPIOA, GPIO_PIN_0, GPIO_PIN_SET);  
 341              		.loc 1 142 0
 342 0002 0122     		movs	r2, #1
 343 0004 1146     		mov	r1, r2
 344 0006 0248     		ldr	r0, .L39
 345 0008 FFF7FEFF 		bl	HAL_GPIO_WritePin
 346              	.LVL10:
 347 000c 08BD     		pop	{r3, pc}
 348              	.L40:
 349 000e 00BF     		.align	2
 350              	.L39:
 351 0010 00000240 		.word	1073872896
 352              		.cfi_endproc
 353              	.LFE140:
 355              		.section	.text.LCD_RD_0,"ax",%progbits
 356              		.align	1
 357              		.global	LCD_RD_0
 358              		.syntax unified
 359              		.thumb
 360              		.thumb_func
 361              		.fpu fpv4-sp-d16
 363              	LCD_RD_0:
 364              	.LFB141:
 143:application-library/ili9341-lcd/ili9341.c **** }
 144:application-library/ili9341-lcd/ili9341.c **** 
 145:application-library/ili9341-lcd/ili9341.c **** /**
 146:application-library/ili9341-lcd/ili9341.c ****   * @brief   Set TFT LCD module RD (Read) low.
 147:application-library/ili9341-lcd/ili9341.c ****   * @param   None.
 148:application-library/ili9341-lcd/ili9341.c ****   * @retval  None.
 149:application-library/ili9341-lcd/ili9341.c ****   */
 150:application-library/ili9341-lcd/ili9341.c **** void LCD_RD_0()
 151:application-library/ili9341-lcd/ili9341.c **** {
 365              		.loc 1 151 0
 366              		.cfi_startproc
 367              		@ args = 0, pretend = 0, frame = 0
 368              		@ frame_needed = 0, uses_anonymous_args = 0
 369 0000 08B5     		push	{r3, lr}
 370              	.LCFI10:
 371              		.cfi_def_cfa_offset 8
 372              		.cfi_offset 3, -8
 373              		.cfi_offset 14, -4
 152:application-library/ili9341-lcd/ili9341.c ****   HAL_GPIO_WritePin(GPIOA, GPIO_PIN_0, GPIO_PIN_RESET);  
 374              		.loc 1 152 0
 375 0002 0022     		movs	r2, #0
 376 0004 0121     		movs	r1, #1
 377 0006 0248     		ldr	r0, .L43
 378 0008 FFF7FEFF 		bl	HAL_GPIO_WritePin
 379              	.LVL11:
 380 000c 08BD     		pop	{r3, pc}
 381              	.L44:
 382 000e 00BF     		.align	2
ARM GAS  /tmp/ccEto00Y.s 			page 10


 383              	.L43:
 384 0010 00000240 		.word	1073872896
 385              		.cfi_endproc
 386              	.LFE141:
 388              		.section	.text.gpio_configure_8080_datapins_input_mode,"ax",%progbits
 389              		.align	1
 390              		.global	gpio_configure_8080_datapins_input_mode
 391              		.syntax unified
 392              		.thumb
 393              		.thumb_func
 394              		.fpu fpv4-sp-d16
 396              	gpio_configure_8080_datapins_input_mode:
 397              	.LFB142:
 153:application-library/ili9341-lcd/ili9341.c **** }
 154:application-library/ili9341-lcd/ili9341.c **** 
 155:application-library/ili9341-lcd/ili9341.c **** /**
 156:application-library/ili9341-lcd/ili9341.c ****   * @brief   Configure GPIO input mode for reading 8080 data pins D7-D0.
 157:application-library/ili9341-lcd/ili9341.c ****   * @param   None.
 158:application-library/ili9341-lcd/ili9341.c ****   * @retval  None.
 159:application-library/ili9341-lcd/ili9341.c ****   */
 160:application-library/ili9341-lcd/ili9341.c **** void gpio_configure_8080_datapins_input_mode()
 161:application-library/ili9341-lcd/ili9341.c **** {
 398              		.loc 1 161 0
 399              		.cfi_startproc
 400              		@ args = 0, pretend = 0, frame = 24
 401              		@ frame_needed = 0, uses_anonymous_args = 0
 402 0000 30B5     		push	{r4, r5, lr}
 403              	.LCFI11:
 404              		.cfi_def_cfa_offset 12
 405              		.cfi_offset 4, -12
 406              		.cfi_offset 5, -8
 407              		.cfi_offset 14, -4
 408 0002 87B0     		sub	sp, sp, #28
 409              	.LCFI12:
 410              		.cfi_def_cfa_offset 40
 162:application-library/ili9341-lcd/ili9341.c ****   GPIO_InitTypeDef GPIO_InitStruct;
 163:application-library/ili9341-lcd/ili9341.c ****   GPIO_InitStruct.Pin = GPIO_PIN_8 | GPIO_PIN_9 | GPIO_PIN_10;
 411              		.loc 1 163 0
 412 0004 4FF4E063 		mov	r3, #1792
 413 0008 0193     		str	r3, [sp, #4]
 164:application-library/ili9341-lcd/ili9341.c ****   GPIO_InitStruct.Mode = GPIO_MODE_INPUT;
 414              		.loc 1 164 0
 415 000a 0025     		movs	r5, #0
 416 000c 0295     		str	r5, [sp, #8]
 165:application-library/ili9341-lcd/ili9341.c ****   GPIO_InitStruct.Pull = GPIO_PULLDOWN;
 417              		.loc 1 165 0
 418 000e 0224     		movs	r4, #2
 419 0010 0394     		str	r4, [sp, #12]
 166:application-library/ili9341-lcd/ili9341.c ****   HAL_GPIO_Init(GPIOA, &GPIO_InitStruct);
 420              		.loc 1 166 0
 421 0012 01A9     		add	r1, sp, #4
 422 0014 0A48     		ldr	r0, .L47
 423 0016 FFF7FEFF 		bl	HAL_GPIO_Init
 424              	.LVL12:
 167:application-library/ili9341-lcd/ili9341.c **** 
 168:application-library/ili9341-lcd/ili9341.c ****   GPIO_InitStruct.Pin = GPIO_PIN_3 | GPIO_PIN_4 | GPIO_PIN_5 | GPIO_PIN_10;
 425              		.loc 1 168 0
ARM GAS  /tmp/ccEto00Y.s 			page 11


 426 001a 4FF48763 		mov	r3, #1080
 427 001e 0193     		str	r3, [sp, #4]
 169:application-library/ili9341-lcd/ili9341.c ****   GPIO_InitStruct.Mode = GPIO_MODE_INPUT;
 428              		.loc 1 169 0
 429 0020 0295     		str	r5, [sp, #8]
 170:application-library/ili9341-lcd/ili9341.c ****   GPIO_InitStruct.Pull = GPIO_PULLDOWN;
 430              		.loc 1 170 0
 431 0022 0394     		str	r4, [sp, #12]
 171:application-library/ili9341-lcd/ili9341.c ****   HAL_GPIO_Init(GPIOB, &GPIO_InitStruct);
 432              		.loc 1 171 0
 433 0024 01A9     		add	r1, sp, #4
 434 0026 0748     		ldr	r0, .L47+4
 435 0028 FFF7FEFF 		bl	HAL_GPIO_Init
 436              	.LVL13:
 172:application-library/ili9341-lcd/ili9341.c **** 
 173:application-library/ili9341-lcd/ili9341.c ****   GPIO_InitStruct.Pin = GPIO_PIN_7;
 437              		.loc 1 173 0
 438 002c 8023     		movs	r3, #128
 439 002e 0193     		str	r3, [sp, #4]
 174:application-library/ili9341-lcd/ili9341.c ****   GPIO_InitStruct.Mode = GPIO_MODE_INPUT;
 440              		.loc 1 174 0
 441 0030 0295     		str	r5, [sp, #8]
 175:application-library/ili9341-lcd/ili9341.c ****   GPIO_InitStruct.Pull = GPIO_PULLDOWN;
 442              		.loc 1 175 0
 443 0032 0394     		str	r4, [sp, #12]
 176:application-library/ili9341-lcd/ili9341.c ****   HAL_GPIO_Init(GPIOC, &GPIO_InitStruct);
 444              		.loc 1 176 0
 445 0034 01A9     		add	r1, sp, #4
 446 0036 0448     		ldr	r0, .L47+8
 447 0038 FFF7FEFF 		bl	HAL_GPIO_Init
 448              	.LVL14:
 177:application-library/ili9341-lcd/ili9341.c **** }
 449              		.loc 1 177 0
 450 003c 07B0     		add	sp, sp, #28
 451              	.LCFI13:
 452              		.cfi_def_cfa_offset 12
 453              		@ sp needed
 454 003e 30BD     		pop	{r4, r5, pc}
 455              	.L48:
 456              		.align	2
 457              	.L47:
 458 0040 00000240 		.word	1073872896
 459 0044 00040240 		.word	1073873920
 460 0048 00080240 		.word	1073874944
 461              		.cfi_endproc
 462              	.LFE142:
 464              		.section	.text.gpio_configure_8080_datapins_output_mode,"ax",%progbits
 465              		.align	1
 466              		.global	gpio_configure_8080_datapins_output_mode
 467              		.syntax unified
 468              		.thumb
 469              		.thumb_func
 470              		.fpu fpv4-sp-d16
 472              	gpio_configure_8080_datapins_output_mode:
 473              	.LFB143:
 178:application-library/ili9341-lcd/ili9341.c **** 
 179:application-library/ili9341-lcd/ili9341.c **** /**
ARM GAS  /tmp/ccEto00Y.s 			page 12


 180:application-library/ili9341-lcd/ili9341.c ****   * @brief   Configure GPIO output mode for reading 8080 data pins D7-D0.
 181:application-library/ili9341-lcd/ili9341.c ****   * @param   None.
 182:application-library/ili9341-lcd/ili9341.c ****   * @retval  None.
 183:application-library/ili9341-lcd/ili9341.c ****   */
 184:application-library/ili9341-lcd/ili9341.c **** void gpio_configure_8080_datapins_output_mode()
 185:application-library/ili9341-lcd/ili9341.c **** {
 474              		.loc 1 185 0
 475              		.cfi_startproc
 476              		@ args = 0, pretend = 0, frame = 24
 477              		@ frame_needed = 0, uses_anonymous_args = 0
 478 0000 30B5     		push	{r4, r5, lr}
 479              	.LCFI14:
 480              		.cfi_def_cfa_offset 12
 481              		.cfi_offset 4, -12
 482              		.cfi_offset 5, -8
 483              		.cfi_offset 14, -4
 484 0002 87B0     		sub	sp, sp, #28
 485              	.LCFI15:
 486              		.cfi_def_cfa_offset 40
 186:application-library/ili9341-lcd/ili9341.c ****   GPIO_InitTypeDef GPIO_InitStruct;
 187:application-library/ili9341-lcd/ili9341.c ****   GPIO_InitStruct.Pin = GPIO_PIN_8 | GPIO_PIN_9 | GPIO_PIN_10;
 487              		.loc 1 187 0
 488 0004 4FF4E063 		mov	r3, #1792
 489 0008 0193     		str	r3, [sp, #4]
 188:application-library/ili9341-lcd/ili9341.c ****   GPIO_InitStruct.Mode = GPIO_MODE_OUTPUT_PP;
 490              		.loc 1 188 0
 491 000a 0125     		movs	r5, #1
 492 000c 0295     		str	r5, [sp, #8]
 189:application-library/ili9341-lcd/ili9341.c ****   GPIO_InitStruct.Pull = GPIO_NOPULL;
 493              		.loc 1 189 0
 494 000e 0024     		movs	r4, #0
 495 0010 0394     		str	r4, [sp, #12]
 190:application-library/ili9341-lcd/ili9341.c ****   HAL_GPIO_Init(GPIOA, &GPIO_InitStruct);
 496              		.loc 1 190 0
 497 0012 01A9     		add	r1, sp, #4
 498 0014 0A48     		ldr	r0, .L51
 499 0016 FFF7FEFF 		bl	HAL_GPIO_Init
 500              	.LVL15:
 191:application-library/ili9341-lcd/ili9341.c **** 
 192:application-library/ili9341-lcd/ili9341.c **** 
 193:application-library/ili9341-lcd/ili9341.c ****   GPIO_InitStruct.Pin = GPIO_PIN_3 | GPIO_PIN_4 | GPIO_PIN_5 | GPIO_PIN_10;
 501              		.loc 1 193 0
 502 001a 4FF48763 		mov	r3, #1080
 503 001e 0193     		str	r3, [sp, #4]
 194:application-library/ili9341-lcd/ili9341.c ****   GPIO_InitStruct.Mode = GPIO_MODE_OUTPUT_PP;
 504              		.loc 1 194 0
 505 0020 0295     		str	r5, [sp, #8]
 195:application-library/ili9341-lcd/ili9341.c ****   GPIO_InitStruct.Pull = GPIO_NOPULL;
 506              		.loc 1 195 0
 507 0022 0394     		str	r4, [sp, #12]
 196:application-library/ili9341-lcd/ili9341.c ****   HAL_GPIO_Init(GPIOB, &GPIO_InitStruct);
 508              		.loc 1 196 0
 509 0024 01A9     		add	r1, sp, #4
 510 0026 0748     		ldr	r0, .L51+4
 511 0028 FFF7FEFF 		bl	HAL_GPIO_Init
 512              	.LVL16:
 197:application-library/ili9341-lcd/ili9341.c **** 
ARM GAS  /tmp/ccEto00Y.s 			page 13


 198:application-library/ili9341-lcd/ili9341.c ****   GPIO_InitStruct.Pin = GPIO_PIN_7;
 513              		.loc 1 198 0
 514 002c 8023     		movs	r3, #128
 515 002e 0193     		str	r3, [sp, #4]
 199:application-library/ili9341-lcd/ili9341.c ****   GPIO_InitStruct.Mode = GPIO_MODE_OUTPUT_PP;
 516              		.loc 1 199 0
 517 0030 0295     		str	r5, [sp, #8]
 200:application-library/ili9341-lcd/ili9341.c ****   GPIO_InitStruct.Pull = GPIO_NOPULL;
 518              		.loc 1 200 0
 519 0032 0394     		str	r4, [sp, #12]
 201:application-library/ili9341-lcd/ili9341.c ****   HAL_GPIO_Init(GPIOC, &GPIO_InitStruct);
 520              		.loc 1 201 0
 521 0034 01A9     		add	r1, sp, #4
 522 0036 0448     		ldr	r0, .L51+8
 523 0038 FFF7FEFF 		bl	HAL_GPIO_Init
 524              	.LVL17:
 202:application-library/ili9341-lcd/ili9341.c **** }
 525              		.loc 1 202 0
 526 003c 07B0     		add	sp, sp, #28
 527              	.LCFI16:
 528              		.cfi_def_cfa_offset 12
 529              		@ sp needed
 530 003e 30BD     		pop	{r4, r5, pc}
 531              	.L52:
 532              		.align	2
 533              	.L51:
 534 0040 00000240 		.word	1073872896
 535 0044 00040240 		.word	1073873920
 536 0048 00080240 		.word	1073874944
 537              		.cfi_endproc
 538              	.LFE143:
 540              		.section	.text.bus_8080_read_parallel_datapins,"ax",%progbits
 541              		.align	1
 542              		.global	bus_8080_read_parallel_datapins
 543              		.syntax unified
 544              		.thumb
 545              		.thumb_func
 546              		.fpu fpv4-sp-d16
 548              	bus_8080_read_parallel_datapins:
 549              	.LFB144:
 203:application-library/ili9341-lcd/ili9341.c **** 
 204:application-library/ili9341-lcd/ili9341.c **** /**
 205:application-library/ili9341-lcd/ili9341.c ****   * @brief   Read 8080 data pins D7-D0 pins on GPIO.
 206:application-library/ili9341-lcd/ili9341.c ****   * @param   None.
 207:application-library/ili9341-lcd/ili9341.c ****   * @retval  Single byte concatenating pin level from D7-D0.
 208:application-library/ili9341-lcd/ili9341.c ****   */
 209:application-library/ili9341-lcd/ili9341.c **** uint8_t bus_8080_read_parallel_datapins() 
 210:application-library/ili9341-lcd/ili9341.c **** {
 550              		.loc 1 210 0
 551              		.cfi_startproc
 552              		@ args = 0, pretend = 0, frame = 0
 553              		@ frame_needed = 0, uses_anonymous_args = 0
 554 0000 70B5     		push	{r4, r5, r6, lr}
 555              	.LCFI17:
 556              		.cfi_def_cfa_offset 16
 557              		.cfi_offset 4, -16
 558              		.cfi_offset 5, -12
ARM GAS  /tmp/ccEto00Y.s 			page 14


 559              		.cfi_offset 6, -8
 560              		.cfi_offset 14, -4
 211:application-library/ili9341-lcd/ili9341.c ****   uint8_t read_data;
 212:application-library/ili9341-lcd/ili9341.c ****   read_data = \
 213:application-library/ili9341-lcd/ili9341.c ****                 HAL_GPIO_ReadPin(GPIOA, GPIO_PIN_8)  << 7   \
 561              		.loc 1 213 0
 562 0002 1E4D     		ldr	r5, .L55
 563 0004 4FF48071 		mov	r1, #256
 564 0008 2846     		mov	r0, r5
 565 000a FFF7FEFF 		bl	HAL_GPIO_ReadPin
 566              	.LVL18:
 567 000e C401     		lsls	r4, r0, #7
 214:application-library/ili9341-lcd/ili9341.c ****               | HAL_GPIO_ReadPin(GPIOB, GPIO_PIN_10) << 6   \
 568              		.loc 1 214 0
 569 0010 1B4E     		ldr	r6, .L55+4
 570 0012 4FF48061 		mov	r1, #1024
 571 0016 3046     		mov	r0, r6
 572 0018 FFF7FEFF 		bl	HAL_GPIO_ReadPin
 573              	.LVL19:
 574 001c 44EA8014 		orr	r4, r4, r0, lsl #6
 575 0020 64B2     		sxtb	r4, r4
 215:application-library/ili9341-lcd/ili9341.c ****               | HAL_GPIO_ReadPin(GPIOB, GPIO_PIN_4)  << 5   \
 576              		.loc 1 215 0
 577 0022 1021     		movs	r1, #16
 578 0024 3046     		mov	r0, r6
 579 0026 FFF7FEFF 		bl	HAL_GPIO_ReadPin
 580              	.LVL20:
 581 002a 44EA4014 		orr	r4, r4, r0, lsl #5
 582 002e 64B2     		sxtb	r4, r4
 216:application-library/ili9341-lcd/ili9341.c ****               | HAL_GPIO_ReadPin(GPIOB, GPIO_PIN_5)  << 4   \
 583              		.loc 1 216 0
 584 0030 2021     		movs	r1, #32
 585 0032 3046     		mov	r0, r6
 586 0034 FFF7FEFF 		bl	HAL_GPIO_ReadPin
 587              	.LVL21:
 588 0038 44EA0014 		orr	r4, r4, r0, lsl #4
 589 003c 64B2     		sxtb	r4, r4
 217:application-library/ili9341-lcd/ili9341.c ****               | HAL_GPIO_ReadPin(GPIOB, GPIO_PIN_3)  << 3   \
 590              		.loc 1 217 0
 591 003e 0821     		movs	r1, #8
 592 0040 3046     		mov	r0, r6
 593 0042 FFF7FEFF 		bl	HAL_GPIO_ReadPin
 594              	.LVL22:
 595 0046 44EAC004 		orr	r4, r4, r0, lsl #3
 596 004a 64B2     		sxtb	r4, r4
 218:application-library/ili9341-lcd/ili9341.c ****               | HAL_GPIO_ReadPin(GPIOA, GPIO_PIN_10) << 2   \
 597              		.loc 1 218 0
 598 004c 4FF48061 		mov	r1, #1024
 599 0050 2846     		mov	r0, r5
 600 0052 FFF7FEFF 		bl	HAL_GPIO_ReadPin
 601              	.LVL23:
 602 0056 44EA8004 		orr	r4, r4, r0, lsl #2
 603 005a 64B2     		sxtb	r4, r4
 219:application-library/ili9341-lcd/ili9341.c ****               | HAL_GPIO_ReadPin(GPIOC, GPIO_PIN_7)  << 1   \
 604              		.loc 1 219 0
 605 005c 8021     		movs	r1, #128
 606 005e 0948     		ldr	r0, .L55+8
ARM GAS  /tmp/ccEto00Y.s 			page 15


 607 0060 FFF7FEFF 		bl	HAL_GPIO_ReadPin
 608              	.LVL24:
 609 0064 44EA4004 		orr	r4, r4, r0, lsl #1
 610 0068 64B2     		sxtb	r4, r4
 220:application-library/ili9341-lcd/ili9341.c ****               | HAL_GPIO_ReadPin(GPIOA, GPIO_PIN_9);
 611              		.loc 1 220 0
 612 006a 4FF40071 		mov	r1, #512
 613 006e 2846     		mov	r0, r5
 614 0070 FFF7FEFF 		bl	HAL_GPIO_ReadPin
 615              	.LVL25:
 616 0074 40B2     		sxtb	r0, r0
 617 0076 2043     		orrs	r0, r0, r4
 618              	.LVL26:
 221:application-library/ili9341-lcd/ili9341.c ****   return read_data;
 222:application-library/ili9341-lcd/ili9341.c **** }
 619              		.loc 1 222 0
 620 0078 C0B2     		uxtb	r0, r0
 621 007a 70BD     		pop	{r4, r5, r6, pc}
 622              	.L56:
 623              		.align	2
 624              	.L55:
 625 007c 00000240 		.word	1073872896
 626 0080 00040240 		.word	1073873920
 627 0084 00080240 		.word	1073874944
 628              		.cfi_endproc
 629              	.LFE144:
 631              		.section	.text.bus_8080_write_parallel_datapins,"ax",%progbits
 632              		.align	1
 633              		.global	bus_8080_write_parallel_datapins
 634              		.syntax unified
 635              		.thumb
 636              		.thumb_func
 637              		.fpu fpv4-sp-d16
 639              	bus_8080_write_parallel_datapins:
 640              	.LFB145:
 223:application-library/ili9341-lcd/ili9341.c **** 
 224:application-library/ili9341-lcd/ili9341.c **** 
 225:application-library/ili9341-lcd/ili9341.c **** /**
 226:application-library/ili9341-lcd/ili9341.c ****   * @brief   Reading 8080 data D7-D0 pins on GPIO.
 227:application-library/ili9341-lcd/ili9341.c ****   * @param   write_data Data written to 8080 bus D7-D0.
 228:application-library/ili9341-lcd/ili9341.c ****   * @retval  None.
 229:application-library/ili9341-lcd/ili9341.c ****   */
 230:application-library/ili9341-lcd/ili9341.c **** void bus_8080_write_parallel_datapins(uint8_t write_data) 
 231:application-library/ili9341-lcd/ili9341.c **** {
 641              		.loc 1 231 0
 642              		.cfi_startproc
 643              		@ args = 0, pretend = 0, frame = 0
 644              		@ frame_needed = 0, uses_anonymous_args = 0
 645              		@ link register save eliminated.
 646              	.LVL27:
 647 0000 30B4     		push	{r4, r5}
 648              	.LCFI18:
 649              		.cfi_def_cfa_offset 8
 650              		.cfi_offset 4, -8
 651              		.cfi_offset 5, -4
 232:application-library/ili9341-lcd/ili9341.c ****   // HAL_GPIO_WritePin(GPIOA, GPIO_PIN_8,  (write_data & 0x80) ? GPIO_PIN_SET : GPIO_PIN_RESET);
 233:application-library/ili9341-lcd/ili9341.c ****   // HAL_GPIO_WritePin(GPIOB, GPIO_PIN_10, (write_data & 0x40) ? GPIO_PIN_SET : GPIO_PIN_RESET); 
ARM GAS  /tmp/ccEto00Y.s 			page 16


 234:application-library/ili9341-lcd/ili9341.c ****   // HAL_GPIO_WritePin(GPIOB, GPIO_PIN_4,  (write_data & 0x20) ? GPIO_PIN_SET : GPIO_PIN_RESET);  
 235:application-library/ili9341-lcd/ili9341.c ****   // HAL_GPIO_WritePin(GPIOB, GPIO_PIN_5,  (write_data & 0x10) ? GPIO_PIN_SET : GPIO_PIN_RESET); 
 236:application-library/ili9341-lcd/ili9341.c ****   // HAL_GPIO_WritePin(GPIOB, GPIO_PIN_3,  (write_data & 0x08) ? GPIO_PIN_SET : GPIO_PIN_RESET); 
 237:application-library/ili9341-lcd/ili9341.c ****   // HAL_GPIO_WritePin(GPIOA, GPIO_PIN_10, (write_data & 0x04) ? GPIO_PIN_SET : GPIO_PIN_RESET);
 238:application-library/ili9341-lcd/ili9341.c ****   // HAL_GPIO_WritePin(GPIOC, GPIO_PIN_7,  (write_data & 0x02) ? GPIO_PIN_SET : GPIO_PIN_RESET);
 239:application-library/ili9341-lcd/ili9341.c ****   // HAL_GPIO_WritePin(GPIOA, GPIO_PIN_9,  (write_data & 0x01) ? GPIO_PIN_SET : GPIO_PIN_RESET);
 240:application-library/ili9341-lcd/ili9341.c ****   GPIOA->ODR &= ~((1 << 8) | (1 << 10) | (1 << 9));
 652              		.loc 1 240 0
 653 0002 1A4B     		ldr	r3, .L59
 654 0004 5A69     		ldr	r2, [r3, #20]
 655 0006 22F4E062 		bic	r2, r2, #1792
 656 000a 5A61     		str	r2, [r3, #20]
 241:application-library/ili9341-lcd/ili9341.c ****   GPIOA->ODR |= ( ((write_data & 0x80) << 1) | ((write_data & 0x04) << 8) | ( (write_data & 0x01) <
 657              		.loc 1 241 0
 658 000c 5C69     		ldr	r4, [r3, #20]
 659 000e 4100     		lsls	r1, r0, #1
 660 0010 01F48072 		and	r2, r1, #256
 661 0014 0502     		lsls	r5, r0, #8
 662 0016 05F48065 		and	r5, r5, #1024
 663 001a 2A43     		orrs	r2, r2, r5
 664 001c 4502     		lsls	r5, r0, #9
 665 001e 05F40075 		and	r5, r5, #512
 666 0022 2A43     		orrs	r2, r2, r5
 667 0024 2243     		orrs	r2, r2, r4
 668 0026 5A61     		str	r2, [r3, #20]
 242:application-library/ili9341-lcd/ili9341.c **** 
 243:application-library/ili9341-lcd/ili9341.c ****   GPIOB->ODR &= ~((1 << 10) | (1 << 4) | (1 << 5) | (1 << 3));
 669              		.loc 1 243 0
 670 0028 114A     		ldr	r2, .L59+4
 671 002a 5369     		ldr	r3, [r2, #20]
 672 002c 23F48763 		bic	r3, r3, #1080
 673 0030 5361     		str	r3, [r2, #20]
 244:application-library/ili9341-lcd/ili9341.c ****   GPIOB->ODR |= ( ((write_data & 0x40) << 4) | ((write_data & 0x20) >> 1) | ( (write_data & 0x10) <
 674              		.loc 1 244 0
 675 0032 5469     		ldr	r4, [r2, #20]
 676 0034 0301     		lsls	r3, r0, #4
 677 0036 03F48063 		and	r3, r3, #1024
 678 003a 4510     		asrs	r5, r0, #1
 679 003c 05F01005 		and	r5, r5, #16
 680 0040 2B43     		orrs	r3, r3, r5
 681 0042 01F02001 		and	r1, r1, #32
 682 0046 0B43     		orrs	r3, r3, r1
 683 0048 00F00801 		and	r1, r0, #8
 684 004c 0B43     		orrs	r3, r3, r1
 685 004e 2343     		orrs	r3, r3, r4
 686 0050 5361     		str	r3, [r2, #20]
 245:application-library/ili9341-lcd/ili9341.c **** 
 246:application-library/ili9341-lcd/ili9341.c ****   GPIOC->ODR &= ~(1 << 7);
 687              		.loc 1 246 0
 688 0052 084B     		ldr	r3, .L59+8
 689 0054 5A69     		ldr	r2, [r3, #20]
 690 0056 22F08002 		bic	r2, r2, #128
 691 005a 5A61     		str	r2, [r3, #20]
 247:application-library/ili9341-lcd/ili9341.c ****   GPIOC->ODR |= ((write_data & 0x02) << 6);
 692              		.loc 1 247 0
 693 005c 5A69     		ldr	r2, [r3, #20]
 694 005e 8001     		lsls	r0, r0, #6
ARM GAS  /tmp/ccEto00Y.s 			page 17


 695              	.LVL28:
 696 0060 00F08000 		and	r0, r0, #128
 697 0064 1043     		orrs	r0, r0, r2
 698 0066 5861     		str	r0, [r3, #20]
 248:application-library/ili9341-lcd/ili9341.c **** }
 699              		.loc 1 248 0
 700 0068 30BC     		pop	{r4, r5}
 701              	.LCFI19:
 702              		.cfi_restore 5
 703              		.cfi_restore 4
 704              		.cfi_def_cfa_offset 0
 705 006a 7047     		bx	lr
 706              	.L60:
 707              		.align	2
 708              	.L59:
 709 006c 00000240 		.word	1073872896
 710 0070 00040240 		.word	1073873920
 711 0074 00080240 		.word	1073874944
 712              		.cfi_endproc
 713              	.LFE145:
 715              		.section	.text.bus_8080_write_register,"ax",%progbits
 716              		.align	1
 717              		.global	bus_8080_write_register
 718              		.syntax unified
 719              		.thumb
 720              		.thumb_func
 721              		.fpu fpv4-sp-d16
 723              	bus_8080_write_register:
 724              	.LFB146:
 249:application-library/ili9341-lcd/ili9341.c **** 
 250:application-library/ili9341-lcd/ili9341.c **** 
 251:application-library/ili9341-lcd/ili9341.c **** /**
 252:application-library/ili9341-lcd/ili9341.c ****   * @brief  Write to devie register through 8080 bus. 
 253:application-library/ili9341-lcd/ili9341.c ****   * @param  target_register Command byte. Essentially the target register to write.
 254:application-library/ili9341-lcd/ili9341.c ****   * @param  p_param Pointer to an array containing parameters to write to the targert register.
 255:application-library/ili9341-lcd/ili9341.c ****   * @param  length Number of parameters in bytes.
 256:application-library/ili9341-lcd/ili9341.c ****   * @retval None.
 257:application-library/ili9341-lcd/ili9341.c ****   * @note   Parallel 8080 Bus Time Write Sequence:
 258:application-library/ili9341-lcd/ili9341.c ****   *         CS  ````\_________________________________________________________________/````
 259:application-library/ili9341-lcd/ili9341.c ****   *         RS  ``````\_______________/````````````````````````````````````````````````````
 260:application-library/ili9341-lcd/ili9341.c ****   *         WR  ____________________/_________________/________________/______________/````
 261:application-library/ili9341-lcd/ili9341.c ****   *         RD  ```````````````````````````````````````````````````````````````````````````
 262:application-library/ili9341-lcd/ili9341.c ****   *         D[7:0]       | COMMAND |    | PARAMETER |    | PARAMETER |   | PARAMETER |
 263:application-library/ili9341-lcd/ili9341.c ****   *         ILI9341                 read              read              read          read 
 264:application-library/ili9341-lcd/ili9341.c ****   *         MCU             write            write           write           write
 265:application-library/ili9341-lcd/ili9341.c ****   *        
 266:application-library/ili9341-lcd/ili9341.c ****   *         RS Stands for Register Select. It is equvilent to D/C (DCX) pin in ili9341 datasheet.
 267:application-library/ili9341-lcd/ili9341.c ****   *           When RS = 0, ili9341 interpret D[7:0] as command.
 268:application-library/ili9341-lcd/ili9341.c ****   *           When RS = 1, ili9341 interpret D[7:0] as data. 
 269:application-library/ili9341-lcd/ili9341.c ****   *         RD Read Line always high indicating read is inactive. 
 270:application-library/ili9341-lcd/ili9341.c ****   *         WR Write Line needs to show rising edge every time data is already sent on D[7:0],
 271:application-library/ili9341-lcd/ili9341.c ****   *           ILI9341 will read data on the WR rising edge. 
 272:application-library/ili9341-lcd/ili9341.c ****   */
 273:application-library/ili9341-lcd/ili9341.c ****   
 274:application-library/ili9341-lcd/ili9341.c **** void bus_8080_write_register(uint8_t target_register, uint8_t length, uint8_t* p_param)
 275:application-library/ili9341-lcd/ili9341.c **** {
 725              		.loc 1 275 0
ARM GAS  /tmp/ccEto00Y.s 			page 18


 726              		.cfi_startproc
 727              		@ args = 0, pretend = 0, frame = 0
 728              		@ frame_needed = 0, uses_anonymous_args = 0
 729              	.LVL29:
 730 0000 70B5     		push	{r4, r5, r6, lr}
 731              	.LCFI20:
 732              		.cfi_def_cfa_offset 16
 733              		.cfi_offset 4, -16
 734              		.cfi_offset 5, -12
 735              		.cfi_offset 6, -8
 736              		.cfi_offset 14, -4
 737 0002 0446     		mov	r4, r0
 738 0004 0D46     		mov	r5, r1
 739 0006 1646     		mov	r6, r2
 276:application-library/ili9341-lcd/ili9341.c ****   /* Write command byte (target register) */
 277:application-library/ili9341-lcd/ili9341.c ****   LCD_CS_0();  /* Chip Select */
 740              		.loc 1 277 0
 741 0008 FFF7FEFF 		bl	LCD_CS_0
 742              	.LVL30:
 278:application-library/ili9341-lcd/ili9341.c ****   LCD_RS_0();  /* RS (Data / Command) = 0, selecting command*/
 743              		.loc 1 278 0
 744 000c FFF7FEFF 		bl	LCD_RS_0
 745              	.LVL31:
 279:application-library/ili9341-lcd/ili9341.c ****   LCD_RD_1();  /* READ = 1. Read line inactive. */
 746              		.loc 1 279 0
 747 0010 FFF7FEFF 		bl	LCD_RD_1
 748              	.LVL32:
 280:application-library/ili9341-lcd/ili9341.c ****   gpio_configure_8080_datapins_output_mode(); /* Configure D7-D0 GPIO output mode */
 749              		.loc 1 280 0
 750 0014 FFF7FEFF 		bl	gpio_configure_8080_datapins_output_mode
 751              	.LVL33:
 281:application-library/ili9341-lcd/ili9341.c ****   bus_8080_write_parallel_datapins(target_register); /* Write target register on D7-D0. */
 752              		.loc 1 281 0
 753 0018 2046     		mov	r0, r4
 754 001a FFF7FEFF 		bl	bus_8080_write_parallel_datapins
 755              	.LVL34:
 282:application-library/ili9341-lcd/ili9341.c ****   LCD_WR_RISING_EDGE(); /* Validate the byte on WRITE rising edge. */
 756              		.loc 1 282 0
 757 001e FFF7FEFF 		bl	LCD_WR_RISING_EDGE
 758              	.LVL35:
 283:application-library/ili9341-lcd/ili9341.c **** 
 284:application-library/ili9341-lcd/ili9341.c ****   LCD_RS_1();   /* RS (Data / Command Selection) = 1, selecting data. */
 759              		.loc 1 284 0
 760 0022 FFF7FEFF 		bl	LCD_RS_1
 761              	.LVL36:
 762              	.LBB2:
 285:application-library/ili9341-lcd/ili9341.c ****   /* Iterate through each parameters. */ 
 286:application-library/ili9341-lcd/ili9341.c ****   for (int i = 0; i < length; ++i)
 763              		.loc 1 286 0
 764 0026 0024     		movs	r4, #0
 765 0028 05E0     		b	.L62
 766              	.LVL37:
 767              	.L63:
 287:application-library/ili9341-lcd/ili9341.c ****   {
 288:application-library/ili9341-lcd/ili9341.c ****     // LCD_RD_1(); /* already set above */
 289:application-library/ili9341-lcd/ili9341.c ****     // gpio_configure_8080_datapins_output_mode();  /* already set above */
 290:application-library/ili9341-lcd/ili9341.c ****     bus_8080_write_parallel_datapins(p_param[i]);
ARM GAS  /tmp/ccEto00Y.s 			page 19


 768              		.loc 1 290 0 discriminator 3
 769 002a 305D     		ldrb	r0, [r6, r4]	@ zero_extendqisi2
 770 002c FFF7FEFF 		bl	bus_8080_write_parallel_datapins
 771              	.LVL38:
 291:application-library/ili9341-lcd/ili9341.c ****     LCD_WR_RISING_EDGE(); /* Validate the byte on WRITE rising edge. */
 772              		.loc 1 291 0 discriminator 3
 773 0030 FFF7FEFF 		bl	LCD_WR_RISING_EDGE
 774              	.LVL39:
 286:application-library/ili9341-lcd/ili9341.c ****   {
 775              		.loc 1 286 0 discriminator 3
 776 0034 0134     		adds	r4, r4, #1
 777              	.LVL40:
 778              	.L62:
 286:application-library/ili9341-lcd/ili9341.c ****   {
 779              		.loc 1 286 0 is_stmt 0 discriminator 1
 780 0036 AC42     		cmp	r4, r5
 781 0038 F7DB     		blt	.L63
 782              	.LBE2:
 292:application-library/ili9341-lcd/ili9341.c ****   }
 293:application-library/ili9341-lcd/ili9341.c ****   LCD_CS_1(); /* De-select Chip. */
 783              		.loc 1 293 0 is_stmt 1
 784 003a FFF7FEFF 		bl	LCD_CS_1
 785              	.LVL41:
 786 003e 70BD     		pop	{r4, r5, r6, pc}
 787              		.cfi_endproc
 788              	.LFE146:
 790              		.section	.text.bus_8080_read_register,"ax",%progbits
 791              		.align	1
 792              		.global	bus_8080_read_register
 793              		.syntax unified
 794              		.thumb
 795              		.thumb_func
 796              		.fpu fpv4-sp-d16
 798              	bus_8080_read_register:
 799              	.LFB147:
 294:application-library/ili9341-lcd/ili9341.c **** }
 295:application-library/ili9341-lcd/ili9341.c **** 
 296:application-library/ili9341-lcd/ili9341.c **** 
 297:application-library/ili9341-lcd/ili9341.c **** /**
 298:application-library/ili9341-lcd/ili9341.c ****   * @brief  Read device register value from 8080 bus. 
 299:application-library/ili9341-lcd/ili9341.c ****   * @param  target_register Command byte. Essentially the target register to write.
 300:application-library/ili9341-lcd/ili9341.c ****   * @param  length Number of parameters in bytes.
 301:application-library/ili9341-lcd/ili9341.c ****   * @param  p_param Pointer to an array containing read data from target device.
 302:application-library/ili9341-lcd/ili9341.c ****   * @retval None.
 303:application-library/ili9341-lcd/ili9341.c ****   * @note   Parallel 8080 Bus Time Write Sequence:
 304:application-library/ili9341-lcd/ili9341.c ****   *         CS  ````\_________________________________________________________________/````
 305:application-library/ili9341-lcd/ili9341.c ****   *         RS  ``````\_______________/````````````````````````````````````````````````````
 306:application-library/ili9341-lcd/ili9341.c ****   *         WR  ____________________/``````````````````````````````````````````````````````
 307:application-library/ili9341-lcd/ili9341.c ****   *         RD  ``````````````````````````___________/````````````````__/``````````````_/``
 308:application-library/ili9341-lcd/ili9341.c ****   *         D[7:0]       | COMMAND |    | PARAMETER |    | PARAMETER |   | PARAMETER |
 309:application-library/ili9341-lcd/ili9341.c ****   *         ILI9341                 read  write            write           write
 310:application-library/ili9341-lcd/ili9341.c ****   *         MCU             write                read               read           read
 311:application-library/ili9341-lcd/ili9341.c ****   *         
 312:application-library/ili9341-lcd/ili9341.c ****   *         RS Stands for Register Select. It is equvilent to D/C (DCX) pin in ili9341 datasheet.
 313:application-library/ili9341-lcd/ili9341.c ****   *           When RS = 0, ili9341 interpret D[7:0] as command.
 314:application-library/ili9341-lcd/ili9341.c ****   *           When RS = 1, ili9341 interpret D[7:0] as data. 
 315:application-library/ili9341-lcd/ili9341.c ****   *         RD Read Line needs to pull rising edge by the MCU every time data prepared by ili9341
ARM GAS  /tmp/ccEto00Y.s 			page 20


 316:application-library/ili9341-lcd/ili9341.c ****   *           has been consumed by the MCU.
 317:application-library/ili9341-lcd/ili9341.c ****   *         WR Write Line turns high once the MCU has written the command byte. 
 318:application-library/ili9341-lcd/ili9341.c ****   *           The MCU enters read mode and consumes data prepared by ili9341 on D[7:0].
 319:application-library/ili9341-lcd/ili9341.c ****   */
 320:application-library/ili9341-lcd/ili9341.c **** void bus_8080_read_register(uint8_t target_register, uint8_t length, uint8_t* p_read_data)
 321:application-library/ili9341-lcd/ili9341.c **** {
 800              		.loc 1 321 0
 801              		.cfi_startproc
 802              		@ args = 0, pretend = 0, frame = 0
 803              		@ frame_needed = 0, uses_anonymous_args = 0
 804              	.LVL42:
 805 0000 70B5     		push	{r4, r5, r6, lr}
 806              	.LCFI21:
 807              		.cfi_def_cfa_offset 16
 808              		.cfi_offset 4, -16
 809              		.cfi_offset 5, -12
 810              		.cfi_offset 6, -8
 811              		.cfi_offset 14, -4
 812 0002 0446     		mov	r4, r0
 813 0004 0D46     		mov	r5, r1
 814 0006 1646     		mov	r6, r2
 322:application-library/ili9341-lcd/ili9341.c ****   
 323:application-library/ili9341-lcd/ili9341.c ****   /* Write command byte (target register) */
 324:application-library/ili9341-lcd/ili9341.c ****   LCD_CS_0(); /* Chip Select */
 815              		.loc 1 324 0
 816 0008 FFF7FEFF 		bl	LCD_CS_0
 817              	.LVL43:
 325:application-library/ili9341-lcd/ili9341.c ****   LCD_RS_0();  
 818              		.loc 1 325 0
 819 000c FFF7FEFF 		bl	LCD_RS_0
 820              	.LVL44:
 326:application-library/ili9341-lcd/ili9341.c ****   LCD_RD_1();
 821              		.loc 1 326 0
 822 0010 FFF7FEFF 		bl	LCD_RD_1
 823              	.LVL45:
 327:application-library/ili9341-lcd/ili9341.c ****   
 328:application-library/ili9341-lcd/ili9341.c ****   gpio_configure_8080_datapins_output_mode();
 824              		.loc 1 328 0
 825 0014 FFF7FEFF 		bl	gpio_configure_8080_datapins_output_mode
 826              	.LVL46:
 329:application-library/ili9341-lcd/ili9341.c ****   bus_8080_write_parallel_datapins(target_register); /* Write data to data bus D7-D0. */  
 827              		.loc 1 329 0
 828 0018 2046     		mov	r0, r4
 829 001a FFF7FEFF 		bl	bus_8080_write_parallel_datapins
 830              	.LVL47:
 330:application-library/ili9341-lcd/ili9341.c ****   LCD_WR_RISING_EDGE();
 831              		.loc 1 330 0
 832 001e FFF7FEFF 		bl	LCD_WR_RISING_EDGE
 833              	.LVL48:
 331:application-library/ili9341-lcd/ili9341.c **** 
 332:application-library/ili9341-lcd/ili9341.c ****   /* MCU Enter read mode. */
 333:application-library/ili9341-lcd/ili9341.c ****   LCD_RS_1();  
 834              		.loc 1 333 0
 835 0022 FFF7FEFF 		bl	LCD_RS_1
 836              	.LVL49:
 334:application-library/ili9341-lcd/ili9341.c ****   LCD_WR_1();
 837              		.loc 1 334 0
ARM GAS  /tmp/ccEto00Y.s 			page 21


 838 0026 FFF7FEFF 		bl	LCD_WR_1
 839              	.LVL50:
 335:application-library/ili9341-lcd/ili9341.c ****   gpio_configure_8080_datapins_input_mode();
 840              		.loc 1 335 0
 841 002a FFF7FEFF 		bl	gpio_configure_8080_datapins_input_mode
 842              	.LVL51:
 843              	.LBB3:
 336:application-library/ili9341-lcd/ili9341.c ****   /* Iterate through each data. */ 
 337:application-library/ili9341-lcd/ili9341.c ****   for (int i = 0; i < length; ++i)
 844              		.loc 1 337 0
 845 002e 0024     		movs	r4, #0
 846 0030 07E0     		b	.L66
 847              	.LVL52:
 848              	.L67:
 338:application-library/ili9341-lcd/ili9341.c ****   {
 339:application-library/ili9341-lcd/ili9341.c ****     LCD_RD_0();
 849              		.loc 1 339 0 discriminator 3
 850 0032 FFF7FEFF 		bl	LCD_RD_0
 851              	.LVL53:
 340:application-library/ili9341-lcd/ili9341.c ****     p_read_data[i] = bus_8080_read_parallel_datapins();
 852              		.loc 1 340 0 discriminator 3
 853 0036 FFF7FEFF 		bl	bus_8080_read_parallel_datapins
 854              	.LVL54:
 855 003a 3055     		strb	r0, [r6, r4]
 341:application-library/ili9341-lcd/ili9341.c ****     LCD_RD_1();
 856              		.loc 1 341 0 discriminator 3
 857 003c FFF7FEFF 		bl	LCD_RD_1
 858              	.LVL55:
 337:application-library/ili9341-lcd/ili9341.c ****   {
 859              		.loc 1 337 0 discriminator 3
 860 0040 0134     		adds	r4, r4, #1
 861              	.LVL56:
 862              	.L66:
 337:application-library/ili9341-lcd/ili9341.c ****   {
 863              		.loc 1 337 0 is_stmt 0 discriminator 1
 864 0042 AC42     		cmp	r4, r5
 865 0044 F5DB     		blt	.L67
 866              	.LBE3:
 342:application-library/ili9341-lcd/ili9341.c ****   }
 343:application-library/ili9341-lcd/ili9341.c ****   LCD_CS_1();
 867              		.loc 1 343 0 is_stmt 1
 868 0046 FFF7FEFF 		bl	LCD_CS_1
 869              	.LVL57:
 870 004a 70BD     		pop	{r4, r5, r6, pc}
 871              		.cfi_endproc
 872              	.LFE147:
 874              		.section	.text.bus_8080_write_command,"ax",%progbits
 875              		.align	1
 876              		.global	bus_8080_write_command
 877              		.syntax unified
 878              		.thumb
 879              		.thumb_func
 880              		.fpu fpv4-sp-d16
 882              	bus_8080_write_command:
 883              	.LFB148:
 344:application-library/ili9341-lcd/ili9341.c **** }
 345:application-library/ili9341-lcd/ili9341.c **** 
ARM GAS  /tmp/ccEto00Y.s 			page 22


 346:application-library/ili9341-lcd/ili9341.c **** void bus_8080_write_command(uint8_t cmd)
 347:application-library/ili9341-lcd/ili9341.c **** {
 884              		.loc 1 347 0
 885              		.cfi_startproc
 886              		@ args = 0, pretend = 0, frame = 0
 887              		@ frame_needed = 0, uses_anonymous_args = 0
 888              	.LVL58:
 889 0000 10B5     		push	{r4, lr}
 890              	.LCFI22:
 891              		.cfi_def_cfa_offset 8
 892              		.cfi_offset 4, -8
 893              		.cfi_offset 14, -4
 894 0002 0446     		mov	r4, r0
 348:application-library/ili9341-lcd/ili9341.c ****   /* Chip Select */
 349:application-library/ili9341-lcd/ili9341.c ****   LCD_CS_0();
 895              		.loc 1 349 0
 896 0004 FFF7FEFF 		bl	LCD_CS_0
 897              	.LVL59:
 350:application-library/ili9341-lcd/ili9341.c ****   LCD_RS_0();  
 898              		.loc 1 350 0
 899 0008 FFF7FEFF 		bl	LCD_RS_0
 900              	.LVL60:
 351:application-library/ili9341-lcd/ili9341.c ****   LCD_RD_1();
 901              		.loc 1 351 0
 902 000c FFF7FEFF 		bl	LCD_RD_1
 903              	.LVL61:
 352:application-library/ili9341-lcd/ili9341.c **** 
 353:application-library/ili9341-lcd/ili9341.c ****   /* Write data to data bus D7-D0. */  
 354:application-library/ili9341-lcd/ili9341.c ****   gpio_configure_8080_datapins_output_mode();
 904              		.loc 1 354 0
 905 0010 FFF7FEFF 		bl	gpio_configure_8080_datapins_output_mode
 906              	.LVL62:
 355:application-library/ili9341-lcd/ili9341.c ****   bus_8080_write_parallel_datapins(cmd);
 907              		.loc 1 355 0
 908 0014 2046     		mov	r0, r4
 909 0016 FFF7FEFF 		bl	bus_8080_write_parallel_datapins
 910              	.LVL63:
 356:application-library/ili9341-lcd/ili9341.c ****   LCD_WR_RISING_EDGE();
 911              		.loc 1 356 0
 912 001a FFF7FEFF 		bl	LCD_WR_RISING_EDGE
 913              	.LVL64:
 357:application-library/ili9341-lcd/ili9341.c ****   /* De-select Chip. */
 358:application-library/ili9341-lcd/ili9341.c ****   LCD_CS_1();
 914              		.loc 1 358 0
 915 001e FFF7FEFF 		bl	LCD_CS_1
 916              	.LVL65:
 917 0022 10BD     		pop	{r4, pc}
 918              		.cfi_endproc
 919              	.LFE148:
 921              		.section	.text.bus_8080_write_data,"ax",%progbits
 922              		.align	1
 923              		.global	bus_8080_write_data
 924              		.syntax unified
 925              		.thumb
 926              		.thumb_func
 927              		.fpu fpv4-sp-d16
 929              	bus_8080_write_data:
ARM GAS  /tmp/ccEto00Y.s 			page 23


 930              	.LFB149:
 359:application-library/ili9341-lcd/ili9341.c **** }
 360:application-library/ili9341-lcd/ili9341.c **** 
 361:application-library/ili9341-lcd/ili9341.c **** void bus_8080_write_data(uint8_t data) 
 362:application-library/ili9341-lcd/ili9341.c **** {
 931              		.loc 1 362 0
 932              		.cfi_startproc
 933              		@ args = 0, pretend = 0, frame = 0
 934              		@ frame_needed = 0, uses_anonymous_args = 0
 935              	.LVL66:
 936 0000 10B5     		push	{r4, lr}
 937              	.LCFI23:
 938              		.cfi_def_cfa_offset 8
 939              		.cfi_offset 4, -8
 940              		.cfi_offset 14, -4
 941 0002 0446     		mov	r4, r0
 363:application-library/ili9341-lcd/ili9341.c ****   LCD_CS_0();
 942              		.loc 1 363 0
 943 0004 FFF7FEFF 		bl	LCD_CS_0
 944              	.LVL67:
 364:application-library/ili9341-lcd/ili9341.c ****   LCD_RS_1();  
 945              		.loc 1 364 0
 946 0008 FFF7FEFF 		bl	LCD_RS_1
 947              	.LVL68:
 365:application-library/ili9341-lcd/ili9341.c ****   LCD_RD_1();
 948              		.loc 1 365 0
 949 000c FFF7FEFF 		bl	LCD_RD_1
 950              	.LVL69:
 366:application-library/ili9341-lcd/ili9341.c **** 
 367:application-library/ili9341-lcd/ili9341.c ****   gpio_configure_8080_datapins_output_mode();
 951              		.loc 1 367 0
 952 0010 FFF7FEFF 		bl	gpio_configure_8080_datapins_output_mode
 953              	.LVL70:
 368:application-library/ili9341-lcd/ili9341.c ****   bus_8080_write_parallel_datapins(data);
 954              		.loc 1 368 0
 955 0014 2046     		mov	r0, r4
 956 0016 FFF7FEFF 		bl	bus_8080_write_parallel_datapins
 957              	.LVL71:
 369:application-library/ili9341-lcd/ili9341.c ****   LCD_WR_RISING_EDGE();
 958              		.loc 1 369 0
 959 001a FFF7FEFF 		bl	LCD_WR_RISING_EDGE
 960              	.LVL72:
 370:application-library/ili9341-lcd/ili9341.c ****   LCD_CS_1();
 961              		.loc 1 370 0
 962 001e FFF7FEFF 		bl	LCD_CS_1
 963              	.LVL73:
 964 0022 10BD     		pop	{r4, pc}
 965              		.cfi_endproc
 966              	.LFE149:
 968              		.section	.text.bus_8080_read_data,"ax",%progbits
 969              		.align	1
 970              		.global	bus_8080_read_data
 971              		.syntax unified
 972              		.thumb
 973              		.thumb_func
 974              		.fpu fpv4-sp-d16
 976              	bus_8080_read_data:
ARM GAS  /tmp/ccEto00Y.s 			page 24


 977              	.LFB150:
 371:application-library/ili9341-lcd/ili9341.c **** }
 372:application-library/ili9341-lcd/ili9341.c **** 
 373:application-library/ili9341-lcd/ili9341.c **** /**
 374:application-library/ili9341-lcd/ili9341.c ****   * @brief   8080 Bus Read Data.
 375:application-library/ili9341-lcd/ili9341.c ****   * @param   None.
 376:application-library/ili9341-lcd/ili9341.c ****   * @retval  None.
 377:application-library/ili9341-lcd/ili9341.c ****   */
 378:application-library/ili9341-lcd/ili9341.c **** void bus_8080_read_data(uint8_t* p_read_data, uint8_t length) 
 379:application-library/ili9341-lcd/ili9341.c **** {
 978              		.loc 1 379 0
 979              		.cfi_startproc
 980              		@ args = 0, pretend = 0, frame = 0
 981              		@ frame_needed = 0, uses_anonymous_args = 0
 982              	.LVL74:
 983 0000 70B5     		push	{r4, r5, r6, lr}
 984              	.LCFI24:
 985              		.cfi_def_cfa_offset 16
 986              		.cfi_offset 4, -16
 987              		.cfi_offset 5, -12
 988              		.cfi_offset 6, -8
 989              		.cfi_offset 14, -4
 990 0002 0646     		mov	r6, r0
 991 0004 0D46     		mov	r5, r1
 380:application-library/ili9341-lcd/ili9341.c ****   LCD_CS_0();
 992              		.loc 1 380 0
 993 0006 FFF7FEFF 		bl	LCD_CS_0
 994              	.LVL75:
 381:application-library/ili9341-lcd/ili9341.c ****   LCD_RS_1();  
 995              		.loc 1 381 0
 996 000a FFF7FEFF 		bl	LCD_RS_1
 997              	.LVL76:
 382:application-library/ili9341-lcd/ili9341.c ****   LCD_WR_1();
 998              		.loc 1 382 0
 999 000e FFF7FEFF 		bl	LCD_WR_1
 1000              	.LVL77:
 383:application-library/ili9341-lcd/ili9341.c **** 
 384:application-library/ili9341-lcd/ili9341.c ****   gpio_configure_8080_datapins_input_mode();
 1001              		.loc 1 384 0
 1002 0012 FFF7FEFF 		bl	gpio_configure_8080_datapins_input_mode
 1003              	.LVL78:
 1004              	.LBB4:
 385:application-library/ili9341-lcd/ili9341.c ****   for (int i = 0; i < length; ++i)
 1005              		.loc 1 385 0
 1006 0016 0024     		movs	r4, #0
 1007 0018 07E0     		b	.L74
 1008              	.LVL79:
 1009              	.L75:
 386:application-library/ili9341-lcd/ili9341.c ****   {
 387:application-library/ili9341-lcd/ili9341.c ****     LCD_RD_0();
 1010              		.loc 1 387 0 discriminator 3
 1011 001a FFF7FEFF 		bl	LCD_RD_0
 1012              	.LVL80:
 388:application-library/ili9341-lcd/ili9341.c ****     p_read_data[i] = bus_8080_read_parallel_datapins();
 1013              		.loc 1 388 0 discriminator 3
 1014 001e FFF7FEFF 		bl	bus_8080_read_parallel_datapins
 1015              	.LVL81:
ARM GAS  /tmp/ccEto00Y.s 			page 25


 1016 0022 3055     		strb	r0, [r6, r4]
 389:application-library/ili9341-lcd/ili9341.c ****     LCD_RD_1();
 1017              		.loc 1 389 0 discriminator 3
 1018 0024 FFF7FEFF 		bl	LCD_RD_1
 1019              	.LVL82:
 385:application-library/ili9341-lcd/ili9341.c ****   {
 1020              		.loc 1 385 0 discriminator 3
 1021 0028 0134     		adds	r4, r4, #1
 1022              	.LVL83:
 1023              	.L74:
 385:application-library/ili9341-lcd/ili9341.c ****   {
 1024              		.loc 1 385 0 is_stmt 0 discriminator 1
 1025 002a AC42     		cmp	r4, r5
 1026 002c F5DB     		blt	.L75
 1027              	.LBE4:
 390:application-library/ili9341-lcd/ili9341.c ****   }
 391:application-library/ili9341-lcd/ili9341.c ****   LCD_CS_1();
 1028              		.loc 1 391 0 is_stmt 1
 1029 002e FFF7FEFF 		bl	LCD_CS_1
 1030              	.LVL84:
 1031 0032 70BD     		pop	{r4, r5, r6, pc}
 1032              		.cfi_endproc
 1033              	.LFE150:
 1035              		.section	.text.ili9341_hard_reset,"ax",%progbits
 1036              		.align	1
 1037              		.global	ili9341_hard_reset
 1038              		.syntax unified
 1039              		.thumb
 1040              		.thumb_func
 1041              		.fpu fpv4-sp-d16
 1043              	ili9341_hard_reset:
 1044              	.LFB151:
 392:application-library/ili9341-lcd/ili9341.c **** }
 393:application-library/ili9341-lcd/ili9341.c **** 
 394:application-library/ili9341-lcd/ili9341.c **** /**
 395:application-library/ili9341-lcd/ili9341.c ****   * @brief  Reset ili9341 through RESET pin.
 396:application-library/ili9341-lcd/ili9341.c ****   * @param  None.
 397:application-library/ili9341-lcd/ili9341.c ****   * @retval None.
 398:application-library/ili9341-lcd/ili9341.c ****   * @note   RST pin is active low. ili9341 is reset state at low level.
 399:application-library/ili9341-lcd/ili9341.c ****   */
 400:application-library/ili9341-lcd/ili9341.c **** void ili9341_hard_reset() 
 401:application-library/ili9341-lcd/ili9341.c **** {
 1045              		.loc 1 401 0
 1046              		.cfi_startproc
 1047              		@ args = 0, pretend = 0, frame = 0
 1048              		@ frame_needed = 0, uses_anonymous_args = 0
 1049 0000 08B5     		push	{r3, lr}
 1050              	.LCFI25:
 1051              		.cfi_def_cfa_offset 8
 1052              		.cfi_offset 3, -8
 1053              		.cfi_offset 14, -4
 402:application-library/ili9341-lcd/ili9341.c ****   LCD_RST_1();
 1054              		.loc 1 402 0
 1055 0002 FFF7FEFF 		bl	LCD_RST_1
 1056              	.LVL85:
 403:application-library/ili9341-lcd/ili9341.c ****   HAL_Delay(1);
 1057              		.loc 1 403 0
ARM GAS  /tmp/ccEto00Y.s 			page 26


 1058 0006 0120     		movs	r0, #1
 1059 0008 FFF7FEFF 		bl	HAL_Delay
 1060              	.LVL86:
 404:application-library/ili9341-lcd/ili9341.c ****   LCD_RST_0();
 1061              		.loc 1 404 0
 1062 000c FFF7FEFF 		bl	LCD_RST_0
 1063              	.LVL87:
 405:application-library/ili9341-lcd/ili9341.c ****   HAL_Delay(1);
 1064              		.loc 1 405 0
 1065 0010 0120     		movs	r0, #1
 1066 0012 FFF7FEFF 		bl	HAL_Delay
 1067              	.LVL88:
 406:application-library/ili9341-lcd/ili9341.c ****   LCD_RST_1();
 1068              		.loc 1 406 0
 1069 0016 FFF7FEFF 		bl	LCD_RST_1
 1070              	.LVL89:
 407:application-library/ili9341-lcd/ili9341.c ****   HAL_Delay(1);
 1071              		.loc 1 407 0
 1072 001a 0120     		movs	r0, #1
 1073 001c FFF7FEFF 		bl	HAL_Delay
 1074              	.LVL90:
 1075 0020 08BD     		pop	{r3, pc}
 1076              		.cfi_endproc
 1077              	.LFE151:
 1079              		.section	.text.ili9341_nop,"ax",%progbits
 1080              		.align	1
 1081              		.global	ili9341_nop
 1082              		.syntax unified
 1083              		.thumb
 1084              		.thumb_func
 1085              		.fpu fpv4-sp-d16
 1087              	ili9341_nop:
 1088              	.LFB152:
 408:application-library/ili9341-lcd/ili9341.c **** }
 409:application-library/ili9341-lcd/ili9341.c **** 
 410:application-library/ili9341-lcd/ili9341.c **** 
 411:application-library/ili9341-lcd/ili9341.c **** /* ILI9341 Regulative Registers Access ------------------------------------------------------------
 412:application-library/ili9341-lcd/ili9341.c **** 
 413:application-library/ili9341-lcd/ili9341.c **** /**
 414:application-library/ili9341-lcd/ili9341.c ****   * @brief 8.2.1. NOP (00h) 
 415:application-library/ili9341-lcd/ili9341.c ****   * @param  None.
 416:application-library/ili9341-lcd/ili9341.c ****   * @retval None.
 417:application-library/ili9341-lcd/ili9341.c ****   */
 418:application-library/ili9341-lcd/ili9341.c **** void ili9341_nop()
 419:application-library/ili9341-lcd/ili9341.c **** {
 1089              		.loc 1 419 0
 1090              		.cfi_startproc
 1091              		@ args = 0, pretend = 0, frame = 0
 1092              		@ frame_needed = 0, uses_anonymous_args = 0
 1093 0000 08B5     		push	{r3, lr}
 1094              	.LCFI26:
 1095              		.cfi_def_cfa_offset 8
 1096              		.cfi_offset 3, -8
 1097              		.cfi_offset 14, -4
 420:application-library/ili9341-lcd/ili9341.c ****   bus_8080_write_register(0x00, 0, NULL);
 1098              		.loc 1 420 0
 1099 0002 0022     		movs	r2, #0
ARM GAS  /tmp/ccEto00Y.s 			page 27


 1100 0004 1146     		mov	r1, r2
 1101 0006 1046     		mov	r0, r2
 1102 0008 FFF7FEFF 		bl	bus_8080_write_register
 1103              	.LVL91:
 1104 000c 08BD     		pop	{r3, pc}
 1105              		.cfi_endproc
 1106              	.LFE152:
 1108              		.section	.text.ili9341_soft_reset,"ax",%progbits
 1109              		.align	1
 1110              		.global	ili9341_soft_reset
 1111              		.syntax unified
 1112              		.thumb
 1113              		.thumb_func
 1114              		.fpu fpv4-sp-d16
 1116              	ili9341_soft_reset:
 1117              	.LFB153:
 421:application-library/ili9341-lcd/ili9341.c **** }
 422:application-library/ili9341-lcd/ili9341.c **** 
 423:application-library/ili9341-lcd/ili9341.c **** /**
 424:application-library/ili9341-lcd/ili9341.c ****   * @brief  8.2.2. Software Reset (01h) 
 425:application-library/ili9341-lcd/ili9341.c ****   * @param  None.
 426:application-library/ili9341-lcd/ili9341.c ****   * @retval None.
 427:application-library/ili9341-lcd/ili9341.c ****   */
 428:application-library/ili9341-lcd/ili9341.c **** void ili9341_soft_reset()
 429:application-library/ili9341-lcd/ili9341.c **** {
 1118              		.loc 1 429 0
 1119              		.cfi_startproc
 1120              		@ args = 0, pretend = 0, frame = 0
 1121              		@ frame_needed = 0, uses_anonymous_args = 0
 1122 0000 08B5     		push	{r3, lr}
 1123              	.LCFI27:
 1124              		.cfi_def_cfa_offset 8
 1125              		.cfi_offset 3, -8
 1126              		.cfi_offset 14, -4
 430:application-library/ili9341-lcd/ili9341.c ****   bus_8080_write_register(0x01, 0, NULL);
 1127              		.loc 1 430 0
 1128 0002 0022     		movs	r2, #0
 1129 0004 1146     		mov	r1, r2
 1130 0006 0120     		movs	r0, #1
 1131 0008 FFF7FEFF 		bl	bus_8080_write_register
 1132              	.LVL92:
 1133 000c 08BD     		pop	{r3, pc}
 1134              		.cfi_endproc
 1135              	.LFE153:
 1137              		.section	.text.ili9341_get_display_identification,"ax",%progbits
 1138              		.align	1
 1139              		.global	ili9341_get_display_identification
 1140              		.syntax unified
 1141              		.thumb
 1142              		.thumb_func
 1143              		.fpu fpv4-sp-d16
 1145              	ili9341_get_display_identification:
 1146              	.LFB154:
 431:application-library/ili9341-lcd/ili9341.c **** }
 432:application-library/ili9341-lcd/ili9341.c **** 
 433:application-library/ili9341-lcd/ili9341.c **** 
 434:application-library/ili9341-lcd/ili9341.c **** /** 
ARM GAS  /tmp/ccEto00Y.s 			page 28


 435:application-library/ili9341-lcd/ili9341.c ****   * @brief  TODO 8.2.3. Read display identification information (04h) 
 436:application-library/ili9341-lcd/ili9341.c ****   * @param  p_read_data Pointer to display identification data.
 437:application-library/ili9341-lcd/ili9341.c ****   * @retval None.
 438:application-library/ili9341-lcd/ili9341.c ****   */
 439:application-library/ili9341-lcd/ili9341.c **** void ili9341_get_display_identification(uint8_t* p_read_data)
 440:application-library/ili9341-lcd/ili9341.c **** {
 1147              		.loc 1 440 0
 1148              		.cfi_startproc
 1149              		@ args = 0, pretend = 0, frame = 0
 1150              		@ frame_needed = 0, uses_anonymous_args = 0
 1151              		@ link register save eliminated.
 1152              	.LVL93:
 1153 0000 7047     		bx	lr
 1154              		.cfi_endproc
 1155              	.LFE154:
 1157              		.section	.text.ili9341_get_display_status,"ax",%progbits
 1158              		.align	1
 1159              		.global	ili9341_get_display_status
 1160              		.syntax unified
 1161              		.thumb
 1162              		.thumb_func
 1163              		.fpu fpv4-sp-d16
 1165              	ili9341_get_display_status:
 1166              	.LFB155:
 441:application-library/ili9341-lcd/ili9341.c **** 
 442:application-library/ili9341-lcd/ili9341.c **** }
 443:application-library/ili9341-lcd/ili9341.c **** 
 444:application-library/ili9341-lcd/ili9341.c **** /** 
 445:application-library/ili9341-lcd/ili9341.c ****   * @brief  TODO 8.2.4. Read Display Status (09h) 
 446:application-library/ili9341-lcd/ili9341.c ****   * @param  p_read_data Pointer to display status data.
 447:application-library/ili9341-lcd/ili9341.c ****   * @retval None.
 448:application-library/ili9341-lcd/ili9341.c ****   */
 449:application-library/ili9341-lcd/ili9341.c **** void ili9341_get_display_status(uint8_t* p_read_data)
 450:application-library/ili9341-lcd/ili9341.c **** {
 1167              		.loc 1 450 0
 1168              		.cfi_startproc
 1169              		@ args = 0, pretend = 0, frame = 0
 1170              		@ frame_needed = 0, uses_anonymous_args = 0
 1171              		@ link register save eliminated.
 1172              	.LVL94:
 1173 0000 7047     		bx	lr
 1174              		.cfi_endproc
 1175              	.LFE155:
 1177              		.section	.text.ili9341_get_display_power_mode,"ax",%progbits
 1178              		.align	1
 1179              		.global	ili9341_get_display_power_mode
 1180              		.syntax unified
 1181              		.thumb
 1182              		.thumb_func
 1183              		.fpu fpv4-sp-d16
 1185              	ili9341_get_display_power_mode:
 1186              	.LFB156:
 451:application-library/ili9341-lcd/ili9341.c **** 
 452:application-library/ili9341-lcd/ili9341.c **** }
 453:application-library/ili9341-lcd/ili9341.c **** 
 454:application-library/ili9341-lcd/ili9341.c **** /** 
 455:application-library/ili9341-lcd/ili9341.c ****   * @brief  TODO 8.2.5. Read Display Power Mode (0Ah) 
ARM GAS  /tmp/ccEto00Y.s 			page 29


 456:application-library/ili9341-lcd/ili9341.c ****   * @param  p_read_data Pointer to display power mode.
 457:application-library/ili9341-lcd/ili9341.c ****   * @retval None.
 458:application-library/ili9341-lcd/ili9341.c ****   */
 459:application-library/ili9341-lcd/ili9341.c **** void ili9341_get_display_power_mode(uint8_t* p_read_data)
 460:application-library/ili9341-lcd/ili9341.c **** {
 1187              		.loc 1 460 0
 1188              		.cfi_startproc
 1189              		@ args = 0, pretend = 0, frame = 0
 1190              		@ frame_needed = 0, uses_anonymous_args = 0
 1191              		@ link register save eliminated.
 1192              	.LVL95:
 1193 0000 7047     		bx	lr
 1194              		.cfi_endproc
 1195              	.LFE156:
 1197              		.section	.text.ili9341_get_display_MADCTL,"ax",%progbits
 1198              		.align	1
 1199              		.global	ili9341_get_display_MADCTL
 1200              		.syntax unified
 1201              		.thumb
 1202              		.thumb_func
 1203              		.fpu fpv4-sp-d16
 1205              	ili9341_get_display_MADCTL:
 1206              	.LFB157:
 461:application-library/ili9341-lcd/ili9341.c **** 
 462:application-library/ili9341-lcd/ili9341.c **** }
 463:application-library/ili9341-lcd/ili9341.c **** 
 464:application-library/ili9341-lcd/ili9341.c **** 
 465:application-library/ili9341-lcd/ili9341.c **** /** 
 466:application-library/ili9341-lcd/ili9341.c ****   * @brief  TODO 8.2.6. Read Display MADCTL (0Bh) 
 467:application-library/ili9341-lcd/ili9341.c ****   * @param  p_read_data Pointer to display MADCTL
 468:application-library/ili9341-lcd/ili9341.c ****   * @retval None.
 469:application-library/ili9341-lcd/ili9341.c ****   */
 470:application-library/ili9341-lcd/ili9341.c **** void ili9341_get_display_MADCTL(uint8_t* p_read_data)
 471:application-library/ili9341-lcd/ili9341.c **** {
 1207              		.loc 1 471 0
 1208              		.cfi_startproc
 1209              		@ args = 0, pretend = 0, frame = 0
 1210              		@ frame_needed = 0, uses_anonymous_args = 0
 1211              		@ link register save eliminated.
 1212              	.LVL96:
 1213 0000 7047     		bx	lr
 1214              		.cfi_endproc
 1215              	.LFE157:
 1217              		.section	.text.ili9341_get_display_pixel_format,"ax",%progbits
 1218              		.align	1
 1219              		.global	ili9341_get_display_pixel_format
 1220              		.syntax unified
 1221              		.thumb
 1222              		.thumb_func
 1223              		.fpu fpv4-sp-d16
 1225              	ili9341_get_display_pixel_format:
 1226              	.LFB158:
 472:application-library/ili9341-lcd/ili9341.c **** 
 473:application-library/ili9341-lcd/ili9341.c **** }
 474:application-library/ili9341-lcd/ili9341.c **** 
 475:application-library/ili9341-lcd/ili9341.c **** /**
 476:application-library/ili9341-lcd/ili9341.c ****   * @brief       8.2.7. Read Display Pixel Format (0Ch) 
ARM GAS  /tmp/ccEto00Y.s 			page 30


 477:application-library/ili9341-lcd/ili9341.c ****   * @param[OUT]  p_read_data Pointer to pixel format data read.
 478:application-library/ili9341-lcd/ili9341.c ****   * @retval      None.
 479:application-library/ili9341-lcd/ili9341.c ****   * @note        DBI[2:0]       #Bits/pixel      RGB Format 
 480:application-library/ili9341-lcd/ili9341.c ****   *              101            16 bits          RGB5-6-5 65K)    
 481:application-library/ili9341-lcd/ili9341.c ****   *              110            18 bits          RGB6-6-6 262K) 
 482:application-library/ili9341-lcd/ili9341.c ****   */
 483:application-library/ili9341-lcd/ili9341.c **** void ili9341_get_display_pixel_format(uint8_t* p_read_data)
 484:application-library/ili9341-lcd/ili9341.c **** {
 1227              		.loc 1 484 0
 1228              		.cfi_startproc
 1229              		@ args = 0, pretend = 0, frame = 64
 1230              		@ frame_needed = 0, uses_anonymous_args = 0
 1231              	.LVL97:
 1232              		.loc 1 484 0
 1233 0000 70B5     		push	{r4, r5, r6, lr}
 1234              	.LCFI28:
 1235              		.cfi_def_cfa_offset 16
 1236              		.cfi_offset 4, -16
 1237              		.cfi_offset 5, -12
 1238              		.cfi_offset 6, -8
 1239              		.cfi_offset 14, -4
 1240 0002 92B0     		sub	sp, sp, #72
 1241              	.LCFI29:
 1242              		.cfi_def_cfa_offset 88
 1243 0004 0646     		mov	r6, r0
 485:application-library/ili9341-lcd/ili9341.c ****   bus_8080_read_register(0x0C, 2, p_read_data);
 1244              		.loc 1 485 0
 1245 0006 0246     		mov	r2, r0
 1246 0008 0221     		movs	r1, #2
 1247 000a 0C20     		movs	r0, #12
 1248              	.LVL98:
 1249 000c FFF7FEFF 		bl	bus_8080_read_register
 1250              	.LVL99:
 486:application-library/ili9341-lcd/ili9341.c ****  
 487:application-library/ili9341-lcd/ili9341.c ****   #if defined ILI9341_DEBUG
 488:application-library/ili9341-lcd/ili9341.c ****   char msg[64];
 489:application-library/ili9341-lcd/ili9341.c ****   sprintf(msg, "- Printing <Display Pixel Format> register value -\n");
 1251              		.loc 1 489 0
 1252 0010 02AC     		add	r4, sp, #8
 1253 0012 0E4D     		ldr	r5, .L89
 1254 0014 0FCD     		ldmia	r5!, {r0, r1, r2, r3}
 1255 0016 0FC4     		stmia	r4!, {r0, r1, r2, r3}
 1256 0018 0FCD     		ldmia	r5!, {r0, r1, r2, r3}
 1257 001a 0FC4     		stmia	r4!, {r0, r1, r2, r3}
 1258 001c 0FCD     		ldmia	r5!, {r0, r1, r2, r3}
 1259 001e 0FC4     		stmia	r4!, {r0, r1, r2, r3}
 1260 0020 2B68     		ldr	r3, [r5]
 1261 0022 2360     		str	r3, [r4]
 490:application-library/ili9341-lcd/ili9341.c ****   serial_print(msg);
 1262              		.loc 1 490 0
 1263 0024 02A8     		add	r0, sp, #8
 1264 0026 FFF7FEFF 		bl	serial_print
 1265              	.LVL100:
 491:application-library/ili9341-lcd/ili9341.c ****   sprintf(msg, "Display pixel format: RIM:%d DPI: %d DBI: %d \n", p_read_data[1] & 0x80, p_read_dat
 1266              		.loc 1 491 0
 1267 002a 7278     		ldrb	r2, [r6, #1]	@ zero_extendqisi2
 1268 002c 02F00703 		and	r3, r2, #7
ARM GAS  /tmp/ccEto00Y.s 			page 31


 1269 0030 0093     		str	r3, [sp]
 1270 0032 02F07003 		and	r3, r2, #112
 1271 0036 02F08002 		and	r2, r2, #128
 1272 003a 0549     		ldr	r1, .L89+4
 1273 003c 02A8     		add	r0, sp, #8
 1274 003e FFF7FEFF 		bl	sprintf
 1275              	.LVL101:
 492:application-library/ili9341-lcd/ili9341.c ****   serial_print(msg);
 1276              		.loc 1 492 0
 1277 0042 02A8     		add	r0, sp, #8
 1278 0044 FFF7FEFF 		bl	serial_print
 1279              	.LVL102:
 493:application-library/ili9341-lcd/ili9341.c ****   #endif
 494:application-library/ili9341-lcd/ili9341.c **** }
 1280              		.loc 1 494 0
 1281 0048 12B0     		add	sp, sp, #72
 1282              	.LCFI30:
 1283              		.cfi_def_cfa_offset 16
 1284              		@ sp needed
 1285 004a 70BD     		pop	{r4, r5, r6, pc}
 1286              	.LVL103:
 1287              	.L90:
 1288              		.align	2
 1289              	.L89:
 1290 004c 00000000 		.word	.LC6
 1291 0050 34000000 		.word	.LC7
 1292              		.cfi_endproc
 1293              	.LFE158:
 1295              		.section	.text.ili9341_get_display_image_format,"ax",%progbits
 1296              		.align	1
 1297              		.global	ili9341_get_display_image_format
 1298              		.syntax unified
 1299              		.thumb
 1300              		.thumb_func
 1301              		.fpu fpv4-sp-d16
 1303              	ili9341_get_display_image_format:
 1304              	.LFB159:
 495:application-library/ili9341-lcd/ili9341.c **** 
 496:application-library/ili9341-lcd/ili9341.c **** 
 497:application-library/ili9341-lcd/ili9341.c **** /** 
 498:application-library/ili9341-lcd/ili9341.c ****   * @brief  TODO 8.2.8. Read Display Image Format (0Dh)
 499:application-library/ili9341-lcd/ili9341.c ****   * @param  p_read_data Pointer to display format.
 500:application-library/ili9341-lcd/ili9341.c ****   * @retval None.
 501:application-library/ili9341-lcd/ili9341.c ****   */
 502:application-library/ili9341-lcd/ili9341.c **** void ili9341_get_display_image_format(uint8_t* p_read_data)
 503:application-library/ili9341-lcd/ili9341.c **** {
 1305              		.loc 1 503 0
 1306              		.cfi_startproc
 1307              		@ args = 0, pretend = 0, frame = 0
 1308              		@ frame_needed = 0, uses_anonymous_args = 0
 1309              		@ link register save eliminated.
 1310              	.LVL104:
 1311 0000 7047     		bx	lr
 1312              		.cfi_endproc
 1313              	.LFE159:
 1315              		.section	.text.ili9341_get_display_signal_mode,"ax",%progbits
 1316              		.align	1
ARM GAS  /tmp/ccEto00Y.s 			page 32


 1317              		.global	ili9341_get_display_signal_mode
 1318              		.syntax unified
 1319              		.thumb
 1320              		.thumb_func
 1321              		.fpu fpv4-sp-d16
 1323              	ili9341_get_display_signal_mode:
 1324              	.LFB160:
 504:application-library/ili9341-lcd/ili9341.c **** 
 505:application-library/ili9341-lcd/ili9341.c **** }
 506:application-library/ili9341-lcd/ili9341.c **** 
 507:application-library/ili9341-lcd/ili9341.c **** /**
 508:application-library/ili9341-lcd/ili9341.c ****   * @brief  8.2.9. Read Display Signal Mode (0Eh) 
 509:application-library/ili9341-lcd/ili9341.c ****   * @param  p_read_data Pointer to data read from RDDSM (Read Display Signal Mode).
 510:application-library/ili9341-lcd/ili9341.c ****   * @retval None. 
 511:application-library/ili9341-lcd/ili9341.c ****   * @note   Bit               Description                   
 512:application-library/ili9341-lcd/ili9341.c ****   *         7                 0 Tearing effect line OFF
 513:application-library/ili9341-lcd/ili9341.c ****   *                           1 Tearing effect line ON
 514:application-library/ili9341-lcd/ili9341.c ****   *         6                 0 Tearing effect line mode 1
 515:application-library/ili9341-lcd/ili9341.c ****   *                           1 Tearing effect line mode 2
 516:application-library/ili9341-lcd/ili9341.c ****   *         5                 0 Horizontal sync. (RGB interface) OFF
 517:application-library/ili9341-lcd/ili9341.c ****   *                           1 Horizontal sync. (RGB interface) ON
 518:application-library/ili9341-lcd/ili9341.c ****   *         4                 0 Vertical sync. (RGB interface) OFF
 519:application-library/ili9341-lcd/ili9341.c ****   *                           1 Vertical sync. (RGB interface) ON
 520:application-library/ili9341-lcd/ili9341.c ****   *         3                 0 Pixel clock (DOTCLK, RGB interface) OFF
 521:application-library/ili9341-lcd/ili9341.c ****   *                           1 Pixel clock (DOTCLK, RGB interface) ON
 522:application-library/ili9341-lcd/ili9341.c ****   *         2                 0 Data enable (DE, RGB interface) OFF  
 523:application-library/ili9341-lcd/ili9341.c ****   *                           1 Data enable (DE, RGB interface) ON
 524:application-library/ili9341-lcd/ili9341.c ****   *         1                 Don't Care
 525:application-library/ili9341-lcd/ili9341.c ****   *         0                 Don't Care
 526:application-library/ili9341-lcd/ili9341.c ****   */
 527:application-library/ili9341-lcd/ili9341.c **** void ili9341_get_display_signal_mode(uint8_t* p_read_data)
 528:application-library/ili9341-lcd/ili9341.c **** {
 1325              		.loc 1 528 0
 1326              		.cfi_startproc
 1327              		@ args = 0, pretend = 0, frame = 64
 1328              		@ frame_needed = 0, uses_anonymous_args = 0
 1329              	.LVL105:
 1330              		.loc 1 528 0
 1331 0000 70B5     		push	{r4, r5, r6, lr}
 1332              	.LCFI31:
 1333              		.cfi_def_cfa_offset 16
 1334              		.cfi_offset 4, -16
 1335              		.cfi_offset 5, -12
 1336              		.cfi_offset 6, -8
 1337              		.cfi_offset 14, -4
 1338 0002 90B0     		sub	sp, sp, #64
 1339              	.LCFI32:
 1340              		.cfi_def_cfa_offset 80
 1341 0004 0646     		mov	r6, r0
 529:application-library/ili9341-lcd/ili9341.c ****   bus_8080_read_register(0x0E, 2, p_read_data);
 1342              		.loc 1 529 0
 1343 0006 0246     		mov	r2, r0
 1344 0008 0221     		movs	r1, #2
 1345 000a 0E20     		movs	r0, #14
 1346              	.LVL106:
 1347 000c FFF7FEFF 		bl	bus_8080_read_register
 1348              	.LVL107:
ARM GAS  /tmp/ccEto00Y.s 			page 33


 530:application-library/ili9341-lcd/ili9341.c ****  
 531:application-library/ili9341-lcd/ili9341.c ****   #if defined ILI9341_DEBUG
 532:application-library/ili9341-lcd/ili9341.c **** 
 533:application-library/ili9341-lcd/ili9341.c ****   char msg[64];
 534:application-library/ili9341-lcd/ili9341.c ****   sprintf(msg, "- Printing <RDDSM (Read Display Signal Mode)> register value -\n"); serial_print(ms
 1349              		.loc 1 534 0
 1350 0010 6C46     		mov	r4, sp
 1351 0012 264D     		ldr	r5, .L94
 1352 0014 0FCD     		ldmia	r5!, {r0, r1, r2, r3}
 1353 0016 0FC4     		stmia	r4!, {r0, r1, r2, r3}
 1354 0018 0FCD     		ldmia	r5!, {r0, r1, r2, r3}
 1355 001a 0FC4     		stmia	r4!, {r0, r1, r2, r3}
 1356 001c 0FCD     		ldmia	r5!, {r0, r1, r2, r3}
 1357 001e 0FC4     		stmia	r4!, {r0, r1, r2, r3}
 1358 0020 95E80F00 		ldm	r5, {r0, r1, r2, r3}
 1359 0024 84E80F00 		stm	r4, {r0, r1, r2, r3}
 1360 0028 6846     		mov	r0, sp
 1361 002a FFF7FEFF 		bl	serial_print
 1362              	.LVL108:
 535:application-library/ili9341-lcd/ili9341.c ****   sprintf(msg, "Tearing effect line: %d\n", (p_read_data[1] & 0x80) ? 1 : 0); 
 1363              		.loc 1 535 0
 1364 002e 96F90120 		ldrsb	r2, [r6, #1]
 1365 0032 D20F     		lsrs	r2, r2, #31
 1366 0034 1E49     		ldr	r1, .L94+4
 1367 0036 6846     		mov	r0, sp
 1368 0038 FFF7FEFF 		bl	sprintf
 1369              	.LVL109:
 536:application-library/ili9341-lcd/ili9341.c ****   serial_print(msg);
 1370              		.loc 1 536 0
 1371 003c 6846     		mov	r0, sp
 1372 003e FFF7FEFF 		bl	serial_print
 1373              	.LVL110:
 537:application-library/ili9341-lcd/ili9341.c ****   sprintf(msg, "Tearing effect line mode: %d\n", (p_read_data[1] & 0x40) ? 1 : 0); 
 1374              		.loc 1 537 0
 1375 0042 7278     		ldrb	r2, [r6, #1]	@ zero_extendqisi2
 1376 0044 C2F38012 		ubfx	r2, r2, #6, #1
 1377 0048 1A49     		ldr	r1, .L94+8
 1378 004a 6846     		mov	r0, sp
 1379 004c FFF7FEFF 		bl	sprintf
 1380              	.LVL111:
 538:application-library/ili9341-lcd/ili9341.c ****   serial_print(msg);
 1381              		.loc 1 538 0
 1382 0050 6846     		mov	r0, sp
 1383 0052 FFF7FEFF 		bl	serial_print
 1384              	.LVL112:
 539:application-library/ili9341-lcd/ili9341.c ****   sprintf(msg, "Horizontal sync: %d\n", (p_read_data[1] & 0x20) ? 1 : 0); 
 1385              		.loc 1 539 0
 1386 0056 7278     		ldrb	r2, [r6, #1]	@ zero_extendqisi2
 1387 0058 C2F34012 		ubfx	r2, r2, #5, #1
 1388 005c 1649     		ldr	r1, .L94+12
 1389 005e 6846     		mov	r0, sp
 1390 0060 FFF7FEFF 		bl	sprintf
 1391              	.LVL113:
 540:application-library/ili9341-lcd/ili9341.c ****   serial_print(msg);
 1392              		.loc 1 540 0
 1393 0064 6846     		mov	r0, sp
 1394 0066 FFF7FEFF 		bl	serial_print
ARM GAS  /tmp/ccEto00Y.s 			page 34


 1395              	.LVL114:
 541:application-library/ili9341-lcd/ili9341.c ****   sprintf(msg, "Vertical sync: %d\n", (p_read_data[1] & 0x10) ? 1 : 0); 
 1396              		.loc 1 541 0
 1397 006a 7278     		ldrb	r2, [r6, #1]	@ zero_extendqisi2
 1398 006c C2F30012 		ubfx	r2, r2, #4, #1
 1399 0070 1249     		ldr	r1, .L94+16
 1400 0072 6846     		mov	r0, sp
 1401 0074 FFF7FEFF 		bl	sprintf
 1402              	.LVL115:
 542:application-library/ili9341-lcd/ili9341.c ****   serial_print(msg);
 1403              		.loc 1 542 0
 1404 0078 6846     		mov	r0, sp
 1405 007a FFF7FEFF 		bl	serial_print
 1406              	.LVL116:
 543:application-library/ili9341-lcd/ili9341.c ****   sprintf(msg, "Pixel clock: %d\n", (p_read_data[1] & 0x08) ? 1 : 0); 
 1407              		.loc 1 543 0
 1408 007e 7278     		ldrb	r2, [r6, #1]	@ zero_extendqisi2
 1409 0080 C2F3C002 		ubfx	r2, r2, #3, #1
 1410 0084 0E49     		ldr	r1, .L94+20
 1411 0086 6846     		mov	r0, sp
 1412 0088 FFF7FEFF 		bl	sprintf
 1413              	.LVL117:
 544:application-library/ili9341-lcd/ili9341.c ****   serial_print(msg);
 1414              		.loc 1 544 0
 1415 008c 6846     		mov	r0, sp
 1416 008e FFF7FEFF 		bl	serial_print
 1417              	.LVL118:
 545:application-library/ili9341-lcd/ili9341.c ****   sprintf(msg, "Data enable: %d\n", (p_read_data[1] & 0x04) ? 1 : 0); 
 1418              		.loc 1 545 0
 1419 0092 7278     		ldrb	r2, [r6, #1]	@ zero_extendqisi2
 1420 0094 C2F38002 		ubfx	r2, r2, #2, #1
 1421 0098 0A49     		ldr	r1, .L94+24
 1422 009a 6846     		mov	r0, sp
 1423 009c FFF7FEFF 		bl	sprintf
 1424              	.LVL119:
 546:application-library/ili9341-lcd/ili9341.c ****   serial_print(msg);
 1425              		.loc 1 546 0
 1426 00a0 6846     		mov	r0, sp
 1427 00a2 FFF7FEFF 		bl	serial_print
 1428              	.LVL120:
 547:application-library/ili9341-lcd/ili9341.c ****   #endif
 548:application-library/ili9341-lcd/ili9341.c **** }
 1429              		.loc 1 548 0
 1430 00a6 10B0     		add	sp, sp, #64
 1431              	.LCFI33:
 1432              		.cfi_def_cfa_offset 16
 1433              		@ sp needed
 1434 00a8 70BD     		pop	{r4, r5, r6, pc}
 1435              	.LVL121:
 1436              	.L95:
 1437 00aa 00BF     		.align	2
 1438              	.L94:
 1439 00ac 90000000 		.word	.LC8
 1440 00b0 00000000 		.word	.LC9
 1441 00b4 1C000000 		.word	.LC10
 1442 00b8 3C000000 		.word	.LC11
 1443 00bc 54000000 		.word	.LC12
ARM GAS  /tmp/ccEto00Y.s 			page 35


 1444 00c0 68000000 		.word	.LC13
 1445 00c4 7C000000 		.word	.LC14
 1446              		.cfi_endproc
 1447              	.LFE160:
 1449              		.section	.text.ili9341_get_display_diagnostic_result,"ax",%progbits
 1450              		.align	1
 1451              		.global	ili9341_get_display_diagnostic_result
 1452              		.syntax unified
 1453              		.thumb
 1454              		.thumb_func
 1455              		.fpu fpv4-sp-d16
 1457              	ili9341_get_display_diagnostic_result:
 1458              	.LFB161:
 549:application-library/ili9341-lcd/ili9341.c **** 
 550:application-library/ili9341-lcd/ili9341.c **** 
 551:application-library/ili9341-lcd/ili9341.c **** 
 552:application-library/ili9341-lcd/ili9341.c **** /** 
 553:application-library/ili9341-lcd/ili9341.c ****   * @brief  TODO 8.2.10. Read Display Self-Diagnostic Result (0Fh) 
 554:application-library/ili9341-lcd/ili9341.c ****   * @param  p_read_data Pointer to display self-diagnostic result.
 555:application-library/ili9341-lcd/ili9341.c ****   * @retval None.
 556:application-library/ili9341-lcd/ili9341.c ****   */
 557:application-library/ili9341-lcd/ili9341.c **** void ili9341_get_display_diagnostic_result(uint8_t* p_read_data)
 558:application-library/ili9341-lcd/ili9341.c **** {
 1459              		.loc 1 558 0
 1460              		.cfi_startproc
 1461              		@ args = 0, pretend = 0, frame = 0
 1462              		@ frame_needed = 0, uses_anonymous_args = 0
 1463              		@ link register save eliminated.
 1464              	.LVL122:
 1465 0000 7047     		bx	lr
 1466              		.cfi_endproc
 1467              	.LFE161:
 1469              		.section	.text.ili9341_enter_sleep_mode,"ax",%progbits
 1470              		.align	1
 1471              		.global	ili9341_enter_sleep_mode
 1472              		.syntax unified
 1473              		.thumb
 1474              		.thumb_func
 1475              		.fpu fpv4-sp-d16
 1477              	ili9341_enter_sleep_mode:
 1478              	.LFB162:
 559:application-library/ili9341-lcd/ili9341.c **** 
 560:application-library/ili9341-lcd/ili9341.c **** }
 561:application-library/ili9341-lcd/ili9341.c **** 
 562:application-library/ili9341-lcd/ili9341.c **** /** 
 563:application-library/ili9341-lcd/ili9341.c ****   * @brief  8.2.11. Enter Sleep Mode (10h) 
 564:application-library/ili9341-lcd/ili9341.c ****   * @param  None.
 565:application-library/ili9341-lcd/ili9341.c ****   * @retval None.
 566:application-library/ili9341-lcd/ili9341.c ****   */
 567:application-library/ili9341-lcd/ili9341.c **** void ili9341_enter_sleep_mode() 
 568:application-library/ili9341-lcd/ili9341.c **** {
 1479              		.loc 1 568 0
 1480              		.cfi_startproc
 1481              		@ args = 0, pretend = 0, frame = 0
 1482              		@ frame_needed = 0, uses_anonymous_args = 0
 1483              		.loc 1 568 0
 1484 0000 08B5     		push	{r3, lr}
ARM GAS  /tmp/ccEto00Y.s 			page 36


 1485              	.LCFI34:
 1486              		.cfi_def_cfa_offset 8
 1487              		.cfi_offset 3, -8
 1488              		.cfi_offset 14, -4
 569:application-library/ili9341-lcd/ili9341.c ****   bus_8080_write_register(0x10, 0, NULL);
 1489              		.loc 1 569 0
 1490 0002 0022     		movs	r2, #0
 1491 0004 1146     		mov	r1, r2
 1492 0006 1020     		movs	r0, #16
 1493 0008 FFF7FEFF 		bl	bus_8080_write_register
 1494              	.LVL123:
 1495 000c 08BD     		pop	{r3, pc}
 1496              		.cfi_endproc
 1497              	.LFE162:
 1499              		.section	.text.ili9341_exit_sleep_mode,"ax",%progbits
 1500              		.align	1
 1501              		.global	ili9341_exit_sleep_mode
 1502              		.syntax unified
 1503              		.thumb
 1504              		.thumb_func
 1505              		.fpu fpv4-sp-d16
 1507              	ili9341_exit_sleep_mode:
 1508              	.LFB163:
 570:application-library/ili9341-lcd/ili9341.c **** }
 571:application-library/ili9341-lcd/ili9341.c **** 
 572:application-library/ili9341-lcd/ili9341.c **** 
 573:application-library/ili9341-lcd/ili9341.c **** /** 
 574:application-library/ili9341-lcd/ili9341.c ****   * @brief  8.2.12. Sleep Out (11h) 
 575:application-library/ili9341-lcd/ili9341.c ****   * @param  None.
 576:application-library/ili9341-lcd/ili9341.c ****   * @retval None.
 577:application-library/ili9341-lcd/ili9341.c ****   */
 578:application-library/ili9341-lcd/ili9341.c **** void ili9341_exit_sleep_mode()
 579:application-library/ili9341-lcd/ili9341.c **** {
 1509              		.loc 1 579 0
 1510              		.cfi_startproc
 1511              		@ args = 0, pretend = 0, frame = 0
 1512              		@ frame_needed = 0, uses_anonymous_args = 0
 1513 0000 08B5     		push	{r3, lr}
 1514              	.LCFI35:
 1515              		.cfi_def_cfa_offset 8
 1516              		.cfi_offset 3, -8
 1517              		.cfi_offset 14, -4
 580:application-library/ili9341-lcd/ili9341.c ****   bus_8080_write_register(0x11, 0, NULL);
 1518              		.loc 1 580 0
 1519 0002 0022     		movs	r2, #0
 1520 0004 1146     		mov	r1, r2
 1521 0006 1120     		movs	r0, #17
 1522 0008 FFF7FEFF 		bl	bus_8080_write_register
 1523              	.LVL124:
 581:application-library/ili9341-lcd/ili9341.c ****   HAL_Delay(120);             //120ms
 1524              		.loc 1 581 0
 1525 000c 7820     		movs	r0, #120
 1526 000e FFF7FEFF 		bl	HAL_Delay
 1527              	.LVL125:
 1528 0012 08BD     		pop	{r3, pc}
 1529              		.cfi_endproc
 1530              	.LFE163:
ARM GAS  /tmp/ccEto00Y.s 			page 37


 1532              		.section	.text.ili9341_set_partial_mode_on,"ax",%progbits
 1533              		.align	1
 1534              		.global	ili9341_set_partial_mode_on
 1535              		.syntax unified
 1536              		.thumb
 1537              		.thumb_func
 1538              		.fpu fpv4-sp-d16
 1540              	ili9341_set_partial_mode_on:
 1541              	.LFB164:
 582:application-library/ili9341-lcd/ili9341.c **** }
 583:application-library/ili9341-lcd/ili9341.c **** 
 584:application-library/ili9341-lcd/ili9341.c **** /**
 585:application-library/ili9341-lcd/ili9341.c ****   * @brief  8.2.13. Partial Mode ON (12h)
 586:application-library/ili9341-lcd/ili9341.c ****   * @param  None.
 587:application-library/ili9341-lcd/ili9341.c ****   * @retval None. 
 588:application-library/ili9341-lcd/ili9341.c ****   * @note   This command turns on partial mode the partial mode window 
 589:application-library/ili9341-lcd/ili9341.c ****   *            is described by the Partial Area command (0x30). 
 590:application-library/ili9341-lcd/ili9341.c ****   *          To leave Partial mode, the Normal Display Mode On 
 591:application-library/ili9341-lcd/ili9341.c ****   *            command (0x13) should be written
 592:application-library/ili9341-lcd/ili9341.c ****   */ 
 593:application-library/ili9341-lcd/ili9341.c **** void ili9341_set_partial_mode_on()
 594:application-library/ili9341-lcd/ili9341.c **** {
 1542              		.loc 1 594 0
 1543              		.cfi_startproc
 1544              		@ args = 0, pretend = 0, frame = 0
 1545              		@ frame_needed = 0, uses_anonymous_args = 0
 1546 0000 08B5     		push	{r3, lr}
 1547              	.LCFI36:
 1548              		.cfi_def_cfa_offset 8
 1549              		.cfi_offset 3, -8
 1550              		.cfi_offset 14, -4
 595:application-library/ili9341-lcd/ili9341.c ****   bus_8080_write_register(0x12, 0, NULL);
 1551              		.loc 1 595 0
 1552 0002 0022     		movs	r2, #0
 1553 0004 1146     		mov	r1, r2
 1554 0006 1220     		movs	r0, #18
 1555 0008 FFF7FEFF 		bl	bus_8080_write_register
 1556              	.LVL126:
 1557 000c 08BD     		pop	{r3, pc}
 1558              		.cfi_endproc
 1559              	.LFE164:
 1561              		.section	.text.ili9341_normal_mode_on,"ax",%progbits
 1562              		.align	1
 1563              		.global	ili9341_normal_mode_on
 1564              		.syntax unified
 1565              		.thumb
 1566              		.thumb_func
 1567              		.fpu fpv4-sp-d16
 1569              	ili9341_normal_mode_on:
 1570              	.LFB165:
 596:application-library/ili9341-lcd/ili9341.c **** }
 597:application-library/ili9341-lcd/ili9341.c **** 
 598:application-library/ili9341-lcd/ili9341.c **** 
 599:application-library/ili9341-lcd/ili9341.c **** /** 
 600:application-library/ili9341-lcd/ili9341.c ****   * @brief  8.2.14. Normal Display Mode ON (13h)
 601:application-library/ili9341-lcd/ili9341.c ****   * @param  None.
 602:application-library/ili9341-lcd/ili9341.c ****   * @retval None.
ARM GAS  /tmp/ccEto00Y.s 			page 38


 603:application-library/ili9341-lcd/ili9341.c ****   */
 604:application-library/ili9341-lcd/ili9341.c **** void ili9341_normal_mode_on()
 605:application-library/ili9341-lcd/ili9341.c **** {
 1571              		.loc 1 605 0
 1572              		.cfi_startproc
 1573              		@ args = 0, pretend = 0, frame = 0
 1574              		@ frame_needed = 0, uses_anonymous_args = 0
 1575 0000 08B5     		push	{r3, lr}
 1576              	.LCFI37:
 1577              		.cfi_def_cfa_offset 8
 1578              		.cfi_offset 3, -8
 1579              		.cfi_offset 14, -4
 606:application-library/ili9341-lcd/ili9341.c ****   bus_8080_write_register(0x13, 0, NULL);
 1580              		.loc 1 606 0
 1581 0002 0022     		movs	r2, #0
 1582 0004 1146     		mov	r1, r2
 1583 0006 1320     		movs	r0, #19
 1584 0008 FFF7FEFF 		bl	bus_8080_write_register
 1585              	.LVL127:
 1586 000c 08BD     		pop	{r3, pc}
 1587              		.cfi_endproc
 1588              	.LFE165:
 1590              		.section	.text.ili9341_set_display_inversion_off,"ax",%progbits
 1591              		.align	1
 1592              		.global	ili9341_set_display_inversion_off
 1593              		.syntax unified
 1594              		.thumb
 1595              		.thumb_func
 1596              		.fpu fpv4-sp-d16
 1598              	ili9341_set_display_inversion_off:
 1599              	.LFB166:
 607:application-library/ili9341-lcd/ili9341.c **** }
 608:application-library/ili9341-lcd/ili9341.c **** 
 609:application-library/ili9341-lcd/ili9341.c **** /** 
 610:application-library/ili9341-lcd/ili9341.c ****   * @brief  8.2.15. Display Inversion OFF (20h)
 611:application-library/ili9341-lcd/ili9341.c ****   * @param  None.
 612:application-library/ili9341-lcd/ili9341.c ****   * @retval None.
 613:application-library/ili9341-lcd/ili9341.c ****   */
 614:application-library/ili9341-lcd/ili9341.c **** void ili9341_set_display_inversion_off()
 615:application-library/ili9341-lcd/ili9341.c **** {
 1600              		.loc 1 615 0
 1601              		.cfi_startproc
 1602              		@ args = 0, pretend = 0, frame = 0
 1603              		@ frame_needed = 0, uses_anonymous_args = 0
 1604 0000 08B5     		push	{r3, lr}
 1605              	.LCFI38:
 1606              		.cfi_def_cfa_offset 8
 1607              		.cfi_offset 3, -8
 1608              		.cfi_offset 14, -4
 616:application-library/ili9341-lcd/ili9341.c ****   bus_8080_write_register(0x20, 0, NULL);
 1609              		.loc 1 616 0
 1610 0002 0022     		movs	r2, #0
 1611 0004 1146     		mov	r1, r2
 1612 0006 2020     		movs	r0, #32
 1613 0008 FFF7FEFF 		bl	bus_8080_write_register
 1614              	.LVL128:
 1615 000c 08BD     		pop	{r3, pc}
ARM GAS  /tmp/ccEto00Y.s 			page 39


 1616              		.cfi_endproc
 1617              	.LFE166:
 1619              		.section	.text.ili9341_set_display_inversion_on,"ax",%progbits
 1620              		.align	1
 1621              		.global	ili9341_set_display_inversion_on
 1622              		.syntax unified
 1623              		.thumb
 1624              		.thumb_func
 1625              		.fpu fpv4-sp-d16
 1627              	ili9341_set_display_inversion_on:
 1628              	.LFB167:
 617:application-library/ili9341-lcd/ili9341.c **** }
 618:application-library/ili9341-lcd/ili9341.c **** 
 619:application-library/ili9341-lcd/ili9341.c **** /** 
 620:application-library/ili9341-lcd/ili9341.c ****   * @brief  8.2.16. Display Inversion ON (21h) 
 621:application-library/ili9341-lcd/ili9341.c ****   * @param  None.
 622:application-library/ili9341-lcd/ili9341.c ****   * @retval None.
 623:application-library/ili9341-lcd/ili9341.c ****   */
 624:application-library/ili9341-lcd/ili9341.c **** void ili9341_set_display_inversion_on()
 625:application-library/ili9341-lcd/ili9341.c **** {
 1629              		.loc 1 625 0
 1630              		.cfi_startproc
 1631              		@ args = 0, pretend = 0, frame = 0
 1632              		@ frame_needed = 0, uses_anonymous_args = 0
 1633 0000 08B5     		push	{r3, lr}
 1634              	.LCFI39:
 1635              		.cfi_def_cfa_offset 8
 1636              		.cfi_offset 3, -8
 1637              		.cfi_offset 14, -4
 626:application-library/ili9341-lcd/ili9341.c ****   bus_8080_write_register(0x21, 0, NULL);
 1638              		.loc 1 626 0
 1639 0002 0022     		movs	r2, #0
 1640 0004 1146     		mov	r1, r2
 1641 0006 2120     		movs	r0, #33
 1642 0008 FFF7FEFF 		bl	bus_8080_write_register
 1643              	.LVL129:
 1644 000c 08BD     		pop	{r3, pc}
 1645              		.cfi_endproc
 1646              	.LFE167:
 1648              		.section	.text.ili9341_set_gamma,"ax",%progbits
 1649              		.align	1
 1650              		.global	ili9341_set_gamma
 1651              		.syntax unified
 1652              		.thumb
 1653              		.thumb_func
 1654              		.fpu fpv4-sp-d16
 1656              	ili9341_set_gamma:
 1657              	.LFB168:
 627:application-library/ili9341-lcd/ili9341.c **** }
 628:application-library/ili9341-lcd/ili9341.c **** 
 629:application-library/ili9341-lcd/ili9341.c **** 
 630:application-library/ili9341-lcd/ili9341.c **** /** 
 631:application-library/ili9341-lcd/ili9341.c ****   * @brief  8.2.17. Gamma Set (26h) 
 632:application-library/ili9341-lcd/ili9341.c ****   * @param  None.
 633:application-library/ili9341-lcd/ili9341.c ****   * @retval None.
 634:application-library/ili9341-lcd/ili9341.c ****   */
 635:application-library/ili9341-lcd/ili9341.c **** void ili9341_set_gamma()
ARM GAS  /tmp/ccEto00Y.s 			page 40


 636:application-library/ili9341-lcd/ili9341.c **** {
 1658              		.loc 1 636 0
 1659              		.cfi_startproc
 1660              		@ args = 0, pretend = 0, frame = 8
 1661              		@ frame_needed = 0, uses_anonymous_args = 0
 1662 0000 00B5     		push	{lr}
 1663              	.LCFI40:
 1664              		.cfi_def_cfa_offset 4
 1665              		.cfi_offset 14, -4
 1666 0002 83B0     		sub	sp, sp, #12
 1667              	.LCFI41:
 1668              		.cfi_def_cfa_offset 16
 637:application-library/ili9341-lcd/ili9341.c ****   uint8_t p_param[1] = {0x01};
 1669              		.loc 1 637 0
 1670 0004 02AA     		add	r2, sp, #8
 1671 0006 0123     		movs	r3, #1
 1672 0008 02F8043D 		strb	r3, [r2, #-4]!
 638:application-library/ili9341-lcd/ili9341.c ****   bus_8080_write_register(0x26, 4, p_param);
 1673              		.loc 1 638 0
 1674 000c 0421     		movs	r1, #4
 1675 000e 2620     		movs	r0, #38
 1676 0010 FFF7FEFF 		bl	bus_8080_write_register
 1677              	.LVL130:
 639:application-library/ili9341-lcd/ili9341.c **** }
 1678              		.loc 1 639 0
 1679 0014 03B0     		add	sp, sp, #12
 1680              	.LCFI42:
 1681              		.cfi_def_cfa_offset 4
 1682              		@ sp needed
 1683 0016 5DF804FB 		ldr	pc, [sp], #4
 1684              		.cfi_endproc
 1685              	.LFE168:
 1687              		.section	.text.ili9341_set_display_off,"ax",%progbits
 1688              		.align	1
 1689              		.global	ili9341_set_display_off
 1690              		.syntax unified
 1691              		.thumb
 1692              		.thumb_func
 1693              		.fpu fpv4-sp-d16
 1695              	ili9341_set_display_off:
 1696              	.LFB169:
 640:application-library/ili9341-lcd/ili9341.c **** 
 641:application-library/ili9341-lcd/ili9341.c **** 
 642:application-library/ili9341-lcd/ili9341.c **** /** 
 643:application-library/ili9341-lcd/ili9341.c ****   * @brief  8.2.18. Display OFF (28h) 
 644:application-library/ili9341-lcd/ili9341.c ****   *         Output of Frame Memory is disabled and blank paged is inserted. 
 645:application-library/ili9341-lcd/ili9341.c ****   * @param  None. 
 646:application-library/ili9341-lcd/ili9341.c ****   * @retval None.
 647:application-library/ili9341-lcd/ili9341.c ****   * @note   This command does not change current frame memory.
 648:application-library/ili9341-lcd/ili9341.c ****   */
 649:application-library/ili9341-lcd/ili9341.c **** void ili9341_set_display_off()
 650:application-library/ili9341-lcd/ili9341.c **** {
 1697              		.loc 1 650 0
 1698              		.cfi_startproc
 1699              		@ args = 0, pretend = 0, frame = 0
 1700              		@ frame_needed = 0, uses_anonymous_args = 0
 1701 0000 08B5     		push	{r3, lr}
ARM GAS  /tmp/ccEto00Y.s 			page 41


 1702              	.LCFI43:
 1703              		.cfi_def_cfa_offset 8
 1704              		.cfi_offset 3, -8
 1705              		.cfi_offset 14, -4
 651:application-library/ili9341-lcd/ili9341.c ****   bus_8080_write_register(0x28, 0, NULL);
 1706              		.loc 1 651 0
 1707 0002 0022     		movs	r2, #0
 1708 0004 1146     		mov	r1, r2
 1709 0006 2820     		movs	r0, #40
 1710 0008 FFF7FEFF 		bl	bus_8080_write_register
 1711              	.LVL131:
 1712 000c 08BD     		pop	{r3, pc}
 1713              		.cfi_endproc
 1714              	.LFE169:
 1716              		.section	.text.ili9341_set_display_on,"ax",%progbits
 1717              		.align	1
 1718              		.global	ili9341_set_display_on
 1719              		.syntax unified
 1720              		.thumb
 1721              		.thumb_func
 1722              		.fpu fpv4-sp-d16
 1724              	ili9341_set_display_on:
 1725              	.LFB170:
 652:application-library/ili9341-lcd/ili9341.c **** }
 653:application-library/ili9341-lcd/ili9341.c **** 
 654:application-library/ili9341-lcd/ili9341.c **** 
 655:application-library/ili9341-lcd/ili9341.c **** /** 
 656:application-library/ili9341-lcd/ili9341.c ****   * @brief  8.2.19. Display ON (29h) 
 657:application-library/ili9341-lcd/ili9341.c ****   *         This command recovers the IC from DISPLAY OFF mode.
 658:application-library/ili9341-lcd/ili9341.c ****   *         Output from frame memory is enabled.
 659:application-library/ili9341-lcd/ili9341.c ****   * @param  None. 
 660:application-library/ili9341-lcd/ili9341.c ****   * @retval None.
 661:application-library/ili9341-lcd/ili9341.c ****   I @note   This command does not change current frame memory.
 662:application-library/ili9341-lcd/ili9341.c ****   */
 663:application-library/ili9341-lcd/ili9341.c **** void ili9341_set_display_on()
 664:application-library/ili9341-lcd/ili9341.c **** {
 1726              		.loc 1 664 0
 1727              		.cfi_startproc
 1728              		@ args = 0, pretend = 0, frame = 0
 1729              		@ frame_needed = 0, uses_anonymous_args = 0
 1730 0000 08B5     		push	{r3, lr}
 1731              	.LCFI44:
 1732              		.cfi_def_cfa_offset 8
 1733              		.cfi_offset 3, -8
 1734              		.cfi_offset 14, -4
 665:application-library/ili9341-lcd/ili9341.c ****   bus_8080_write_register(0x29, 0, NULL);
 1735              		.loc 1 665 0
 1736 0002 0022     		movs	r2, #0
 1737 0004 1146     		mov	r1, r2
 1738 0006 2920     		movs	r0, #41
 1739 0008 FFF7FEFF 		bl	bus_8080_write_register
 1740              	.LVL132:
 1741 000c 08BD     		pop	{r3, pc}
 1742              		.cfi_endproc
 1743              	.LFE170:
 1745              		.section	.text.ili9341_set_column_address,"ax",%progbits
 1746              		.align	1
ARM GAS  /tmp/ccEto00Y.s 			page 42


 1747              		.global	ili9341_set_column_address
 1748              		.syntax unified
 1749              		.thumb
 1750              		.thumb_func
 1751              		.fpu fpv4-sp-d16
 1753              	ili9341_set_column_address:
 1754              	.LFB171:
 666:application-library/ili9341-lcd/ili9341.c **** }
 667:application-library/ili9341-lcd/ili9341.c **** 
 668:application-library/ili9341-lcd/ili9341.c **** 
 669:application-library/ili9341-lcd/ili9341.c **** /** 
 670:application-library/ili9341-lcd/ili9341.c ****   * @brief  8.2.20. Column Address Set (2Ah) 
 671:application-library/ili9341-lcd/ili9341.c ****   * @param  x1 Starting column 
 672:application-library/ili9341-lcd/ili9341.c ****   * @param  x2 Ending column
 673:application-library/ili9341-lcd/ili9341.c ****   * @retval None.
 674:application-library/ili9341-lcd/ili9341.c ****   * @note   Imagine vertical pointers as columns. Counterpart to page addresses.
 675:application-library/ili9341-lcd/ili9341.c ****   */
 676:application-library/ili9341-lcd/ili9341.c **** void ili9341_set_column_address(uint16_t x1, uint16_t x2)
 677:application-library/ili9341-lcd/ili9341.c **** {
 1755              		.loc 1 677 0
 1756              		.cfi_startproc
 1757              		@ args = 0, pretend = 0, frame = 8
 1758              		@ frame_needed = 0, uses_anonymous_args = 0
 1759              	.LVL133:
 1760 0000 00B5     		push	{lr}
 1761              	.LCFI45:
 1762              		.cfi_def_cfa_offset 4
 1763              		.cfi_offset 14, -4
 1764 0002 83B0     		sub	sp, sp, #12
 1765              	.LCFI46:
 1766              		.cfi_def_cfa_offset 16
 678:application-library/ili9341-lcd/ili9341.c ****   uint8_t p_param[4] = { (uint8_t)(x1 >> 8), (uint8_t)x1, (uint8_t)(x2 >> 8), (uint8_t)x2};
 1767              		.loc 1 678 0
 1768 0004 030A     		lsrs	r3, r0, #8
 1769 0006 8DF80430 		strb	r3, [sp, #4]
 1770 000a 8DF80500 		strb	r0, [sp, #5]
 1771 000e 0B0A     		lsrs	r3, r1, #8
 1772 0010 8DF80630 		strb	r3, [sp, #6]
 1773 0014 8DF80710 		strb	r1, [sp, #7]
 679:application-library/ili9341-lcd/ili9341.c ****   bus_8080_write_register(0x2A, 4, p_param);
 1774              		.loc 1 679 0
 1775 0018 01AA     		add	r2, sp, #4
 1776 001a 0421     		movs	r1, #4
 1777              	.LVL134:
 1778 001c 2A20     		movs	r0, #42
 1779              	.LVL135:
 1780 001e FFF7FEFF 		bl	bus_8080_write_register
 1781              	.LVL136:
 680:application-library/ili9341-lcd/ili9341.c **** }
 1782              		.loc 1 680 0
 1783 0022 03B0     		add	sp, sp, #12
 1784              	.LCFI47:
 1785              		.cfi_def_cfa_offset 4
 1786              		@ sp needed
 1787 0024 5DF804FB 		ldr	pc, [sp], #4
 1788              		.cfi_endproc
 1789              	.LFE171:
ARM GAS  /tmp/ccEto00Y.s 			page 43


 1791              		.section	.text.ili9341_set_page_address,"ax",%progbits
 1792              		.align	1
 1793              		.global	ili9341_set_page_address
 1794              		.syntax unified
 1795              		.thumb
 1796              		.thumb_func
 1797              		.fpu fpv4-sp-d16
 1799              	ili9341_set_page_address:
 1800              	.LFB172:
 681:application-library/ili9341-lcd/ili9341.c **** 
 682:application-library/ili9341-lcd/ili9341.c **** 
 683:application-library/ili9341-lcd/ili9341.c **** /** 
 684:application-library/ili9341-lcd/ili9341.c ****   * @brief  8.2.21. Page Address Set (2Bh)
 685:application-library/ili9341-lcd/ili9341.c ****   * @param  y1 Starting page
 686:application-library/ili9341-lcd/ili9341.c ****   * @param  y2 Ending page
 687:application-library/ili9341-lcd/ili9341.c ****   * @retval None.
 688:application-library/ili9341-lcd/ili9341.c ****   * @note   Imagine horizontal pointers as columns. Counterpart to column addresses.
 689:application-library/ili9341-lcd/ili9341.c ****   */
 690:application-library/ili9341-lcd/ili9341.c **** void ili9341_set_page_address(uint16_t y1, uint16_t y2)
 691:application-library/ili9341-lcd/ili9341.c **** {
 1801              		.loc 1 691 0
 1802              		.cfi_startproc
 1803              		@ args = 0, pretend = 0, frame = 8
 1804              		@ frame_needed = 0, uses_anonymous_args = 0
 1805              	.LVL137:
 1806 0000 00B5     		push	{lr}
 1807              	.LCFI48:
 1808              		.cfi_def_cfa_offset 4
 1809              		.cfi_offset 14, -4
 1810 0002 83B0     		sub	sp, sp, #12
 1811              	.LCFI49:
 1812              		.cfi_def_cfa_offset 16
 692:application-library/ili9341-lcd/ili9341.c ****   uint8_t p_param[4] = { (uint8_t)(y1 >> 8), (uint8_t)y1, (uint8_t)(y2 >> 8), (uint8_t)y2};
 1813              		.loc 1 692 0
 1814 0004 030A     		lsrs	r3, r0, #8
 1815 0006 8DF80430 		strb	r3, [sp, #4]
 1816 000a 8DF80500 		strb	r0, [sp, #5]
 1817 000e 0B0A     		lsrs	r3, r1, #8
 1818 0010 8DF80630 		strb	r3, [sp, #6]
 1819 0014 8DF80710 		strb	r1, [sp, #7]
 693:application-library/ili9341-lcd/ili9341.c ****   bus_8080_write_register(0x2B, 4, p_param);
 1820              		.loc 1 693 0
 1821 0018 01AA     		add	r2, sp, #4
 1822 001a 0421     		movs	r1, #4
 1823              	.LVL138:
 1824 001c 2B20     		movs	r0, #43
 1825              	.LVL139:
 1826 001e FFF7FEFF 		bl	bus_8080_write_register
 1827              	.LVL140:
 694:application-library/ili9341-lcd/ili9341.c **** }
 1828              		.loc 1 694 0
 1829 0022 03B0     		add	sp, sp, #12
 1830              	.LCFI50:
 1831              		.cfi_def_cfa_offset 4
 1832              		@ sp needed
 1833 0024 5DF804FB 		ldr	pc, [sp], #4
 1834              		.cfi_endproc
ARM GAS  /tmp/ccEto00Y.s 			page 44


 1835              	.LFE172:
 1837              		.section	.text.ili9341_memory_write,"ax",%progbits
 1838              		.align	1
 1839              		.global	ili9341_memory_write
 1840              		.syntax unified
 1841              		.thumb
 1842              		.thumb_func
 1843              		.fpu fpv4-sp-d16
 1845              	ili9341_memory_write:
 1846              	.LFB173:
 695:application-library/ili9341-lcd/ili9341.c **** 
 696:application-library/ili9341-lcd/ili9341.c **** 
 697:application-library/ili9341-lcd/ili9341.c **** /** 
 698:application-library/ili9341-lcd/ili9341.c ****   * @brief  TODO 8.2.22. Memory Write (2Ch) 
 699:application-library/ili9341-lcd/ili9341.c ****   * @param  None.
 700:application-library/ili9341-lcd/ili9341.c ****   * @retval None.
 701:application-library/ili9341-lcd/ili9341.c ****   */
 702:application-library/ili9341-lcd/ili9341.c **** void ili9341_memory_write()
 703:application-library/ili9341-lcd/ili9341.c **** {
 1847              		.loc 1 703 0
 1848              		.cfi_startproc
 1849              		@ args = 0, pretend = 0, frame = 0
 1850              		@ frame_needed = 0, uses_anonymous_args = 0
 1851 0000 08B5     		push	{r3, lr}
 1852              	.LCFI51:
 1853              		.cfi_def_cfa_offset 8
 1854              		.cfi_offset 3, -8
 1855              		.cfi_offset 14, -4
 704:application-library/ili9341-lcd/ili9341.c ****   bus_8080_write_register(0x2C, 0, NULL);
 1856              		.loc 1 704 0
 1857 0002 0022     		movs	r2, #0
 1858 0004 1146     		mov	r1, r2
 1859 0006 2C20     		movs	r0, #44
 1860 0008 FFF7FEFF 		bl	bus_8080_write_register
 1861              	.LVL141:
 1862 000c 08BD     		pop	{r3, pc}
 1863              		.cfi_endproc
 1864              	.LFE173:
 1866              		.section	.text.ili9341_set_color,"ax",%progbits
 1867              		.align	1
 1868              		.global	ili9341_set_color
 1869              		.syntax unified
 1870              		.thumb
 1871              		.thumb_func
 1872              		.fpu fpv4-sp-d16
 1874              	ili9341_set_color:
 1875              	.LFB174:
 705:application-library/ili9341-lcd/ili9341.c **** }
 706:application-library/ili9341-lcd/ili9341.c **** 
 707:application-library/ili9341-lcd/ili9341.c **** 
 708:application-library/ili9341-lcd/ili9341.c **** /** 
 709:application-library/ili9341-lcd/ili9341.c ****   * @brief  TODO 8.2.23. Color Set (2Dh) 
 710:application-library/ili9341-lcd/ili9341.c ****   * @param  None.
 711:application-library/ili9341-lcd/ili9341.c ****   * @retval None.
 712:application-library/ili9341-lcd/ili9341.c ****   */
 713:application-library/ili9341-lcd/ili9341.c **** void ili9341_set_color()
 714:application-library/ili9341-lcd/ili9341.c **** {
ARM GAS  /tmp/ccEto00Y.s 			page 45


 1876              		.loc 1 714 0
 1877              		.cfi_startproc
 1878              		@ args = 0, pretend = 0, frame = 0
 1879              		@ frame_needed = 0, uses_anonymous_args = 0
 1880              		@ link register save eliminated.
 1881 0000 7047     		bx	lr
 1882              		.cfi_endproc
 1883              	.LFE174:
 1885              		.section	.text.ili9341_memory_read,"ax",%progbits
 1886              		.align	1
 1887              		.global	ili9341_memory_read
 1888              		.syntax unified
 1889              		.thumb
 1890              		.thumb_func
 1891              		.fpu fpv4-sp-d16
 1893              	ili9341_memory_read:
 1894              	.LFB175:
 715:application-library/ili9341-lcd/ili9341.c **** 
 716:application-library/ili9341-lcd/ili9341.c **** }
 717:application-library/ili9341-lcd/ili9341.c **** 
 718:application-library/ili9341-lcd/ili9341.c **** /** 
 719:application-library/ili9341-lcd/ili9341.c ****   * @brief  TODO 8.2.24. Memory Read (2Eh) 
 720:application-library/ili9341-lcd/ili9341.c ****   * @param  None.
 721:application-library/ili9341-lcd/ili9341.c ****   * @retval None.
 722:application-library/ili9341-lcd/ili9341.c ****   */
 723:application-library/ili9341-lcd/ili9341.c **** void ili9341_memory_read()
 724:application-library/ili9341-lcd/ili9341.c **** {
 1895              		.loc 1 724 0
 1896              		.cfi_startproc
 1897              		@ args = 0, pretend = 0, frame = 0
 1898              		@ frame_needed = 0, uses_anonymous_args = 0
 1899              		@ link register save eliminated.
 1900 0000 7047     		bx	lr
 1901              		.cfi_endproc
 1902              	.LFE175:
 1904              		.section	.text.ili9341_set_partial_area,"ax",%progbits
 1905              		.align	1
 1906              		.global	ili9341_set_partial_area
 1907              		.syntax unified
 1908              		.thumb
 1909              		.thumb_func
 1910              		.fpu fpv4-sp-d16
 1912              	ili9341_set_partial_area:
 1913              	.LFB176:
 725:application-library/ili9341-lcd/ili9341.c **** 
 726:application-library/ili9341-lcd/ili9341.c **** }
 727:application-library/ili9341-lcd/ili9341.c **** 
 728:application-library/ili9341-lcd/ili9341.c **** /** 
 729:application-library/ili9341-lcd/ili9341.c ****   * @brief  TODO 8.2.25. Partial Area (30h)
 730:application-library/ili9341-lcd/ili9341.c ****   * @param  None.
 731:application-library/ili9341-lcd/ili9341.c ****   * @retval None.
 732:application-library/ili9341-lcd/ili9341.c ****   */
 733:application-library/ili9341-lcd/ili9341.c **** void ili9341_set_partial_area()
 734:application-library/ili9341-lcd/ili9341.c **** {
 1914              		.loc 1 734 0
 1915              		.cfi_startproc
 1916              		@ args = 0, pretend = 0, frame = 0
ARM GAS  /tmp/ccEto00Y.s 			page 46


 1917              		@ frame_needed = 0, uses_anonymous_args = 0
 1918              		@ link register save eliminated.
 1919 0000 7047     		bx	lr
 1920              		.cfi_endproc
 1921              	.LFE176:
 1923              		.section	.text.ili9341_set_vertical_scrolling_definition,"ax",%progbits
 1924              		.align	1
 1925              		.global	ili9341_set_vertical_scrolling_definition
 1926              		.syntax unified
 1927              		.thumb
 1928              		.thumb_func
 1929              		.fpu fpv4-sp-d16
 1931              	ili9341_set_vertical_scrolling_definition:
 1932              	.LFB177:
 735:application-library/ili9341-lcd/ili9341.c ****   
 736:application-library/ili9341-lcd/ili9341.c **** }
 737:application-library/ili9341-lcd/ili9341.c **** 
 738:application-library/ili9341-lcd/ili9341.c **** /** 
 739:application-library/ili9341-lcd/ili9341.c ****   * @brief  8.2.26. Vertical Scrolling Definition (33h) 
 740:application-library/ili9341-lcd/ili9341.c ****   * @param  top_fix_area_height No. of lines from top of the Frame Memory and display
 741:application-library/ili9341-lcd/ili9341.c ****   * @param  vertical_scrolling_area_height No. of lines of the Frame Memory [not the display] from 
 742:application-library/ili9341-lcd/ili9341.c ****   * @param  bottom_fix_area_height  No. of lines from Bottom of the Frame Memory and Display
 743:application-library/ili9341-lcd/ili9341.c ****   * @retval None.
 744:application-library/ili9341-lcd/ili9341.c ****   */
 745:application-library/ili9341-lcd/ili9341.c **** void ili9341_set_vertical_scrolling_definition(uint16_t top_fixed_area_height, uint16_t vertical_sc
 746:application-library/ili9341-lcd/ili9341.c **** {
 1933              		.loc 1 746 0
 1934              		.cfi_startproc
 1935              		@ args = 0, pretend = 0, frame = 8
 1936              		@ frame_needed = 0, uses_anonymous_args = 0
 1937              	.LVL142:
 1938              		.loc 1 746 0
 1939 0000 00B5     		push	{lr}
 1940              	.LCFI52:
 1941              		.cfi_def_cfa_offset 4
 1942              		.cfi_offset 14, -4
 1943 0002 83B0     		sub	sp, sp, #12
 1944              	.LCFI53:
 1945              		.cfi_def_cfa_offset 16
 747:application-library/ili9341-lcd/ili9341.c ****   uint8_t p_param[6] = {top_fixed_area_height >> 8, top_fixed_area_height & 0xFF,
 1946              		.loc 1 747 0
 1947 0004 030A     		lsrs	r3, r0, #8
 1948 0006 8DF80030 		strb	r3, [sp]
 1949 000a 8DF80100 		strb	r0, [sp, #1]
 1950 000e 0B0A     		lsrs	r3, r1, #8
 1951 0010 8DF80230 		strb	r3, [sp, #2]
 1952 0014 8DF80310 		strb	r1, [sp, #3]
 1953 0018 130A     		lsrs	r3, r2, #8
 1954 001a 8DF80430 		strb	r3, [sp, #4]
 1955 001e 8DF80520 		strb	r2, [sp, #5]
 748:application-library/ili9341-lcd/ili9341.c ****                         vertical_scrolling_area_height >> 8, vertical_scrolling_area_height & 0xFF,
 749:application-library/ili9341-lcd/ili9341.c ****                         bottom_fixed_area_height >> 8, bottom_fixed_area_height & 0xFF
 750:application-library/ili9341-lcd/ili9341.c ****                        };
 751:application-library/ili9341-lcd/ili9341.c ****   bus_8080_write_register(0x33, 6, p_param);
 1956              		.loc 1 751 0
 1957 0022 6A46     		mov	r2, sp
 1958              	.LVL143:
ARM GAS  /tmp/ccEto00Y.s 			page 47


 1959 0024 0621     		movs	r1, #6
 1960              	.LVL144:
 1961 0026 3320     		movs	r0, #51
 1962              	.LVL145:
 1963 0028 FFF7FEFF 		bl	bus_8080_write_register
 1964              	.LVL146:
 752:application-library/ili9341-lcd/ili9341.c **** }
 1965              		.loc 1 752 0
 1966 002c 03B0     		add	sp, sp, #12
 1967              	.LCFI54:
 1968              		.cfi_def_cfa_offset 4
 1969              		@ sp needed
 1970 002e 5DF804FB 		ldr	pc, [sp], #4
 1971              		.cfi_endproc
 1972              	.LFE177:
 1974              		.section	.text.ili9341_set_tearing_effect_line_off,"ax",%progbits
 1975              		.align	1
 1976              		.global	ili9341_set_tearing_effect_line_off
 1977              		.syntax unified
 1978              		.thumb
 1979              		.thumb_func
 1980              		.fpu fpv4-sp-d16
 1982              	ili9341_set_tearing_effect_line_off:
 1983              	.LFB178:
 753:application-library/ili9341-lcd/ili9341.c **** 
 754:application-library/ili9341-lcd/ili9341.c **** 
 755:application-library/ili9341-lcd/ili9341.c **** /** 
 756:application-library/ili9341-lcd/ili9341.c ****   * @brief  8.2.27. Tearing Effect Line OFF (34h)
 757:application-library/ili9341-lcd/ili9341.c ****   * @param  None.
 758:application-library/ili9341-lcd/ili9341.c ****   * @retval None.
 759:application-library/ili9341-lcd/ili9341.c ****   */
 760:application-library/ili9341-lcd/ili9341.c **** void ili9341_set_tearing_effect_line_off()
 761:application-library/ili9341-lcd/ili9341.c **** {
 1984              		.loc 1 761 0
 1985              		.cfi_startproc
 1986              		@ args = 0, pretend = 0, frame = 0
 1987              		@ frame_needed = 0, uses_anonymous_args = 0
 1988              		@ link register save eliminated.
 1989 0000 7047     		bx	lr
 1990              		.cfi_endproc
 1991              	.LFE178:
 1993              		.section	.text.ili9341_set_tearing_effect_line_on,"ax",%progbits
 1994              		.align	1
 1995              		.global	ili9341_set_tearing_effect_line_on
 1996              		.syntax unified
 1997              		.thumb
 1998              		.thumb_func
 1999              		.fpu fpv4-sp-d16
 2001              	ili9341_set_tearing_effect_line_on:
 2002              	.LFB179:
 762:application-library/ili9341-lcd/ili9341.c **** 
 763:application-library/ili9341-lcd/ili9341.c **** }
 764:application-library/ili9341-lcd/ili9341.c **** 
 765:application-library/ili9341-lcd/ili9341.c **** /**
 766:application-library/ili9341-lcd/ili9341.c ****   * @brief  8.2.28. Tearing Effect Line ON (35h) 
 767:application-library/ili9341-lcd/ili9341.c ****   * @param  None.
 768:application-library/ili9341-lcd/ili9341.c ****   * @retval None.
ARM GAS  /tmp/ccEto00Y.s 			page 48


 769:application-library/ili9341-lcd/ili9341.c ****   * @note   When M=0:
 770:application-library/ili9341-lcd/ili9341.c ****   *   When M=1:
 771:application-library/ili9341-lcd/ili9341.c ****   *   The Tearing Effect Output line consists of V-Blanking information only:
 772:application-library/ili9341-lcd/ili9341.c ****   *   When M=0:
 773:application-library/ili9341-lcd/ili9341.c ****   *   The Tearing Effect Output Line consists of both V-Blanking and H-Blanking information.
 774:application-library/ili9341-lcd/ili9341.c ****   *   To confirm tearing effect mode on/off, read 0x0E, Read Display Signal Mode.
 775:application-library/ili9341-lcd/ili9341.c ****   */
 776:application-library/ili9341-lcd/ili9341.c **** void ili9341_set_tearing_effect_line_on()
 777:application-library/ili9341-lcd/ili9341.c **** {
 2003              		.loc 1 777 0
 2004              		.cfi_startproc
 2005              		@ args = 0, pretend = 0, frame = 8
 2006              		@ frame_needed = 0, uses_anonymous_args = 0
 2007              		.loc 1 777 0
 2008 0000 00B5     		push	{lr}
 2009              	.LCFI55:
 2010              		.cfi_def_cfa_offset 4
 2011              		.cfi_offset 14, -4
 2012 0002 83B0     		sub	sp, sp, #12
 2013              	.LCFI56:
 2014              		.cfi_def_cfa_offset 16
 778:application-library/ili9341-lcd/ili9341.c ****   uint8_t p_param[1] = {1 << 0};
 2015              		.loc 1 778 0
 2016 0004 0121     		movs	r1, #1
 2017 0006 02AA     		add	r2, sp, #8
 2018 0008 02F8041D 		strb	r1, [r2, #-4]!
 779:application-library/ili9341-lcd/ili9341.c ****   bus_8080_write_register(0x35, 1, p_param);
 2019              		.loc 1 779 0
 2020 000c 3520     		movs	r0, #53
 2021 000e FFF7FEFF 		bl	bus_8080_write_register
 2022              	.LVL147:
 780:application-library/ili9341-lcd/ili9341.c **** }
 2023              		.loc 1 780 0
 2024 0012 03B0     		add	sp, sp, #12
 2025              	.LCFI57:
 2026              		.cfi_def_cfa_offset 4
 2027              		@ sp needed
 2028 0014 5DF804FB 		ldr	pc, [sp], #4
 2029              		.cfi_endproc
 2030              	.LFE179:
 2032              		.section	.text.ili9341_set_memory_access_control,"ax",%progbits
 2033              		.align	1
 2034              		.global	ili9341_set_memory_access_control
 2035              		.syntax unified
 2036              		.thumb
 2037              		.thumb_func
 2038              		.fpu fpv4-sp-d16
 2040              	ili9341_set_memory_access_control:
 2041              	.LFB180:
 781:application-library/ili9341-lcd/ili9341.c **** 
 782:application-library/ili9341-lcd/ili9341.c **** 
 783:application-library/ili9341-lcd/ili9341.c **** /** 
 784:application-library/ili9341-lcd/ili9341.c ****   * @brief  8.2.29. Memory Access Control (36h)
 785:application-library/ili9341-lcd/ili9341.c ****   * @param  None.
 786:application-library/ili9341-lcd/ili9341.c ****   * @retval None.
 787:application-library/ili9341-lcd/ili9341.c ****   */
 788:application-library/ili9341-lcd/ili9341.c **** void ili9341_set_memory_access_control(uint8_t val)
ARM GAS  /tmp/ccEto00Y.s 			page 49


 789:application-library/ili9341-lcd/ili9341.c **** {
 2042              		.loc 1 789 0
 2043              		.cfi_startproc
 2044              		@ args = 0, pretend = 0, frame = 8
 2045              		@ frame_needed = 0, uses_anonymous_args = 0
 2046              	.LVL148:
 2047 0000 00B5     		push	{lr}
 2048              	.LCFI58:
 2049              		.cfi_def_cfa_offset 4
 2050              		.cfi_offset 14, -4
 2051 0002 83B0     		sub	sp, sp, #12
 2052              	.LCFI59:
 2053              		.cfi_def_cfa_offset 16
 790:application-library/ili9341-lcd/ili9341.c ****   uint8_t p_param[1] = {val};
 2054              		.loc 1 790 0
 2055 0004 02AA     		add	r2, sp, #8
 2056 0006 02F8040D 		strb	r0, [r2, #-4]!
 791:application-library/ili9341-lcd/ili9341.c ****   bus_8080_write_register(0x36, 1, p_param);
 2057              		.loc 1 791 0
 2058 000a 0121     		movs	r1, #1
 2059 000c 3620     		movs	r0, #54
 2060              	.LVL149:
 2061 000e FFF7FEFF 		bl	bus_8080_write_register
 2062              	.LVL150:
 792:application-library/ili9341-lcd/ili9341.c **** }
 2063              		.loc 1 792 0
 2064 0012 03B0     		add	sp, sp, #12
 2065              	.LCFI60:
 2066              		.cfi_def_cfa_offset 4
 2067              		@ sp needed
 2068 0014 5DF804FB 		ldr	pc, [sp], #4
 2069              		.cfi_endproc
 2070              	.LFE180:
 2072              		.section	.text.ili9341_vertical_scrolling_start_address,"ax",%progbits
 2073              		.align	1
 2074              		.global	ili9341_vertical_scrolling_start_address
 2075              		.syntax unified
 2076              		.thumb
 2077              		.thumb_func
 2078              		.fpu fpv4-sp-d16
 2080              	ili9341_vertical_scrolling_start_address:
 2081              	.LFB181:
 793:application-library/ili9341-lcd/ili9341.c **** 
 794:application-library/ili9341-lcd/ili9341.c **** 
 795:application-library/ili9341-lcd/ili9341.c **** /** 
 796:application-library/ili9341-lcd/ili9341.c ****   * @brief  8.2.30. Vertical Scrolling Start Address (37h)
 797:application-library/ili9341-lcd/ili9341.c ****   * @param  VSP Vertical Start Position.
 798:application-library/ili9341-lcd/ili9341.c ****   * @retval None.
 799:application-library/ili9341-lcd/ili9341.c ****   */
 800:application-library/ili9341-lcd/ili9341.c **** void ili9341_vertical_scrolling_start_address(uint16_t VSP)
 801:application-library/ili9341-lcd/ili9341.c **** {
 2082              		.loc 1 801 0
 2083              		.cfi_startproc
 2084              		@ args = 0, pretend = 0, frame = 8
 2085              		@ frame_needed = 0, uses_anonymous_args = 0
 2086              	.LVL151:
 2087 0000 00B5     		push	{lr}
ARM GAS  /tmp/ccEto00Y.s 			page 50


 2088              	.LCFI61:
 2089              		.cfi_def_cfa_offset 4
 2090              		.cfi_offset 14, -4
 2091 0002 83B0     		sub	sp, sp, #12
 2092              	.LCFI62:
 2093              		.cfi_def_cfa_offset 16
 802:application-library/ili9341-lcd/ili9341.c ****   uint8_t p_param[2] = {(uint8_t)VSP >> 8, VSP & 0xFF};
 2094              		.loc 1 802 0
 2095 0004 C0B2     		uxtb	r0, r0
 2096              	.LVL152:
 2097 0006 0312     		asrs	r3, r0, #8
 2098 0008 8DF80430 		strb	r3, [sp, #4]
 2099 000c 8DF80500 		strb	r0, [sp, #5]
 803:application-library/ili9341-lcd/ili9341.c ****   bus_8080_write_register(0x37, 2, p_param);
 2100              		.loc 1 803 0
 2101 0010 01AA     		add	r2, sp, #4
 2102 0012 0221     		movs	r1, #2
 2103 0014 3720     		movs	r0, #55
 2104 0016 FFF7FEFF 		bl	bus_8080_write_register
 2105              	.LVL153:
 804:application-library/ili9341-lcd/ili9341.c **** }
 2106              		.loc 1 804 0
 2107 001a 03B0     		add	sp, sp, #12
 2108              	.LCFI63:
 2109              		.cfi_def_cfa_offset 4
 2110              		@ sp needed
 2111 001c 5DF804FB 		ldr	pc, [sp], #4
 2112              		.cfi_endproc
 2113              	.LFE181:
 2115              		.section	.text.ili9341_set_idle_mode_off,"ax",%progbits
 2116              		.align	1
 2117              		.global	ili9341_set_idle_mode_off
 2118              		.syntax unified
 2119              		.thumb
 2120              		.thumb_func
 2121              		.fpu fpv4-sp-d16
 2123              	ili9341_set_idle_mode_off:
 2124              	.LFB182:
 805:application-library/ili9341-lcd/ili9341.c **** 
 806:application-library/ili9341-lcd/ili9341.c **** /**
 807:application-library/ili9341-lcd/ili9341.c ****   * @brief  8.2.31. Idle Mode OFF (38h) 
 808:application-library/ili9341-lcd/ili9341.c ****   * @param  None.
 809:application-library/ili9341-lcd/ili9341.c ****   * @retval None.
 810:application-library/ili9341-lcd/ili9341.c ****   * @brief This command is used to enter into Idle mode on.
 811:application-library/ili9341-lcd/ili9341.c ****   *          In the idle on mode, color expression is reduced. 
 812:application-library/ili9341-lcd/ili9341.c ****   *        The primary and the secondary colors using MSB of each RGB 
 813:application-library/ili9341-lcd/ili9341.c ****   *          in the Frame Memory, 8 color depth data is displayed.
 814:application-library/ili9341-lcd/ili9341.c ****   */
 815:application-library/ili9341-lcd/ili9341.c **** void ili9341_set_idle_mode_off()
 816:application-library/ili9341-lcd/ili9341.c **** {
 2125              		.loc 1 816 0
 2126              		.cfi_startproc
 2127              		@ args = 0, pretend = 0, frame = 0
 2128              		@ frame_needed = 0, uses_anonymous_args = 0
 2129 0000 08B5     		push	{r3, lr}
 2130              	.LCFI64:
 2131              		.cfi_def_cfa_offset 8
ARM GAS  /tmp/ccEto00Y.s 			page 51


 2132              		.cfi_offset 3, -8
 2133              		.cfi_offset 14, -4
 817:application-library/ili9341-lcd/ili9341.c ****   bus_8080_write_register(0x38, 0, NULL);
 2134              		.loc 1 817 0
 2135 0002 0022     		movs	r2, #0
 2136 0004 1146     		mov	r1, r2
 2137 0006 3820     		movs	r0, #56
 2138 0008 FFF7FEFF 		bl	bus_8080_write_register
 2139              	.LVL154:
 2140 000c 08BD     		pop	{r3, pc}
 2141              		.cfi_endproc
 2142              	.LFE182:
 2144              		.section	.text.ili9341_set_idle_mode_on,"ax",%progbits
 2145              		.align	1
 2146              		.global	ili9341_set_idle_mode_on
 2147              		.syntax unified
 2148              		.thumb
 2149              		.thumb_func
 2150              		.fpu fpv4-sp-d16
 2152              	ili9341_set_idle_mode_on:
 2153              	.LFB183:
 818:application-library/ili9341-lcd/ili9341.c **** }
 819:application-library/ili9341-lcd/ili9341.c **** 
 820:application-library/ili9341-lcd/ili9341.c **** 
 821:application-library/ili9341-lcd/ili9341.c **** /** 
 822:application-library/ili9341-lcd/ili9341.c ****   * @brief  8.2.32. Idle Mode ON (39h)
 823:application-library/ili9341-lcd/ili9341.c ****   * @param  None.
 824:application-library/ili9341-lcd/ili9341.c ****   * @retval None.
 825:application-library/ili9341-lcd/ili9341.c ****   */
 826:application-library/ili9341-lcd/ili9341.c **** void ili9341_set_idle_mode_on()
 827:application-library/ili9341-lcd/ili9341.c **** {
 2154              		.loc 1 827 0
 2155              		.cfi_startproc
 2156              		@ args = 0, pretend = 0, frame = 0
 2157              		@ frame_needed = 0, uses_anonymous_args = 0
 2158 0000 08B5     		push	{r3, lr}
 2159              	.LCFI65:
 2160              		.cfi_def_cfa_offset 8
 2161              		.cfi_offset 3, -8
 2162              		.cfi_offset 14, -4
 828:application-library/ili9341-lcd/ili9341.c ****   bus_8080_write_register(0x39, 0, NULL);
 2163              		.loc 1 828 0
 2164 0002 0022     		movs	r2, #0
 2165 0004 1146     		mov	r1, r2
 2166 0006 3920     		movs	r0, #57
 2167 0008 FFF7FEFF 		bl	bus_8080_write_register
 2168              	.LVL155:
 2169 000c 08BD     		pop	{r3, pc}
 2170              		.cfi_endproc
 2171              	.LFE183:
 2173              		.section	.text.ili9341_set_pixel_format_set,"ax",%progbits
 2174              		.align	1
 2175              		.global	ili9341_set_pixel_format_set
 2176              		.syntax unified
 2177              		.thumb
 2178              		.thumb_func
 2179              		.fpu fpv4-sp-d16
ARM GAS  /tmp/ccEto00Y.s 			page 52


 2181              	ili9341_set_pixel_format_set:
 2182              	.LFB184:
 829:application-library/ili9341-lcd/ili9341.c **** }
 830:application-library/ili9341-lcd/ili9341.c **** 
 831:application-library/ili9341-lcd/ili9341.c **** 
 832:application-library/ili9341-lcd/ili9341.c **** /** 
 833:application-library/ili9341-lcd/ili9341.c ****   * @brief  8.2.33. COLMOD: Pixel Format Set (3Ah)
 834:application-library/ili9341-lcd/ili9341.c ****   * @param  None.
 835:application-library/ili9341-lcd/ili9341.c ****   * @retval None.
 836:application-library/ili9341-lcd/ili9341.c ****   */
 837:application-library/ili9341-lcd/ili9341.c **** void ili9341_set_pixel_format_set()
 838:application-library/ili9341-lcd/ili9341.c **** {
 2183              		.loc 1 838 0
 2184              		.cfi_startproc
 2185              		@ args = 0, pretend = 0, frame = 8
 2186              		@ frame_needed = 0, uses_anonymous_args = 0
 2187 0000 00B5     		push	{lr}
 2188              	.LCFI66:
 2189              		.cfi_def_cfa_offset 4
 2190              		.cfi_offset 14, -4
 2191 0002 83B0     		sub	sp, sp, #12
 2192              	.LCFI67:
 2193              		.cfi_def_cfa_offset 16
 839:application-library/ili9341-lcd/ili9341.c ****   uint8_t p_param[1] = {0x55};
 2194              		.loc 1 839 0
 2195 0004 02AA     		add	r2, sp, #8
 2196 0006 5523     		movs	r3, #85
 2197 0008 02F8043D 		strb	r3, [r2, #-4]!
 840:application-library/ili9341-lcd/ili9341.c ****   bus_8080_write_register(0x3A, 1, p_param);
 2198              		.loc 1 840 0
 2199 000c 0121     		movs	r1, #1
 2200 000e 3A20     		movs	r0, #58
 2201 0010 FFF7FEFF 		bl	bus_8080_write_register
 2202              	.LVL156:
 841:application-library/ili9341-lcd/ili9341.c **** }
 2203              		.loc 1 841 0
 2204 0014 03B0     		add	sp, sp, #12
 2205              	.LCFI68:
 2206              		.cfi_def_cfa_offset 4
 2207              		@ sp needed
 2208 0016 5DF804FB 		ldr	pc, [sp], #4
 2209              		.cfi_endproc
 2210              	.LFE184:
 2212              		.section	.text.ili9341_write_memory_continue,"ax",%progbits
 2213              		.align	1
 2214              		.global	ili9341_write_memory_continue
 2215              		.syntax unified
 2216              		.thumb
 2217              		.thumb_func
 2218              		.fpu fpv4-sp-d16
 2220              	ili9341_write_memory_continue:
 2221              	.LFB185:
 842:application-library/ili9341-lcd/ili9341.c **** 
 843:application-library/ili9341-lcd/ili9341.c **** 
 844:application-library/ili9341-lcd/ili9341.c **** 
 845:application-library/ili9341-lcd/ili9341.c **** /** 
 846:application-library/ili9341-lcd/ili9341.c ****   * @brief  TODO 8.2.34. Write_Memory_Continue (3Ch)
ARM GAS  /tmp/ccEto00Y.s 			page 53


 847:application-library/ili9341-lcd/ili9341.c ****   * @param  None.
 848:application-library/ili9341-lcd/ili9341.c ****   * @retval None.
 849:application-library/ili9341-lcd/ili9341.c ****   */
 850:application-library/ili9341-lcd/ili9341.c **** void ili9341_write_memory_continue()
 851:application-library/ili9341-lcd/ili9341.c **** {
 2222              		.loc 1 851 0
 2223              		.cfi_startproc
 2224              		@ args = 0, pretend = 0, frame = 0
 2225              		@ frame_needed = 0, uses_anonymous_args = 0
 2226              		@ link register save eliminated.
 2227 0000 7047     		bx	lr
 2228              		.cfi_endproc
 2229              	.LFE185:
 2231              		.section	.text.ili9341_read_memory_continue,"ax",%progbits
 2232              		.align	1
 2233              		.global	ili9341_read_memory_continue
 2234              		.syntax unified
 2235              		.thumb
 2236              		.thumb_func
 2237              		.fpu fpv4-sp-d16
 2239              	ili9341_read_memory_continue:
 2240              	.LFB186:
 852:application-library/ili9341-lcd/ili9341.c **** 
 853:application-library/ili9341-lcd/ili9341.c **** }
 854:application-library/ili9341-lcd/ili9341.c **** 
 855:application-library/ili9341-lcd/ili9341.c **** 
 856:application-library/ili9341-lcd/ili9341.c **** /** 
 857:application-library/ili9341-lcd/ili9341.c ****   * @brief  TODO 8.2.35. Read_Memory_Continue (3Eh)
 858:application-library/ili9341-lcd/ili9341.c ****   * @param  None.
 859:application-library/ili9341-lcd/ili9341.c ****   * @retval None.
 860:application-library/ili9341-lcd/ili9341.c ****   */
 861:application-library/ili9341-lcd/ili9341.c **** void ili9341_read_memory_continue()
 862:application-library/ili9341-lcd/ili9341.c **** {
 2241              		.loc 1 862 0
 2242              		.cfi_startproc
 2243              		@ args = 0, pretend = 0, frame = 0
 2244              		@ frame_needed = 0, uses_anonymous_args = 0
 2245              		@ link register save eliminated.
 2246 0000 7047     		bx	lr
 2247              		.cfi_endproc
 2248              	.LFE186:
 2250              		.section	.text.ili9341_set_tear_scanline,"ax",%progbits
 2251              		.align	1
 2252              		.global	ili9341_set_tear_scanline
 2253              		.syntax unified
 2254              		.thumb
 2255              		.thumb_func
 2256              		.fpu fpv4-sp-d16
 2258              	ili9341_set_tear_scanline:
 2259              	.LFB187:
 863:application-library/ili9341-lcd/ili9341.c **** 
 864:application-library/ili9341-lcd/ili9341.c **** }
 865:application-library/ili9341-lcd/ili9341.c **** 
 866:application-library/ili9341-lcd/ili9341.c **** /** 
 867:application-library/ili9341-lcd/ili9341.c ****   * @brief  TODO 8.2.36. Set_Tear_Scanline (44h)
 868:application-library/ili9341-lcd/ili9341.c ****   * @param  None.
 869:application-library/ili9341-lcd/ili9341.c ****   * @retval None.
ARM GAS  /tmp/ccEto00Y.s 			page 54


 870:application-library/ili9341-lcd/ili9341.c ****   */
 871:application-library/ili9341-lcd/ili9341.c **** void ili9341_set_tear_scanline()
 872:application-library/ili9341-lcd/ili9341.c **** {
 2260              		.loc 1 872 0
 2261              		.cfi_startproc
 2262              		@ args = 0, pretend = 0, frame = 0
 2263              		@ frame_needed = 0, uses_anonymous_args = 0
 2264              		@ link register save eliminated.
 2265 0000 7047     		bx	lr
 2266              		.cfi_endproc
 2267              	.LFE187:
 2269              		.section	.text.ili9341_get_scanline,"ax",%progbits
 2270              		.align	1
 2271              		.global	ili9341_get_scanline
 2272              		.syntax unified
 2273              		.thumb
 2274              		.thumb_func
 2275              		.fpu fpv4-sp-d16
 2277              	ili9341_get_scanline:
 2278              	.LFB188:
 873:application-library/ili9341-lcd/ili9341.c **** 
 874:application-library/ili9341-lcd/ili9341.c **** }
 875:application-library/ili9341-lcd/ili9341.c **** 
 876:application-library/ili9341-lcd/ili9341.c **** 
 877:application-library/ili9341-lcd/ili9341.c **** /** 
 878:application-library/ili9341-lcd/ili9341.c ****   * @brief  TODO 8.2.37. Get_Scanline (45h) 
 879:application-library/ili9341-lcd/ili9341.c ****   * @param  None.
 880:application-library/ili9341-lcd/ili9341.c ****   * @retval None.
 881:application-library/ili9341-lcd/ili9341.c ****   */
 882:application-library/ili9341-lcd/ili9341.c **** void ili9341_get_scanline()
 883:application-library/ili9341-lcd/ili9341.c **** {
 2279              		.loc 1 883 0
 2280              		.cfi_startproc
 2281              		@ args = 0, pretend = 0, frame = 0
 2282              		@ frame_needed = 0, uses_anonymous_args = 0
 2283              		@ link register save eliminated.
 2284 0000 7047     		bx	lr
 2285              		.cfi_endproc
 2286              	.LFE188:
 2288              		.section	.text.ili9341_set_display_brightness,"ax",%progbits
 2289              		.align	1
 2290              		.global	ili9341_set_display_brightness
 2291              		.syntax unified
 2292              		.thumb
 2293              		.thumb_func
 2294              		.fpu fpv4-sp-d16
 2296              	ili9341_set_display_brightness:
 2297              	.LFB189:
 884:application-library/ili9341-lcd/ili9341.c **** 
 885:application-library/ili9341-lcd/ili9341.c **** }
 886:application-library/ili9341-lcd/ili9341.c **** 
 887:application-library/ili9341-lcd/ili9341.c **** /**
 888:application-library/ili9341-lcd/ili9341.c ****   * @brief  8.2.38. Write Display Brightness (51h) 
 889:application-library/ili9341-lcd/ili9341.c ****   * @param  None.
 890:application-library/ili9341-lcd/ili9341.c ****   * @retval None.
 891:application-library/ili9341-lcd/ili9341.c ****   * @note   At the time of this program developed, 
 892:application-library/ili9341-lcd/ili9341.c ****   *           the brightness pinout is hardwired to VCC. 
ARM GAS  /tmp/ccEto00Y.s 			page 55


 893:application-library/ili9341-lcd/ili9341.c ****   *         Thus through experiment I was not able to set brightness
 894:application-library/ili9341-lcd/ili9341.c ****   *           by writing to 0x51. 
 895:application-library/ili9341-lcd/ili9341.c ****   */ 
 896:application-library/ili9341-lcd/ili9341.c ****   
 897:application-library/ili9341-lcd/ili9341.c **** void ili9341_set_display_brightness()
 898:application-library/ili9341-lcd/ili9341.c **** {
 2298              		.loc 1 898 0
 2299              		.cfi_startproc
 2300              		@ args = 0, pretend = 0, frame = 8
 2301              		@ frame_needed = 0, uses_anonymous_args = 0
 2302              		.loc 1 898 0
 2303 0000 00B5     		push	{lr}
 2304              	.LCFI69:
 2305              		.cfi_def_cfa_offset 4
 2306              		.cfi_offset 14, -4
 2307 0002 83B0     		sub	sp, sp, #12
 2308              	.LCFI70:
 2309              		.cfi_def_cfa_offset 16
 899:application-library/ili9341-lcd/ili9341.c ****   /* p_param pointes the brightness value. */
 900:application-library/ili9341-lcd/ili9341.c ****   uint8_t p_param[1] = {0x55};
 2310              		.loc 1 900 0
 2311 0004 02AA     		add	r2, sp, #8
 2312 0006 5523     		movs	r3, #85
 2313 0008 02F8043D 		strb	r3, [r2, #-4]!
 901:application-library/ili9341-lcd/ili9341.c ****   bus_8080_write_register(0x51, 1, p_param);
 2314              		.loc 1 901 0
 2315 000c 0121     		movs	r1, #1
 2316 000e 5120     		movs	r0, #81
 2317 0010 FFF7FEFF 		bl	bus_8080_write_register
 2318              	.LVL157:
 902:application-library/ili9341-lcd/ili9341.c **** }
 2319              		.loc 1 902 0
 2320 0014 03B0     		add	sp, sp, #12
 2321              	.LCFI71:
 2322              		.cfi_def_cfa_offset 4
 2323              		@ sp needed
 2324 0016 5DF804FB 		ldr	pc, [sp], #4
 2325              		.cfi_endproc
 2326              	.LFE189:
 2328              		.section	.text.ili9341_get_display_brightness,"ax",%progbits
 2329              		.align	1
 2330              		.global	ili9341_get_display_brightness
 2331              		.syntax unified
 2332              		.thumb
 2333              		.thumb_func
 2334              		.fpu fpv4-sp-d16
 2336              	ili9341_get_display_brightness:
 2337              	.LFB190:
 903:application-library/ili9341-lcd/ili9341.c **** 
 904:application-library/ili9341-lcd/ili9341.c **** /**
 905:application-library/ili9341-lcd/ili9341.c ****   * @brief      8.2.39. Read Display Brightness (52h) 
 906:application-library/ili9341-lcd/ili9341.c ****   * @param[OUT] p_read_data Pointer to brightness data read.
 907:application-library/ili9341-lcd/ili9341.c ****   * @retval     None. 
 908:application-library/ili9341-lcd/ili9341.c ****   * @note   At the time of this program developed, 
 909:application-library/ili9341-lcd/ili9341.c ****   *           the brightness pinout is hardwired to VCC. 
 910:application-library/ili9341-lcd/ili9341.c ****   *         Thus through experiment I was not able to set brightness
 911:application-library/ili9341-lcd/ili9341.c ****   *           by writing to 0x51. 
ARM GAS  /tmp/ccEto00Y.s 			page 56


 912:application-library/ili9341-lcd/ili9341.c ****   *         And brightness read from 0x52 always returns 0 for unknown reason.
 913:application-library/ili9341-lcd/ili9341.c ****   */
 914:application-library/ili9341-lcd/ili9341.c **** void ili9341_get_display_brightness(uint8_t* p_read_data)
 915:application-library/ili9341-lcd/ili9341.c **** {
 2338              		.loc 1 915 0
 2339              		.cfi_startproc
 2340              		@ args = 0, pretend = 0, frame = 64
 2341              		@ frame_needed = 0, uses_anonymous_args = 0
 2342              	.LVL158:
 2343 0000 70B5     		push	{r4, r5, r6, lr}
 2344              	.LCFI72:
 2345              		.cfi_def_cfa_offset 16
 2346              		.cfi_offset 4, -16
 2347              		.cfi_offset 5, -12
 2348              		.cfi_offset 6, -8
 2349              		.cfi_offset 14, -4
 2350 0002 90B0     		sub	sp, sp, #64
 2351              	.LCFI73:
 2352              		.cfi_def_cfa_offset 80
 2353 0004 0646     		mov	r6, r0
 916:application-library/ili9341-lcd/ili9341.c ****   bus_8080_read_register(0x52, 2, p_read_data);
 2354              		.loc 1 916 0
 2355 0006 0246     		mov	r2, r0
 2356 0008 0221     		movs	r1, #2
 2357 000a 5220     		movs	r0, #82
 2358              	.LVL159:
 2359 000c FFF7FEFF 		bl	bus_8080_read_register
 2360              	.LVL160:
 917:application-library/ili9341-lcd/ili9341.c ****  
 918:application-library/ili9341-lcd/ili9341.c ****   #if defined ILI9341_DEBUG
 919:application-library/ili9341-lcd/ili9341.c ****   char msg[64];
 920:application-library/ili9341-lcd/ili9341.c ****   sprintf(msg, "- Printing ILI9341 <Display Brightness> register value -\n");
 2361              		.loc 1 920 0
 2362 0010 6C46     		mov	r4, sp
 2363 0012 0C4D     		ldr	r5, .L147
 2364 0014 0FCD     		ldmia	r5!, {r0, r1, r2, r3}
 2365 0016 0FC4     		stmia	r4!, {r0, r1, r2, r3}
 2366 0018 0FCD     		ldmia	r5!, {r0, r1, r2, r3}
 2367 001a 0FC4     		stmia	r4!, {r0, r1, r2, r3}
 2368 001c 0FCD     		ldmia	r5!, {r0, r1, r2, r3}
 2369 001e 0FC4     		stmia	r4!, {r0, r1, r2, r3}
 2370 0020 95E80700 		ldm	r5, {r0, r1, r2}
 2371 0024 03C4     		stmia	r4!, {r0, r1}
 2372 0026 2280     		strh	r2, [r4]	@ movhi
 921:application-library/ili9341-lcd/ili9341.c ****   serial_print(msg);
 2373              		.loc 1 921 0
 2374 0028 6846     		mov	r0, sp
 2375 002a FFF7FEFF 		bl	serial_print
 2376              	.LVL161:
 922:application-library/ili9341-lcd/ili9341.c ****   sprintf(msg, "Brightness (0 ~ 255): %#02x\n", p_read_data[1]); /* id4[0] is dummy byte. */
 2377              		.loc 1 922 0
 2378 002e 7278     		ldrb	r2, [r6, #1]	@ zero_extendqisi2
 2379 0030 0549     		ldr	r1, .L147+4
 2380 0032 6846     		mov	r0, sp
 2381 0034 FFF7FEFF 		bl	sprintf
 2382              	.LVL162:
 923:application-library/ili9341-lcd/ili9341.c ****   serial_print(msg);
ARM GAS  /tmp/ccEto00Y.s 			page 57


 2383              		.loc 1 923 0
 2384 0038 6846     		mov	r0, sp
 2385 003a FFF7FEFF 		bl	serial_print
 2386              	.LVL163:
 924:application-library/ili9341-lcd/ili9341.c ****   #endif
 925:application-library/ili9341-lcd/ili9341.c **** 
 926:application-library/ili9341-lcd/ili9341.c **** }
 2387              		.loc 1 926 0
 2388 003e 10B0     		add	sp, sp, #64
 2389              	.LCFI74:
 2390              		.cfi_def_cfa_offset 16
 2391              		@ sp needed
 2392 0040 70BD     		pop	{r4, r5, r6, pc}
 2393              	.LVL164:
 2394              	.L148:
 2395 0042 00BF     		.align	2
 2396              	.L147:
 2397 0044 00000000 		.word	.LC15
 2398 0048 3C000000 		.word	.LC16
 2399              		.cfi_endproc
 2400              	.LFE190:
 2402              		.section	.text.ili9341_set_CTRL_display,"ax",%progbits
 2403              		.align	1
 2404              		.global	ili9341_set_CTRL_display
 2405              		.syntax unified
 2406              		.thumb
 2407              		.thumb_func
 2408              		.fpu fpv4-sp-d16
 2410              	ili9341_set_CTRL_display:
 2411              	.LFB191:
 927:application-library/ili9341-lcd/ili9341.c **** /** 
 928:application-library/ili9341-lcd/ili9341.c ****   * @brief  8.2.40. Write CTRL Display (53h) 
 929:application-library/ili9341-lcd/ili9341.c ****   * @note   At the time of this program developed, 
 930:application-library/ili9341-lcd/ili9341.c ****   *           the brightness pinout is hardwired to VCC. 
 931:application-library/ili9341-lcd/ili9341.c ****   *         Writing to CTRL_display was successful, however LCD brightness 
 932:application-library/ili9341-lcd/ili9341.c ****   *           did not adjust accordingly. 
 933:application-library/ili9341-lcd/ili9341.c ****   */
 934:application-library/ili9341-lcd/ili9341.c **** void ili9341_set_CTRL_display()
 935:application-library/ili9341-lcd/ili9341.c **** {
 2412              		.loc 1 935 0
 2413              		.cfi_startproc
 2414              		@ args = 0, pretend = 0, frame = 8
 2415              		@ frame_needed = 0, uses_anonymous_args = 0
 2416 0000 00B5     		push	{lr}
 2417              	.LCFI75:
 2418              		.cfi_def_cfa_offset 4
 2419              		.cfi_offset 14, -4
 2420 0002 83B0     		sub	sp, sp, #12
 2421              	.LCFI76:
 2422              		.cfi_def_cfa_offset 16
 936:application-library/ili9341-lcd/ili9341.c ****   uint8_t p_param[1] = {0x00};
 2423              		.loc 1 936 0
 2424 0004 02AA     		add	r2, sp, #8
 2425 0006 0023     		movs	r3, #0
 2426 0008 02F8043D 		strb	r3, [r2, #-4]!
 937:application-library/ili9341-lcd/ili9341.c ****   bus_8080_write_register(0x53, 1, p_param);
 2427              		.loc 1 937 0
ARM GAS  /tmp/ccEto00Y.s 			page 58


 2428 000c 0121     		movs	r1, #1
 2429 000e 5320     		movs	r0, #83
 2430 0010 FFF7FEFF 		bl	bus_8080_write_register
 2431              	.LVL165:
 938:application-library/ili9341-lcd/ili9341.c **** }
 2432              		.loc 1 938 0
 2433 0014 03B0     		add	sp, sp, #12
 2434              	.LCFI77:
 2435              		.cfi_def_cfa_offset 4
 2436              		@ sp needed
 2437 0016 5DF804FB 		ldr	pc, [sp], #4
 2438              		.cfi_endproc
 2439              	.LFE191:
 2441              		.section	.text.ili9341_get_CTRL_display,"ax",%progbits
 2442              		.align	1
 2443              		.global	ili9341_get_CTRL_display
 2444              		.syntax unified
 2445              		.thumb
 2446              		.thumb_func
 2447              		.fpu fpv4-sp-d16
 2449              	ili9341_get_CTRL_display:
 2450              	.LFB192:
 939:application-library/ili9341-lcd/ili9341.c **** 
 940:application-library/ili9341-lcd/ili9341.c **** /**
 941:application-library/ili9341-lcd/ili9341.c ****   * @brief  8.2.41. Read CTRL Display (54h) 
 942:application-library/ili9341-lcd/ili9341.c ****   * @param  p_read_data Pointer to data read from CTRL Display register.
 943:application-library/ili9341-lcd/ili9341.c ****   * @retval None.
 944:application-library/ili9341-lcd/ili9341.c ****   * @note   This command is used to read brightness setting.
 945:application-library/ili9341-lcd/ili9341.c ****   *         BCTRL: Brightness Control Block On/Off,
 946:application-library/ili9341-lcd/ili9341.c ****   *         DD: Display Dimming
 947:application-library/ili9341-lcd/ili9341.c ****   *         BL: Backlight On/Off
 948:application-library/ili9341-lcd/ili9341.c ****   
 949:application-library/ili9341-lcd/ili9341.c ****   */
 950:application-library/ili9341-lcd/ili9341.c **** void ili9341_get_CTRL_display(uint8_t* p_read_data)
 951:application-library/ili9341-lcd/ili9341.c **** {
 2451              		.loc 1 951 0
 2452              		.cfi_startproc
 2453              		@ args = 0, pretend = 0, frame = 64
 2454              		@ frame_needed = 0, uses_anonymous_args = 0
 2455              	.LVL166:
 2456 0000 70B5     		push	{r4, r5, r6, lr}
 2457              	.LCFI78:
 2458              		.cfi_def_cfa_offset 16
 2459              		.cfi_offset 4, -16
 2460              		.cfi_offset 5, -12
 2461              		.cfi_offset 6, -8
 2462              		.cfi_offset 14, -4
 2463 0002 90B0     		sub	sp, sp, #64
 2464              	.LCFI79:
 2465              		.cfi_def_cfa_offset 80
 2466 0004 0646     		mov	r6, r0
 952:application-library/ili9341-lcd/ili9341.c ****   bus_8080_read_register(0x54, 2, p_read_data);
 2467              		.loc 1 952 0
 2468 0006 0246     		mov	r2, r0
 2469 0008 0221     		movs	r1, #2
 2470 000a 5420     		movs	r0, #84
 2471              	.LVL167:
ARM GAS  /tmp/ccEto00Y.s 			page 59


 2472 000c FFF7FEFF 		bl	bus_8080_read_register
 2473              	.LVL168:
 953:application-library/ili9341-lcd/ili9341.c ****  
 954:application-library/ili9341-lcd/ili9341.c ****   #if defined ILI9341_DEBUG
 955:application-library/ili9341-lcd/ili9341.c ****   char msg[64];
 956:application-library/ili9341-lcd/ili9341.c ****   sprintf(msg, "- Printing ILI9341 <CTRL Display> register value -\n");
 2474              		.loc 1 956 0
 2475 0010 6C46     		mov	r4, sp
 2476 0012 164D     		ldr	r5, .L153
 2477 0014 0FCD     		ldmia	r5!, {r0, r1, r2, r3}
 2478 0016 0FC4     		stmia	r4!, {r0, r1, r2, r3}
 2479 0018 0FCD     		ldmia	r5!, {r0, r1, r2, r3}
 2480 001a 0FC4     		stmia	r4!, {r0, r1, r2, r3}
 2481 001c 0FCD     		ldmia	r5!, {r0, r1, r2, r3}
 2482 001e 0FC4     		stmia	r4!, {r0, r1, r2, r3}
 2483 0020 2B68     		ldr	r3, [r5]
 2484 0022 2360     		str	r3, [r4]
 957:application-library/ili9341-lcd/ili9341.c ****   serial_print(msg);
 2485              		.loc 1 957 0
 2486 0024 6846     		mov	r0, sp
 2487 0026 FFF7FEFF 		bl	serial_print
 2488              	.LVL169:
 958:application-library/ili9341-lcd/ili9341.c ****   sprintf(msg, "BCTRL (Brightness Control on/off): %d\n", (p_read_data[1] & 0x20) ? 1 : 0); 
 2489              		.loc 1 958 0
 2490 002a 7278     		ldrb	r2, [r6, #1]	@ zero_extendqisi2
 2491 002c C2F34012 		ubfx	r2, r2, #5, #1
 2492 0030 0F49     		ldr	r1, .L153+4
 2493 0032 6846     		mov	r0, sp
 2494 0034 FFF7FEFF 		bl	sprintf
 2495              	.LVL170:
 959:application-library/ili9341-lcd/ili9341.c ****   serial_print(msg);
 2496              		.loc 1 959 0
 2497 0038 6846     		mov	r0, sp
 2498 003a FFF7FEFF 		bl	serial_print
 2499              	.LVL171:
 960:application-library/ili9341-lcd/ili9341.c ****   sprintf(msg, "DD (Display Dimming on/off): %d\n", (p_read_data[1] & 0x08) ? 1 : 0); 
 2500              		.loc 1 960 0
 2501 003e 7278     		ldrb	r2, [r6, #1]	@ zero_extendqisi2
 2502 0040 C2F3C002 		ubfx	r2, r2, #3, #1
 2503 0044 0B49     		ldr	r1, .L153+8
 2504 0046 6846     		mov	r0, sp
 2505 0048 FFF7FEFF 		bl	sprintf
 2506              	.LVL172:
 961:application-library/ili9341-lcd/ili9341.c ****   serial_print(msg);
 2507              		.loc 1 961 0
 2508 004c 6846     		mov	r0, sp
 2509 004e FFF7FEFF 		bl	serial_print
 2510              	.LVL173:
 962:application-library/ili9341-lcd/ili9341.c ****   sprintf(msg, "BL (Complete turn off backlight): %d\n", (p_read_data[1] & 0x04) ? 1 : 0); 
 2511              		.loc 1 962 0
 2512 0052 7278     		ldrb	r2, [r6, #1]	@ zero_extendqisi2
 2513 0054 C2F38002 		ubfx	r2, r2, #2, #1
 2514 0058 0749     		ldr	r1, .L153+12
 2515 005a 6846     		mov	r0, sp
 2516 005c FFF7FEFF 		bl	sprintf
 2517              	.LVL174:
 963:application-library/ili9341-lcd/ili9341.c ****   serial_print(msg);
ARM GAS  /tmp/ccEto00Y.s 			page 60


 2518              		.loc 1 963 0
 2519 0060 6846     		mov	r0, sp
 2520 0062 FFF7FEFF 		bl	serial_print
 2521              	.LVL175:
 964:application-library/ili9341-lcd/ili9341.c ****   #endif
 965:application-library/ili9341-lcd/ili9341.c **** }
 2522              		.loc 1 965 0
 2523 0066 10B0     		add	sp, sp, #64
 2524              	.LCFI80:
 2525              		.cfi_def_cfa_offset 16
 2526              		@ sp needed
 2527 0068 70BD     		pop	{r4, r5, r6, pc}
 2528              	.LVL176:
 2529              	.L154:
 2530 006a 00BF     		.align	2
 2531              	.L153:
 2532 006c 00000000 		.word	.LC17
 2533 0070 34000000 		.word	.LC18
 2534 0074 5C000000 		.word	.LC19
 2535 0078 80000000 		.word	.LC20
 2536              		.cfi_endproc
 2537              	.LFE192:
 2539              		.section	.text.ili9341_set_content_adaptive_brightness_control,"ax",%progbits
 2540              		.align	1
 2541              		.global	ili9341_set_content_adaptive_brightness_control
 2542              		.syntax unified
 2543              		.thumb
 2544              		.thumb_func
 2545              		.fpu fpv4-sp-d16
 2547              	ili9341_set_content_adaptive_brightness_control:
 2548              	.LFB193:
 966:application-library/ili9341-lcd/ili9341.c **** 
 967:application-library/ili9341-lcd/ili9341.c **** 
 968:application-library/ili9341-lcd/ili9341.c **** 
 969:application-library/ili9341-lcd/ili9341.c **** /** 
 970:application-library/ili9341-lcd/ili9341.c ****   * @brief  TODO 8.2.42. Write Content Adaptive Brightness Control (55h) 
 971:application-library/ili9341-lcd/ili9341.c ****   * @param  None.
 972:application-library/ili9341-lcd/ili9341.c ****   * @retval None.
 973:application-library/ili9341-lcd/ili9341.c ****   */
 974:application-library/ili9341-lcd/ili9341.c **** void ili9341_set_content_adaptive_brightness_control()
 975:application-library/ili9341-lcd/ili9341.c **** {
 2549              		.loc 1 975 0
 2550              		.cfi_startproc
 2551              		@ args = 0, pretend = 0, frame = 0
 2552              		@ frame_needed = 0, uses_anonymous_args = 0
 2553              		@ link register save eliminated.
 2554 0000 7047     		bx	lr
 2555              		.cfi_endproc
 2556              	.LFE193:
 2558              		.section	.text.ili9341_get_content_adaptive_brightness_control,"ax",%progbits
 2559              		.align	1
 2560              		.global	ili9341_get_content_adaptive_brightness_control
 2561              		.syntax unified
 2562              		.thumb
 2563              		.thumb_func
 2564              		.fpu fpv4-sp-d16
 2566              	ili9341_get_content_adaptive_brightness_control:
ARM GAS  /tmp/ccEto00Y.s 			page 61


 2567              	.LFB194:
 976:application-library/ili9341-lcd/ili9341.c **** 
 977:application-library/ili9341-lcd/ili9341.c **** }
 978:application-library/ili9341-lcd/ili9341.c **** 
 979:application-library/ili9341-lcd/ili9341.c **** /** 
 980:application-library/ili9341-lcd/ili9341.c ****   * @brief  TODO 8.2.43. Read Content Adaptive Brightness Control (56h) 
 981:application-library/ili9341-lcd/ili9341.c ****   * @param  None.
 982:application-library/ili9341-lcd/ili9341.c ****   * @retval None.
 983:application-library/ili9341-lcd/ili9341.c ****   */
 984:application-library/ili9341-lcd/ili9341.c **** void ili9341_get_content_adaptive_brightness_control()
 985:application-library/ili9341-lcd/ili9341.c **** {
 2568              		.loc 1 985 0
 2569              		.cfi_startproc
 2570              		@ args = 0, pretend = 0, frame = 0
 2571              		@ frame_needed = 0, uses_anonymous_args = 0
 2572              		@ link register save eliminated.
 2573 0000 7047     		bx	lr
 2574              		.cfi_endproc
 2575              	.LFE194:
 2577              		.section	.text.ili9341_set_CABC_minimum_brightness,"ax",%progbits
 2578              		.align	1
 2579              		.global	ili9341_set_CABC_minimum_brightness
 2580              		.syntax unified
 2581              		.thumb
 2582              		.thumb_func
 2583              		.fpu fpv4-sp-d16
 2585              	ili9341_set_CABC_minimum_brightness:
 2586              	.LFB195:
 986:application-library/ili9341-lcd/ili9341.c **** 
 987:application-library/ili9341-lcd/ili9341.c **** }
 988:application-library/ili9341-lcd/ili9341.c **** 
 989:application-library/ili9341-lcd/ili9341.c **** 
 990:application-library/ili9341-lcd/ili9341.c **** /** 
 991:application-library/ili9341-lcd/ili9341.c ****   * @brief  TODO 8.2.44. Write CABC Minimum Brightness (5Eh) 
 992:application-library/ili9341-lcd/ili9341.c ****   * @param  None.
 993:application-library/ili9341-lcd/ili9341.c ****   * @retval None.
 994:application-library/ili9341-lcd/ili9341.c ****   */
 995:application-library/ili9341-lcd/ili9341.c **** void ili9341_set_CABC_minimum_brightness()
 996:application-library/ili9341-lcd/ili9341.c **** {
 2587              		.loc 1 996 0
 2588              		.cfi_startproc
 2589              		@ args = 0, pretend = 0, frame = 0
 2590              		@ frame_needed = 0, uses_anonymous_args = 0
 2591              		@ link register save eliminated.
 2592 0000 7047     		bx	lr
 2593              		.cfi_endproc
 2594              	.LFE195:
 2596              		.section	.text.ili9341_get_CABC_minimum_brightness,"ax",%progbits
 2597              		.align	1
 2598              		.global	ili9341_get_CABC_minimum_brightness
 2599              		.syntax unified
 2600              		.thumb
 2601              		.thumb_func
 2602              		.fpu fpv4-sp-d16
 2604              	ili9341_get_CABC_minimum_brightness:
 2605              	.LFB196:
 997:application-library/ili9341-lcd/ili9341.c **** 
ARM GAS  /tmp/ccEto00Y.s 			page 62


 998:application-library/ili9341-lcd/ili9341.c **** }
 999:application-library/ili9341-lcd/ili9341.c **** 
1000:application-library/ili9341-lcd/ili9341.c **** 
1001:application-library/ili9341-lcd/ili9341.c **** /** 
1002:application-library/ili9341-lcd/ili9341.c ****   * @brief  TODO 8.2.45. Read CABC Minimum Brightness (5Fh) 
1003:application-library/ili9341-lcd/ili9341.c ****   * @param  None.
1004:application-library/ili9341-lcd/ili9341.c ****   * @retval None.
1005:application-library/ili9341-lcd/ili9341.c ****   */
1006:application-library/ili9341-lcd/ili9341.c **** void ili9341_get_CABC_minimum_brightness()
1007:application-library/ili9341-lcd/ili9341.c **** {
 2606              		.loc 1 1007 0
 2607              		.cfi_startproc
 2608              		@ args = 0, pretend = 0, frame = 0
 2609              		@ frame_needed = 0, uses_anonymous_args = 0
 2610              		@ link register save eliminated.
 2611 0000 7047     		bx	lr
 2612              		.cfi_endproc
 2613              	.LFE196:
 2615              		.section	.text.ili9341_get_id1,"ax",%progbits
 2616              		.align	1
 2617              		.global	ili9341_get_id1
 2618              		.syntax unified
 2619              		.thumb
 2620              		.thumb_func
 2621              		.fpu fpv4-sp-d16
 2623              	ili9341_get_id1:
 2624              	.LFB197:
1008:application-library/ili9341-lcd/ili9341.c **** 
1009:application-library/ili9341-lcd/ili9341.c **** }
1010:application-library/ili9341-lcd/ili9341.c **** 
1011:application-library/ili9341-lcd/ili9341.c **** /** 
1012:application-library/ili9341-lcd/ili9341.c ****   * @brief 8.2.46. Read ID1 (DAh) 
1013:application-library/ili9341-lcd/ili9341.c ****   * @param  p_read_data Pointer to the array storing data read from ID1 register.
1014:application-library/ili9341-lcd/ili9341.c ****   * @retval None.
1015:application-library/ili9341-lcd/ili9341.c ****   * @note.  p_read_data[0] is expected a dummy byte, ignore it.
1016:application-library/ili9341-lcd/ili9341.c ****   *         At the time of this code development, id1 returns 0x00
1017:application-library/ili9341-lcd/ili9341.c ****   *           even through other register read / write were tested successful.
1018:application-library/ili9341-lcd/ili9341.c ****   *         Since <id1> is defined as the LCD module's manufatuerer ID,
1019:application-library/ili9341-lcd/ili9341.c ****   *           some brand may use ILI9341 but never programmed its ID.
1020:application-library/ili9341-lcd/ili9341.c ****   *         In order to do sanity check on fresh connection, use ili9341_get_id4() instead, 
1021:application-library/ili9341-lcd/ili9341.c ****   *           which should return 0x9341 on its third and fourth bytes.
1022:application-library/ili9341-lcd/ili9341.c ****   */
1023:application-library/ili9341-lcd/ili9341.c **** void ili9341_get_id1(uint8_t* p_read_data)
1024:application-library/ili9341-lcd/ili9341.c **** {
 2625              		.loc 1 1024 0
 2626              		.cfi_startproc
 2627              		@ args = 0, pretend = 0, frame = 64
 2628              		@ frame_needed = 0, uses_anonymous_args = 0
 2629              	.LVL177:
 2630              		.loc 1 1024 0
 2631 0000 70B5     		push	{r4, r5, r6, lr}
 2632              	.LCFI81:
 2633              		.cfi_def_cfa_offset 16
 2634              		.cfi_offset 4, -16
 2635              		.cfi_offset 5, -12
 2636              		.cfi_offset 6, -8
 2637              		.cfi_offset 14, -4
ARM GAS  /tmp/ccEto00Y.s 			page 63


 2638 0002 90B0     		sub	sp, sp, #64
 2639              	.LCFI82:
 2640              		.cfi_def_cfa_offset 80
 2641 0004 0646     		mov	r6, r0
1025:application-library/ili9341-lcd/ili9341.c ****   bus_8080_read_register(0xDA, 2, p_read_data);
 2642              		.loc 1 1025 0
 2643 0006 0246     		mov	r2, r0
 2644 0008 0221     		movs	r1, #2
 2645 000a DA20     		movs	r0, #218
 2646              	.LVL178:
 2647 000c FFF7FEFF 		bl	bus_8080_read_register
 2648              	.LVL179:
1026:application-library/ili9341-lcd/ili9341.c ****  
1027:application-library/ili9341-lcd/ili9341.c ****   #if defined ILI9341_DEBUG
1028:application-library/ili9341-lcd/ili9341.c ****   char msg[64];
1029:application-library/ili9341-lcd/ili9341.c ****   sprintf(msg, "- Printing ILI9341 <id1> register value -\n");
 2649              		.loc 1 1029 0
 2650 0010 6C46     		mov	r4, sp
 2651 0012 0C4D     		ldr	r5, .L161
 2652 0014 0FCD     		ldmia	r5!, {r0, r1, r2, r3}
 2653 0016 0FC4     		stmia	r4!, {r0, r1, r2, r3}
 2654 0018 0FCD     		ldmia	r5!, {r0, r1, r2, r3}
 2655 001a 0FC4     		stmia	r4!, {r0, r1, r2, r3}
 2656 001c 95E80700 		ldm	r5, {r0, r1, r2}
 2657 0020 03C4     		stmia	r4!, {r0, r1}
 2658 0022 24F8022B 		strh	r2, [r4], #2	@ movhi
 2659 0026 120C     		lsrs	r2, r2, #16
 2660 0028 2270     		strb	r2, [r4]
1030:application-library/ili9341-lcd/ili9341.c ****   serial_print(msg);
 2661              		.loc 1 1030 0
 2662 002a 6846     		mov	r0, sp
 2663 002c FFF7FEFF 		bl	serial_print
 2664              	.LVL180:
1031:application-library/ili9341-lcd/ili9341.c ****   sprintf(msg, "ID1: %#02x\n", p_read_data[1]); 
 2665              		.loc 1 1031 0
 2666 0030 7278     		ldrb	r2, [r6, #1]	@ zero_extendqisi2
 2667 0032 0549     		ldr	r1, .L161+4
 2668 0034 6846     		mov	r0, sp
 2669 0036 FFF7FEFF 		bl	sprintf
 2670              	.LVL181:
1032:application-library/ili9341-lcd/ili9341.c ****   serial_print(msg);
 2671              		.loc 1 1032 0
 2672 003a 6846     		mov	r0, sp
 2673 003c FFF7FEFF 		bl	serial_print
 2674              	.LVL182:
1033:application-library/ili9341-lcd/ili9341.c ****   #endif
1034:application-library/ili9341-lcd/ili9341.c **** }
 2675              		.loc 1 1034 0
 2676 0040 10B0     		add	sp, sp, #64
 2677              	.LCFI83:
 2678              		.cfi_def_cfa_offset 16
 2679              		@ sp needed
 2680 0042 70BD     		pop	{r4, r5, r6, pc}
 2681              	.LVL183:
 2682              	.L162:
 2683              		.align	2
 2684              	.L161:
ARM GAS  /tmp/ccEto00Y.s 			page 64


 2685 0044 00000000 		.word	.LC21
 2686 0048 2C000000 		.word	.LC22
 2687              		.cfi_endproc
 2688              	.LFE197:
 2690              		.section	.text.ili9341_get_id2,"ax",%progbits
 2691              		.align	1
 2692              		.global	ili9341_get_id2
 2693              		.syntax unified
 2694              		.thumb
 2695              		.thumb_func
 2696              		.fpu fpv4-sp-d16
 2698              	ili9341_get_id2:
 2699              	.LFB198:
1035:application-library/ili9341-lcd/ili9341.c **** 
1036:application-library/ili9341-lcd/ili9341.c **** 
1037:application-library/ili9341-lcd/ili9341.c **** /** 
1038:application-library/ili9341-lcd/ili9341.c ****   * @brief  8.2.47. Read ID2 (DBh) 
1039:application-library/ili9341-lcd/ili9341.c ****   * @param  p_read_data Pointer to the array storing data read from ID2 register.
1040:application-library/ili9341-lcd/ili9341.c ****   * @retval None.
1041:application-library/ili9341-lcd/ili9341.c ****   * @note.  p_read_data[0] is expected a dummy byte, ignore it.
1042:application-library/ili9341-lcd/ili9341.c ****   *         At the time of this code development, id1 returns 0x00
1043:application-library/ili9341-lcd/ili9341.c ****   *           even through other register read / write were tested successful.
1044:application-library/ili9341-lcd/ili9341.c ****   *         Since <id2> is defined as the LCD module's manufatuerer ID,
1045:application-library/ili9341-lcd/ili9341.c ****   *           some brand may use ILI9341 but never programmed its ID.
1046:application-library/ili9341-lcd/ili9341.c ****   *         In order to do sanity check on fresh connection, use ili9341_get_id4() instead, 
1047:application-library/ili9341-lcd/ili9341.c ****   *           which should return 0x9341 on its third and fourth bytes.
1048:application-library/ili9341-lcd/ili9341.c ****   */
1049:application-library/ili9341-lcd/ili9341.c **** void ili9341_get_id2(uint8_t* p_read_data)
1050:application-library/ili9341-lcd/ili9341.c **** {
 2700              		.loc 1 1050 0
 2701              		.cfi_startproc
 2702              		@ args = 0, pretend = 0, frame = 64
 2703              		@ frame_needed = 0, uses_anonymous_args = 0
 2704              	.LVL184:
 2705 0000 70B5     		push	{r4, r5, r6, lr}
 2706              	.LCFI84:
 2707              		.cfi_def_cfa_offset 16
 2708              		.cfi_offset 4, -16
 2709              		.cfi_offset 5, -12
 2710              		.cfi_offset 6, -8
 2711              		.cfi_offset 14, -4
 2712 0002 90B0     		sub	sp, sp, #64
 2713              	.LCFI85:
 2714              		.cfi_def_cfa_offset 80
 2715 0004 0646     		mov	r6, r0
1051:application-library/ili9341-lcd/ili9341.c ****   bus_8080_read_register(0xDB, 2, p_read_data);
 2716              		.loc 1 1051 0
 2717 0006 0246     		mov	r2, r0
 2718 0008 0221     		movs	r1, #2
 2719 000a DB20     		movs	r0, #219
 2720              	.LVL185:
 2721 000c FFF7FEFF 		bl	bus_8080_read_register
 2722              	.LVL186:
1052:application-library/ili9341-lcd/ili9341.c ****  
1053:application-library/ili9341-lcd/ili9341.c ****   #if defined ILI9341_DEBUG
1054:application-library/ili9341-lcd/ili9341.c ****   char msg[64];
1055:application-library/ili9341-lcd/ili9341.c ****   sprintf(msg, "- Printing ILI9341 <id2> register value -\n");
ARM GAS  /tmp/ccEto00Y.s 			page 65


 2723              		.loc 1 1055 0
 2724 0010 6C46     		mov	r4, sp
 2725 0012 0C4D     		ldr	r5, .L165
 2726 0014 0FCD     		ldmia	r5!, {r0, r1, r2, r3}
 2727 0016 0FC4     		stmia	r4!, {r0, r1, r2, r3}
 2728 0018 0FCD     		ldmia	r5!, {r0, r1, r2, r3}
 2729 001a 0FC4     		stmia	r4!, {r0, r1, r2, r3}
 2730 001c 95E80700 		ldm	r5, {r0, r1, r2}
 2731 0020 03C4     		stmia	r4!, {r0, r1}
 2732 0022 24F8022B 		strh	r2, [r4], #2	@ movhi
 2733 0026 120C     		lsrs	r2, r2, #16
 2734 0028 2270     		strb	r2, [r4]
1056:application-library/ili9341-lcd/ili9341.c ****   serial_print(msg);
 2735              		.loc 1 1056 0
 2736 002a 6846     		mov	r0, sp
 2737 002c FFF7FEFF 		bl	serial_print
 2738              	.LVL187:
1057:application-library/ili9341-lcd/ili9341.c ****   sprintf(msg, "ID2: %#02x\n", p_read_data[1]); 
 2739              		.loc 1 1057 0
 2740 0030 7278     		ldrb	r2, [r6, #1]	@ zero_extendqisi2
 2741 0032 0549     		ldr	r1, .L165+4
 2742 0034 6846     		mov	r0, sp
 2743 0036 FFF7FEFF 		bl	sprintf
 2744              	.LVL188:
1058:application-library/ili9341-lcd/ili9341.c ****   serial_print(msg);
 2745              		.loc 1 1058 0
 2746 003a 6846     		mov	r0, sp
 2747 003c FFF7FEFF 		bl	serial_print
 2748              	.LVL189:
1059:application-library/ili9341-lcd/ili9341.c ****   #endif
1060:application-library/ili9341-lcd/ili9341.c **** 
1061:application-library/ili9341-lcd/ili9341.c **** }
 2749              		.loc 1 1061 0
 2750 0040 10B0     		add	sp, sp, #64
 2751              	.LCFI86:
 2752              		.cfi_def_cfa_offset 16
 2753              		@ sp needed
 2754 0042 70BD     		pop	{r4, r5, r6, pc}
 2755              	.LVL190:
 2756              	.L166:
 2757              		.align	2
 2758              	.L165:
 2759 0044 00000000 		.word	.LC23
 2760 0048 2C000000 		.word	.LC24
 2761              		.cfi_endproc
 2762              	.LFE198:
 2764              		.section	.text.ili9341_get_id3,"ax",%progbits
 2765              		.align	1
 2766              		.global	ili9341_get_id3
 2767              		.syntax unified
 2768              		.thumb
 2769              		.thumb_func
 2770              		.fpu fpv4-sp-d16
 2772              	ili9341_get_id3:
 2773              	.LFB199:
1062:application-library/ili9341-lcd/ili9341.c **** 
1063:application-library/ili9341-lcd/ili9341.c **** /** 
ARM GAS  /tmp/ccEto00Y.s 			page 66


1064:application-library/ili9341-lcd/ili9341.c ****   * @brief  8.2.48. Read ID3 (DCh)
1065:application-library/ili9341-lcd/ili9341.c ****   * @param  p_read_data Pointer to the array storing data read from ID3 register.
1066:application-library/ili9341-lcd/ili9341.c ****   * @retval None.
1067:application-library/ili9341-lcd/ili9341.c ****   * @note.  p_read_data[0] is expected a dummy byte, ignore it.
1068:application-library/ili9341-lcd/ili9341.c ****   *         At the time of this code development, id3 returns 0x00
1069:application-library/ili9341-lcd/ili9341.c ****   *           even through other register read / write were tested successful.
1070:application-library/ili9341-lcd/ili9341.c ****   *         Since <id3> is defined as the LCD module's driver ID.
1071:application-library/ili9341-lcd/ili9341.c ****   *           some brand may use ILI9341 but never programmed its ID.
1072:application-library/ili9341-lcd/ili9341.c ****   *         In order to do sanity check on fresh connection, use ili9341_get_id4() instead, 
1073:application-library/ili9341-lcd/ili9341.c ****   *           which should return 0x9341 on its third and fourth bytes.
1074:application-library/ili9341-lcd/ili9341.c ****   */
1075:application-library/ili9341-lcd/ili9341.c **** void ili9341_get_id3(uint8_t* p_read_data)
1076:application-library/ili9341-lcd/ili9341.c **** {
 2774              		.loc 1 1076 0
 2775              		.cfi_startproc
 2776              		@ args = 0, pretend = 0, frame = 64
 2777              		@ frame_needed = 0, uses_anonymous_args = 0
 2778              	.LVL191:
 2779 0000 70B5     		push	{r4, r5, r6, lr}
 2780              	.LCFI87:
 2781              		.cfi_def_cfa_offset 16
 2782              		.cfi_offset 4, -16
 2783              		.cfi_offset 5, -12
 2784              		.cfi_offset 6, -8
 2785              		.cfi_offset 14, -4
 2786 0002 90B0     		sub	sp, sp, #64
 2787              	.LCFI88:
 2788              		.cfi_def_cfa_offset 80
 2789 0004 0646     		mov	r6, r0
1077:application-library/ili9341-lcd/ili9341.c ****   bus_8080_read_register(0xDC, 2, p_read_data);
 2790              		.loc 1 1077 0
 2791 0006 0246     		mov	r2, r0
 2792 0008 0221     		movs	r1, #2
 2793 000a DC20     		movs	r0, #220
 2794              	.LVL192:
 2795 000c FFF7FEFF 		bl	bus_8080_read_register
 2796              	.LVL193:
1078:application-library/ili9341-lcd/ili9341.c ****  
1079:application-library/ili9341-lcd/ili9341.c ****   #if defined ILI9341_DEBUG
1080:application-library/ili9341-lcd/ili9341.c ****   char msg[64];
1081:application-library/ili9341-lcd/ili9341.c ****   sprintf(msg, "- Printing ILI9341 <id3> register value -\n");
 2797              		.loc 1 1081 0
 2798 0010 6C46     		mov	r4, sp
 2799 0012 0C4D     		ldr	r5, .L169
 2800 0014 0FCD     		ldmia	r5!, {r0, r1, r2, r3}
 2801 0016 0FC4     		stmia	r4!, {r0, r1, r2, r3}
 2802 0018 0FCD     		ldmia	r5!, {r0, r1, r2, r3}
 2803 001a 0FC4     		stmia	r4!, {r0, r1, r2, r3}
 2804 001c 95E80700 		ldm	r5, {r0, r1, r2}
 2805 0020 03C4     		stmia	r4!, {r0, r1}
 2806 0022 24F8022B 		strh	r2, [r4], #2	@ movhi
 2807 0026 120C     		lsrs	r2, r2, #16
 2808 0028 2270     		strb	r2, [r4]
1082:application-library/ili9341-lcd/ili9341.c ****   serial_print(msg);
 2809              		.loc 1 1082 0
 2810 002a 6846     		mov	r0, sp
 2811 002c FFF7FEFF 		bl	serial_print
ARM GAS  /tmp/ccEto00Y.s 			page 67


 2812              	.LVL194:
1083:application-library/ili9341-lcd/ili9341.c ****   sprintf(msg, "ID3: %#02x\n", p_read_data[1]); 
 2813              		.loc 1 1083 0
 2814 0030 7278     		ldrb	r2, [r6, #1]	@ zero_extendqisi2
 2815 0032 0549     		ldr	r1, .L169+4
 2816 0034 6846     		mov	r0, sp
 2817 0036 FFF7FEFF 		bl	sprintf
 2818              	.LVL195:
1084:application-library/ili9341-lcd/ili9341.c ****   serial_print(msg);
 2819              		.loc 1 1084 0
 2820 003a 6846     		mov	r0, sp
 2821 003c FFF7FEFF 		bl	serial_print
 2822              	.LVL196:
1085:application-library/ili9341-lcd/ili9341.c ****   #endif
1086:application-library/ili9341-lcd/ili9341.c **** }
 2823              		.loc 1 1086 0
 2824 0040 10B0     		add	sp, sp, #64
 2825              	.LCFI89:
 2826              		.cfi_def_cfa_offset 16
 2827              		@ sp needed
 2828 0042 70BD     		pop	{r4, r5, r6, pc}
 2829              	.LVL197:
 2830              	.L170:
 2831              		.align	2
 2832              	.L169:
 2833 0044 00000000 		.word	.LC25
 2834 0048 2C000000 		.word	.LC26
 2835              		.cfi_endproc
 2836              	.LFE199:
 2838              		.section	.text.ili9341_set_power_control1,"ax",%progbits
 2839              		.align	1
 2840              		.global	ili9341_set_power_control1
 2841              		.syntax unified
 2842              		.thumb
 2843              		.thumb_func
 2844              		.fpu fpv4-sp-d16
 2846              	ili9341_set_power_control1:
 2847              	.LFB200:
1087:application-library/ili9341-lcd/ili9341.c **** 
1088:application-library/ili9341-lcd/ili9341.c **** 
1089:application-library/ili9341-lcd/ili9341.c **** 
1090:application-library/ili9341-lcd/ili9341.c **** /* ILI9341 Extended Registers Access --------------------------------------------------------------
1091:application-library/ili9341-lcd/ili9341.c **** /* 8.3.1. RGB Interface Signal Control (B0h) */
1092:application-library/ili9341-lcd/ili9341.c **** void ili9341_rgb_interface_signal_control();
1093:application-library/ili9341-lcd/ili9341.c **** /* 8.3.2. Frame Rate Control (In Normal Mode/Full Colors) (B1h) */
1094:application-library/ili9341-lcd/ili9341.c **** void ili9341_frame_control_normal_mode();
1095:application-library/ili9341-lcd/ili9341.c **** /* 8.3.3. Frame Rate Control (In Idle Mode/8 colors) (B2h) */
1096:application-library/ili9341-lcd/ili9341.c **** void ili9341_frame_control_idle_mode();
1097:application-library/ili9341-lcd/ili9341.c **** /* 8.3.4. Frame Rate control (In Partial Mode/Full Colors) (B3h) */
1098:application-library/ili9341-lcd/ili9341.c **** void ili9341_frame_control_partial_mode();
1099:application-library/ili9341-lcd/ili9341.c **** /* 8.3.5. Display Inversion Control (B4h) */
1100:application-library/ili9341-lcd/ili9341.c **** void ili9341_display_inversion_control();
1101:application-library/ili9341-lcd/ili9341.c **** /* 8.3.6. Blanking Porch Control (B5h) */
1102:application-library/ili9341-lcd/ili9341.c **** void ili9341_blanking_porch_control();
1103:application-library/ili9341-lcd/ili9341.c **** /* 8.3.7. Display Function Control (B6h) */
1104:application-library/ili9341-lcd/ili9341.c **** void ili9341_display_function_control();
1105:application-library/ili9341-lcd/ili9341.c **** /* 8.3.8. Entry Mode Set (B7h) */
ARM GAS  /tmp/ccEto00Y.s 			page 68


1106:application-library/ili9341-lcd/ili9341.c **** void ili9341_entry_mode_set();
1107:application-library/ili9341-lcd/ili9341.c **** /* 8.3.9. Backlight Control 1 (B8h) */
1108:application-library/ili9341-lcd/ili9341.c **** void ili9341_backlight_control_1();
1109:application-library/ili9341-lcd/ili9341.c **** /* 8.3.10. Backlight Control 2 (B9h) */
1110:application-library/ili9341-lcd/ili9341.c **** void ili9341_backlight_control_2();
1111:application-library/ili9341-lcd/ili9341.c **** /* 8.3.11. Backlight Control 3 (BAh) */
1112:application-library/ili9341-lcd/ili9341.c **** void ili9341_backlight_control_3();
1113:application-library/ili9341-lcd/ili9341.c **** /* 8.3.12. Backlight Control 4 (BBh) */
1114:application-library/ili9341-lcd/ili9341.c **** void ili9341_backlight_control_4();
1115:application-library/ili9341-lcd/ili9341.c **** /* 8.3.13. Backlight Control 5 (BCh) */
1116:application-library/ili9341-lcd/ili9341.c **** void ili9341_backlight_control_5();
1117:application-library/ili9341-lcd/ili9341.c **** /* 8.3.14. Backlight Control 7 (BEh) */
1118:application-library/ili9341-lcd/ili9341.c **** void ili9341_backlight_control_7();
1119:application-library/ili9341-lcd/ili9341.c **** /* 8.3.15. Backlight Control 8 (BFh)*/
1120:application-library/ili9341-lcd/ili9341.c **** void ili9341_backlight_control_8();
1121:application-library/ili9341-lcd/ili9341.c **** 
1122:application-library/ili9341-lcd/ili9341.c **** /* 8.3.16. Power Control 1 (C0h) */ 
1123:application-library/ili9341-lcd/ili9341.c **** void ili9341_set_power_control1()
1124:application-library/ili9341-lcd/ili9341.c **** {
 2848              		.loc 1 1124 0
 2849              		.cfi_startproc
 2850              		@ args = 0, pretend = 0, frame = 8
 2851              		@ frame_needed = 0, uses_anonymous_args = 0
 2852 0000 00B5     		push	{lr}
 2853              	.LCFI90:
 2854              		.cfi_def_cfa_offset 4
 2855              		.cfi_offset 14, -4
 2856 0002 83B0     		sub	sp, sp, #12
 2857              	.LCFI91:
 2858              		.cfi_def_cfa_offset 16
1125:application-library/ili9341-lcd/ili9341.c ****   uint8_t p_param[1] = {0x23};
 2859              		.loc 1 1125 0
 2860 0004 02AA     		add	r2, sp, #8
 2861 0006 2323     		movs	r3, #35
 2862 0008 02F8043D 		strb	r3, [r2, #-4]!
1126:application-library/ili9341-lcd/ili9341.c ****   bus_8080_write_register(0xC0, 1, p_param);
 2863              		.loc 1 1126 0
 2864 000c 0121     		movs	r1, #1
 2865 000e C020     		movs	r0, #192
 2866 0010 FFF7FEFF 		bl	bus_8080_write_register
 2867              	.LVL198:
1127:application-library/ili9341-lcd/ili9341.c **** }
 2868              		.loc 1 1127 0
 2869 0014 03B0     		add	sp, sp, #12
 2870              	.LCFI92:
 2871              		.cfi_def_cfa_offset 4
 2872              		@ sp needed
 2873 0016 5DF804FB 		ldr	pc, [sp], #4
 2874              		.cfi_endproc
 2875              	.LFE200:
 2877              		.section	.text.ili9341_set_power_control2,"ax",%progbits
 2878              		.align	1
 2879              		.global	ili9341_set_power_control2
 2880              		.syntax unified
 2881              		.thumb
 2882              		.thumb_func
 2883              		.fpu fpv4-sp-d16
ARM GAS  /tmp/ccEto00Y.s 			page 69


 2885              	ili9341_set_power_control2:
 2886              	.LFB201:
1128:application-library/ili9341-lcd/ili9341.c **** 
1129:application-library/ili9341-lcd/ili9341.c **** /* 8.3.17. Power Control 2 (C1h) */ 
1130:application-library/ili9341-lcd/ili9341.c **** void ili9341_set_power_control2()
1131:application-library/ili9341-lcd/ili9341.c **** {
 2887              		.loc 1 1131 0
 2888              		.cfi_startproc
 2889              		@ args = 0, pretend = 0, frame = 8
 2890              		@ frame_needed = 0, uses_anonymous_args = 0
 2891 0000 00B5     		push	{lr}
 2892              	.LCFI93:
 2893              		.cfi_def_cfa_offset 4
 2894              		.cfi_offset 14, -4
 2895 0002 83B0     		sub	sp, sp, #12
 2896              	.LCFI94:
 2897              		.cfi_def_cfa_offset 16
1132:application-library/ili9341-lcd/ili9341.c ****   uint8_t p_param[1] = {0x10};
 2898              		.loc 1 1132 0
 2899 0004 02AA     		add	r2, sp, #8
 2900 0006 1023     		movs	r3, #16
 2901 0008 02F8043D 		strb	r3, [r2, #-4]!
1133:application-library/ili9341-lcd/ili9341.c ****   bus_8080_write_register(0xC1, 1, p_param);
 2902              		.loc 1 1133 0
 2903 000c 0121     		movs	r1, #1
 2904 000e C120     		movs	r0, #193
 2905 0010 FFF7FEFF 		bl	bus_8080_write_register
 2906              	.LVL199:
1134:application-library/ili9341-lcd/ili9341.c **** }
 2907              		.loc 1 1134 0
 2908 0014 03B0     		add	sp, sp, #12
 2909              	.LCFI95:
 2910              		.cfi_def_cfa_offset 4
 2911              		@ sp needed
 2912 0016 5DF804FB 		ldr	pc, [sp], #4
 2913              		.cfi_endproc
 2914              	.LFE201:
 2916              		.section	.text.ili9341_set_vcom_control1,"ax",%progbits
 2917              		.align	1
 2918              		.global	ili9341_set_vcom_control1
 2919              		.syntax unified
 2920              		.thumb
 2921              		.thumb_func
 2922              		.fpu fpv4-sp-d16
 2924              	ili9341_set_vcom_control1:
 2925              	.LFB202:
1135:application-library/ili9341-lcd/ili9341.c **** 
1136:application-library/ili9341-lcd/ili9341.c **** /* 8.3.18. VCOM Control 1(C5h) */ 
1137:application-library/ili9341-lcd/ili9341.c **** void ili9341_set_vcom_control1()
1138:application-library/ili9341-lcd/ili9341.c **** {
 2926              		.loc 1 1138 0
 2927              		.cfi_startproc
 2928              		@ args = 0, pretend = 0, frame = 8
 2929              		@ frame_needed = 0, uses_anonymous_args = 0
 2930 0000 00B5     		push	{lr}
 2931              	.LCFI96:
 2932              		.cfi_def_cfa_offset 4
ARM GAS  /tmp/ccEto00Y.s 			page 70


 2933              		.cfi_offset 14, -4
 2934 0002 83B0     		sub	sp, sp, #12
 2935              	.LCFI97:
 2936              		.cfi_def_cfa_offset 16
1139:application-library/ili9341-lcd/ili9341.c ****   uint8_t p_param[2] = {0x3E, 0x28};
 2937              		.loc 1 1139 0
 2938 0004 054B     		ldr	r3, .L177
 2939 0006 1B88     		ldrh	r3, [r3]
 2940 0008 02AA     		add	r2, sp, #8
 2941 000a 22F8043D 		strh	r3, [r2, #-4]!	@ movhi
1140:application-library/ili9341-lcd/ili9341.c ****   bus_8080_write_register(0xC5, 2, p_param);
 2942              		.loc 1 1140 0
 2943 000e 0221     		movs	r1, #2
 2944 0010 C520     		movs	r0, #197
 2945 0012 FFF7FEFF 		bl	bus_8080_write_register
 2946              	.LVL200:
1141:application-library/ili9341-lcd/ili9341.c **** }
 2947              		.loc 1 1141 0
 2948 0016 03B0     		add	sp, sp, #12
 2949              	.LCFI98:
 2950              		.cfi_def_cfa_offset 4
 2951              		@ sp needed
 2952 0018 5DF804FB 		ldr	pc, [sp], #4
 2953              	.L178:
 2954              		.align	2
 2955              	.L177:
 2956 001c 00000000 		.word	.LANCHOR0
 2957              		.cfi_endproc
 2958              	.LFE202:
 2960              		.section	.text.ili9341_set_vcom_control2,"ax",%progbits
 2961              		.align	1
 2962              		.global	ili9341_set_vcom_control2
 2963              		.syntax unified
 2964              		.thumb
 2965              		.thumb_func
 2966              		.fpu fpv4-sp-d16
 2968              	ili9341_set_vcom_control2:
 2969              	.LFB203:
1142:application-library/ili9341-lcd/ili9341.c **** 
1143:application-library/ili9341-lcd/ili9341.c **** /* 8.3.19. VCOM Control 2(C7h) */ 
1144:application-library/ili9341-lcd/ili9341.c **** void ili9341_set_vcom_control2()
1145:application-library/ili9341-lcd/ili9341.c **** {
 2970              		.loc 1 1145 0
 2971              		.cfi_startproc
 2972              		@ args = 0, pretend = 0, frame = 8
 2973              		@ frame_needed = 0, uses_anonymous_args = 0
 2974 0000 00B5     		push	{lr}
 2975              	.LCFI99:
 2976              		.cfi_def_cfa_offset 4
 2977              		.cfi_offset 14, -4
 2978 0002 83B0     		sub	sp, sp, #12
 2979              	.LCFI100:
 2980              		.cfi_def_cfa_offset 16
1146:application-library/ili9341-lcd/ili9341.c ****   uint8_t p_param[1] = {0x86};
 2981              		.loc 1 1146 0
 2982 0004 02AA     		add	r2, sp, #8
 2983 0006 8623     		movs	r3, #134
ARM GAS  /tmp/ccEto00Y.s 			page 71


 2984 0008 02F8043D 		strb	r3, [r2, #-4]!
1147:application-library/ili9341-lcd/ili9341.c ****   bus_8080_write_register(0xC7, 1, p_param);
 2985              		.loc 1 1147 0
 2986 000c 0121     		movs	r1, #1
 2987 000e C720     		movs	r0, #199
 2988 0010 FFF7FEFF 		bl	bus_8080_write_register
 2989              	.LVL201:
1148:application-library/ili9341-lcd/ili9341.c **** }
 2990              		.loc 1 1148 0
 2991 0014 03B0     		add	sp, sp, #12
 2992              	.LCFI101:
 2993              		.cfi_def_cfa_offset 4
 2994              		@ sp needed
 2995 0016 5DF804FB 		ldr	pc, [sp], #4
 2996              		.cfi_endproc
 2997              	.LFE203:
 2999              		.section	.text.ili9341_get_id4,"ax",%progbits
 3000              		.align	1
 3001              		.global	ili9341_get_id4
 3002              		.syntax unified
 3003              		.thumb
 3004              		.thumb_func
 3005              		.fpu fpv4-sp-d16
 3007              	ili9341_get_id4:
 3008              	.LFB204:
1149:application-library/ili9341-lcd/ili9341.c **** 
1150:application-library/ili9341-lcd/ili9341.c **** /* 8.3.20. NV Memory Write (D0h) */ 
1151:application-library/ili9341-lcd/ili9341.c **** void ili9341_nv_memory_write();
1152:application-library/ili9341-lcd/ili9341.c **** /* 8.3.21. NV Memory Protection Key (D1h) */
1153:application-library/ili9341-lcd/ili9341.c **** void ili9341_nv_memory_protection_key();
1154:application-library/ili9341-lcd/ili9341.c **** /* 8.3.22. NV Memory Status Read (D2h) */
1155:application-library/ili9341-lcd/ili9341.c **** void ili9341_nv_memory_status_read();
1156:application-library/ili9341-lcd/ili9341.c **** 
1157:application-library/ili9341-lcd/ili9341.c **** 
1158:application-library/ili9341-lcd/ili9341.c **** /**
1159:application-library/ili9341-lcd/ili9341.c ****   * @brief 8.3.23. Read ID4 (D3h) 
1160:application-library/ili9341-lcd/ili9341.c ****   *        Read LCD Controller Chip (ILI9341) ID. 
1161:application-library/ili9341-lcd/ili9341.c ****   * @note  It has been tested that some display modules has all manufacturer/version set to 0.
1162:application-library/ili9341-lcd/ili9341.c ****   *        Thus a more trustworthy way to test 8080 Read is to read the controller IC (ILI9341)'s I
1163:application-library/ili9341-lcd/ili9341.c ****   */
1164:application-library/ili9341-lcd/ili9341.c **** void ili9341_get_id4(uint8_t* p_read_data) 
1165:application-library/ili9341-lcd/ili9341.c **** {
 3009              		.loc 1 1165 0
 3010              		.cfi_startproc
 3011              		@ args = 0, pretend = 0, frame = 64
 3012              		@ frame_needed = 0, uses_anonymous_args = 0
 3013              	.LVL202:
 3014 0000 70B5     		push	{r4, r5, r6, lr}
 3015              	.LCFI102:
 3016              		.cfi_def_cfa_offset 16
 3017              		.cfi_offset 4, -16
 3018              		.cfi_offset 5, -12
 3019              		.cfi_offset 6, -8
 3020              		.cfi_offset 14, -4
 3021 0002 92B0     		sub	sp, sp, #72
 3022              	.LCFI103:
 3023              		.cfi_def_cfa_offset 88
ARM GAS  /tmp/ccEto00Y.s 			page 72


 3024 0004 0646     		mov	r6, r0
1166:application-library/ili9341-lcd/ili9341.c ****   bus_8080_read_register(0xD3, 4, p_read_data);
 3025              		.loc 1 1166 0
 3026 0006 0246     		mov	r2, r0
 3027 0008 0421     		movs	r1, #4
 3028 000a D320     		movs	r0, #211
 3029              	.LVL203:
 3030 000c FFF7FEFF 		bl	bus_8080_read_register
 3031              	.LVL204:
1167:application-library/ili9341-lcd/ili9341.c ****  
1168:application-library/ili9341-lcd/ili9341.c ****   #if defined ILI9341_DEBUG
1169:application-library/ili9341-lcd/ili9341.c ****   char msg[64];
1170:application-library/ili9341-lcd/ili9341.c ****   sprintf(msg, "- Printing id4 register value -\n");
 3032              		.loc 1 1170 0
 3033 0010 02AC     		add	r4, sp, #8
 3034 0012 0B4D     		ldr	r5, .L183
 3035 0014 0FCD     		ldmia	r5!, {r0, r1, r2, r3}
 3036 0016 0FC4     		stmia	r4!, {r0, r1, r2, r3}
 3037 0018 0FCD     		ldmia	r5!, {r0, r1, r2, r3}
 3038 001a 0FC4     		stmia	r4!, {r0, r1, r2, r3}
 3039 001c 2B68     		ldr	r3, [r5]
 3040 001e 2370     		strb	r3, [r4]
1171:application-library/ili9341-lcd/ili9341.c ****   serial_print(msg);
 3041              		.loc 1 1171 0
 3042 0020 02A8     		add	r0, sp, #8
 3043 0022 FFF7FEFF 		bl	serial_print
 3044              	.LVL205:
1172:application-library/ili9341-lcd/ili9341.c ****   sprintf(msg, "ili9341 ic version: %d \nIC model: 0x%02x%02x\n", p_read_data[1], p_read_data[2], p
 3045              		.loc 1 1172 0
 3046 0026 7278     		ldrb	r2, [r6, #1]	@ zero_extendqisi2
 3047 0028 B378     		ldrb	r3, [r6, #2]	@ zero_extendqisi2
 3048 002a F178     		ldrb	r1, [r6, #3]	@ zero_extendqisi2
 3049 002c 0091     		str	r1, [sp]
 3050 002e 0549     		ldr	r1, .L183+4
 3051 0030 02A8     		add	r0, sp, #8
 3052 0032 FFF7FEFF 		bl	sprintf
 3053              	.LVL206:
1173:application-library/ili9341-lcd/ili9341.c ****   serial_print(msg);
 3054              		.loc 1 1173 0
 3055 0036 02A8     		add	r0, sp, #8
 3056 0038 FFF7FEFF 		bl	serial_print
 3057              	.LVL207:
1174:application-library/ili9341-lcd/ili9341.c ****   #endif
1175:application-library/ili9341-lcd/ili9341.c **** }
 3058              		.loc 1 1175 0
 3059 003c 12B0     		add	sp, sp, #72
 3060              	.LCFI104:
 3061              		.cfi_def_cfa_offset 16
 3062              		@ sp needed
 3063 003e 70BD     		pop	{r4, r5, r6, pc}
 3064              	.LVL208:
 3065              	.L184:
 3066              		.align	2
 3067              	.L183:
 3068 0040 00000000 		.word	.LC27
 3069 0044 24000000 		.word	.LC28
 3070              		.cfi_endproc
ARM GAS  /tmp/ccEto00Y.s 			page 73


 3071              	.LFE204:
 3073              		.section	.text.ili9341_set_power_control_a,"ax",%progbits
 3074              		.align	1
 3075              		.global	ili9341_set_power_control_a
 3076              		.syntax unified
 3077              		.thumb
 3078              		.thumb_func
 3079              		.fpu fpv4-sp-d16
 3081              	ili9341_set_power_control_a:
 3082              	.LFB205:
1176:application-library/ili9341-lcd/ili9341.c **** 
1177:application-library/ili9341-lcd/ili9341.c **** /* 8.3.24. Positive Gamma Correction (E0h) */
1178:application-library/ili9341-lcd/ili9341.c **** void ili9341_positive_gamma_correction();
1179:application-library/ili9341-lcd/ili9341.c **** /* 8.3.25. Negative Gamma Correction (E1h) */
1180:application-library/ili9341-lcd/ili9341.c **** void ili9341_negative_gamma_correction();
1181:application-library/ili9341-lcd/ili9341.c **** /* 8.3.26. Digital Gamma Control 1 (E2h) */
1182:application-library/ili9341-lcd/ili9341.c **** void ili9341_digital_gamma_control_1();
1183:application-library/ili9341-lcd/ili9341.c **** /* 8.3.27. Digital Gamma Control 2(E3h) */
1184:application-library/ili9341-lcd/ili9341.c **** void ili9341_digital_gamma_control_2();
1185:application-library/ili9341-lcd/ili9341.c **** /* 8.3.28. Interface Control (F6h)  */
1186:application-library/ili9341-lcd/ili9341.c **** void ili9341_interface_control();
1187:application-library/ili9341-lcd/ili9341.c **** 
1188:application-library/ili9341-lcd/ili9341.c **** /* 8.4.1 Power control A (CBh) */
1189:application-library/ili9341-lcd/ili9341.c **** /** 
1190:application-library/ili9341-lcd/ili9341.c ****   * @brief Set Power Control A. 
1191:application-library/ili9341-lcd/ili9341.c ****   */
1192:application-library/ili9341-lcd/ili9341.c **** void ili9341_set_power_control_a()
1193:application-library/ili9341-lcd/ili9341.c **** {
 3083              		.loc 1 1193 0
 3084              		.cfi_startproc
 3085              		@ args = 0, pretend = 0, frame = 8
 3086              		@ frame_needed = 0, uses_anonymous_args = 0
 3087 0000 00B5     		push	{lr}
 3088              	.LCFI105:
 3089              		.cfi_def_cfa_offset 4
 3090              		.cfi_offset 14, -4
 3091 0002 83B0     		sub	sp, sp, #12
 3092              	.LCFI106:
 3093              		.cfi_def_cfa_offset 16
1194:application-library/ili9341-lcd/ili9341.c ****   /* Vcore = 1.6V DDVDH = 5.6V. */
1195:application-library/ili9341-lcd/ili9341.c ****   uint8_t p_param[5] = {0x39, 0x2C, 0x00, 0x34, 0x02};
 3094              		.loc 1 1195 0
 3095 0004 064B     		ldr	r3, .L187
 3096 0006 93E80300 		ldm	r3, {r0, r1}
 3097 000a 0090     		str	r0, [sp]
 3098 000c 8DF80410 		strb	r1, [sp, #4]
1196:application-library/ili9341-lcd/ili9341.c ****   bus_8080_write_register(0xCB, 5, p_param);
 3099              		.loc 1 1196 0
 3100 0010 6A46     		mov	r2, sp
 3101 0012 0521     		movs	r1, #5
 3102 0014 CB20     		movs	r0, #203
 3103 0016 FFF7FEFF 		bl	bus_8080_write_register
 3104              	.LVL209:
1197:application-library/ili9341-lcd/ili9341.c **** }
 3105              		.loc 1 1197 0
 3106 001a 03B0     		add	sp, sp, #12
 3107              	.LCFI107:
ARM GAS  /tmp/ccEto00Y.s 			page 74


 3108              		.cfi_def_cfa_offset 4
 3109              		@ sp needed
 3110 001c 5DF804FB 		ldr	pc, [sp], #4
 3111              	.L188:
 3112              		.align	2
 3113              	.L187:
 3114 0020 04000000 		.word	.LANCHOR0+4
 3115              		.cfi_endproc
 3116              	.LFE205:
 3118              		.section	.text.ili9341_set_power_control_b,"ax",%progbits
 3119              		.align	1
 3120              		.global	ili9341_set_power_control_b
 3121              		.syntax unified
 3122              		.thumb
 3123              		.thumb_func
 3124              		.fpu fpv4-sp-d16
 3126              	ili9341_set_power_control_b:
 3127              	.LFB206:
1198:application-library/ili9341-lcd/ili9341.c **** 
1199:application-library/ili9341-lcd/ili9341.c **** /* 8.4.2 Power control B (CFh) */ 
1200:application-library/ili9341-lcd/ili9341.c **** void ili9341_set_power_control_b()
1201:application-library/ili9341-lcd/ili9341.c **** {
 3128              		.loc 1 1201 0
 3129              		.cfi_startproc
 3130              		@ args = 0, pretend = 0, frame = 8
 3131              		@ frame_needed = 0, uses_anonymous_args = 0
 3132 0000 00B5     		push	{lr}
 3133              	.LCFI108:
 3134              		.cfi_def_cfa_offset 4
 3135              		.cfi_offset 14, -4
 3136 0002 83B0     		sub	sp, sp, #12
 3137              	.LCFI109:
 3138              		.cfi_def_cfa_offset 16
1202:application-library/ili9341-lcd/ili9341.c ****   uint8_t p_param[3] = {0x00, 0xC1, 0x30};
 3139              		.loc 1 1202 0
 3140 0004 074B     		ldr	r3, .L191
 3141 0006 DB68     		ldr	r3, [r3, #12]
 3142 0008 ADF80430 		strh	r3, [sp, #4]	@ movhi
 3143 000c 1B0C     		lsrs	r3, r3, #16
 3144 000e 8DF80630 		strb	r3, [sp, #6]
1203:application-library/ili9341-lcd/ili9341.c ****   bus_8080_write_register(0xCF, 3, p_param);
 3145              		.loc 1 1203 0
 3146 0012 01AA     		add	r2, sp, #4
 3147 0014 0321     		movs	r1, #3
 3148 0016 CF20     		movs	r0, #207
 3149 0018 FFF7FEFF 		bl	bus_8080_write_register
 3150              	.LVL210:
1204:application-library/ili9341-lcd/ili9341.c **** }
 3151              		.loc 1 1204 0
 3152 001c 03B0     		add	sp, sp, #12
 3153              	.LCFI110:
 3154              		.cfi_def_cfa_offset 4
 3155              		@ sp needed
 3156 001e 5DF804FB 		ldr	pc, [sp], #4
 3157              	.L192:
 3158 0022 00BF     		.align	2
 3159              	.L191:
ARM GAS  /tmp/ccEto00Y.s 			page 75


 3160 0024 00000000 		.word	.LANCHOR0
 3161              		.cfi_endproc
 3162              	.LFE206:
 3164              		.section	.text.ili9341_set_driver_timing_control_a,"ax",%progbits
 3165              		.align	1
 3166              		.global	ili9341_set_driver_timing_control_a
 3167              		.syntax unified
 3168              		.thumb
 3169              		.thumb_func
 3170              		.fpu fpv4-sp-d16
 3172              	ili9341_set_driver_timing_control_a:
 3173              	.LFB207:
1205:application-library/ili9341-lcd/ili9341.c **** 
1206:application-library/ili9341-lcd/ili9341.c **** /* 8.4.3 Driver timing control A (E8h) */ 
1207:application-library/ili9341-lcd/ili9341.c **** void ili9341_set_driver_timing_control_a()
1208:application-library/ili9341-lcd/ili9341.c **** {
 3174              		.loc 1 1208 0
 3175              		.cfi_startproc
 3176              		@ args = 0, pretend = 0, frame = 8
 3177              		@ frame_needed = 0, uses_anonymous_args = 0
 3178 0000 00B5     		push	{lr}
 3179              	.LCFI111:
 3180              		.cfi_def_cfa_offset 4
 3181              		.cfi_offset 14, -4
 3182 0002 83B0     		sub	sp, sp, #12
 3183              	.LCFI112:
 3184              		.cfi_def_cfa_offset 16
1209:application-library/ili9341-lcd/ili9341.c ****   uint8_t p_param[3] = {0x85, 0x00, 0x78};
 3185              		.loc 1 1209 0
 3186 0004 074B     		ldr	r3, .L195
 3187 0006 1B69     		ldr	r3, [r3, #16]
 3188 0008 ADF80430 		strh	r3, [sp, #4]	@ movhi
 3189 000c 1B0C     		lsrs	r3, r3, #16
 3190 000e 8DF80630 		strb	r3, [sp, #6]
1210:application-library/ili9341-lcd/ili9341.c ****   bus_8080_write_register(0xE8, 3, p_param);
 3191              		.loc 1 1210 0
 3192 0012 01AA     		add	r2, sp, #4
 3193 0014 0321     		movs	r1, #3
 3194 0016 E820     		movs	r0, #232
 3195 0018 FFF7FEFF 		bl	bus_8080_write_register
 3196              	.LVL211:
1211:application-library/ili9341-lcd/ili9341.c **** }
 3197              		.loc 1 1211 0
 3198 001c 03B0     		add	sp, sp, #12
 3199              	.LCFI113:
 3200              		.cfi_def_cfa_offset 4
 3201              		@ sp needed
 3202 001e 5DF804FB 		ldr	pc, [sp], #4
 3203              	.L196:
 3204 0022 00BF     		.align	2
 3205              	.L195:
 3206 0024 00000000 		.word	.LANCHOR0
 3207              		.cfi_endproc
 3208              	.LFE207:
 3210              		.section	.text.ili9341_set_driver_timing_control_b,"ax",%progbits
 3211              		.align	1
 3212              		.global	ili9341_set_driver_timing_control_b
ARM GAS  /tmp/ccEto00Y.s 			page 76


 3213              		.syntax unified
 3214              		.thumb
 3215              		.thumb_func
 3216              		.fpu fpv4-sp-d16
 3218              	ili9341_set_driver_timing_control_b:
 3219              	.LFB208:
1212:application-library/ili9341-lcd/ili9341.c **** 
1213:application-library/ili9341-lcd/ili9341.c **** 
1214:application-library/ili9341-lcd/ili9341.c **** /* 8.4.5 Driver timing control B (EAh) */ 
1215:application-library/ili9341-lcd/ili9341.c **** void ili9341_set_driver_timing_control_b()
1216:application-library/ili9341-lcd/ili9341.c **** {
 3220              		.loc 1 1216 0
 3221              		.cfi_startproc
 3222              		@ args = 0, pretend = 0, frame = 8
 3223              		@ frame_needed = 0, uses_anonymous_args = 0
 3224 0000 00B5     		push	{lr}
 3225              	.LCFI114:
 3226              		.cfi_def_cfa_offset 4
 3227              		.cfi_offset 14, -4
 3228 0002 83B0     		sub	sp, sp, #12
 3229              	.LCFI115:
 3230              		.cfi_def_cfa_offset 16
1217:application-library/ili9341-lcd/ili9341.c **** 
1218:application-library/ili9341-lcd/ili9341.c ****   uint8_t p_param[2] = {0x00, 0x00};
 3231              		.loc 1 1218 0
 3232 0004 0023     		movs	r3, #0
 3233 0006 8DF80430 		strb	r3, [sp, #4]
 3234 000a 8DF80530 		strb	r3, [sp, #5]
1219:application-library/ili9341-lcd/ili9341.c ****   bus_8080_write_register(0xEA, 2, p_param);
 3235              		.loc 1 1219 0
 3236 000e 01AA     		add	r2, sp, #4
 3237 0010 0221     		movs	r1, #2
 3238 0012 EA20     		movs	r0, #234
 3239 0014 FFF7FEFF 		bl	bus_8080_write_register
 3240              	.LVL212:
1220:application-library/ili9341-lcd/ili9341.c **** }
 3241              		.loc 1 1220 0
 3242 0018 03B0     		add	sp, sp, #12
 3243              	.LCFI116:
 3244              		.cfi_def_cfa_offset 4
 3245              		@ sp needed
 3246 001a 5DF804FB 		ldr	pc, [sp], #4
 3247              		.cfi_endproc
 3248              	.LFE208:
 3250              		.section	.text.ili9341_set_poweron_sequence_control,"ax",%progbits
 3251              		.align	1
 3252              		.global	ili9341_set_poweron_sequence_control
 3253              		.syntax unified
 3254              		.thumb
 3255              		.thumb_func
 3256              		.fpu fpv4-sp-d16
 3258              	ili9341_set_poweron_sequence_control:
 3259              	.LFB209:
1221:application-library/ili9341-lcd/ili9341.c **** 
1222:application-library/ili9341-lcd/ili9341.c **** /* 8.4.6 Power on sequence control (EDh) */ 
1223:application-library/ili9341-lcd/ili9341.c **** void ili9341_set_poweron_sequence_control()
1224:application-library/ili9341-lcd/ili9341.c **** {
ARM GAS  /tmp/ccEto00Y.s 			page 77


 3260              		.loc 1 1224 0
 3261              		.cfi_startproc
 3262              		@ args = 0, pretend = 0, frame = 0
 3263              		@ frame_needed = 0, uses_anonymous_args = 0
 3264              		@ link register save eliminated.
 3265 0000 7047     		bx	lr
 3266              		.cfi_endproc
 3267              	.LFE209:
 3269              		.section	.text.ili9341_enable_3G,"ax",%progbits
 3270              		.align	1
 3271              		.global	ili9341_enable_3G
 3272              		.syntax unified
 3273              		.thumb
 3274              		.thumb_func
 3275              		.fpu fpv4-sp-d16
 3277              	ili9341_enable_3G:
 3278              	.LFB210:
1225:application-library/ili9341-lcd/ili9341.c **** 
1226:application-library/ili9341-lcd/ili9341.c **** }
1227:application-library/ili9341-lcd/ili9341.c **** /* 8.4.7 Enable 3G (F2h) */
1228:application-library/ili9341-lcd/ili9341.c **** void ili9341_enable_3G()
1229:application-library/ili9341-lcd/ili9341.c **** {
 3279              		.loc 1 1229 0
 3280              		.cfi_startproc
 3281              		@ args = 0, pretend = 0, frame = 0
 3282              		@ frame_needed = 0, uses_anonymous_args = 0
 3283              		@ link register save eliminated.
 3284 0000 7047     		bx	lr
 3285              		.cfi_endproc
 3286              	.LFE210:
 3288              		.section	.text.ili9341_set_frame_rate_control,"ax",%progbits
 3289              		.align	1
 3290              		.global	ili9341_set_frame_rate_control
 3291              		.syntax unified
 3292              		.thumb
 3293              		.thumb_func
 3294              		.fpu fpv4-sp-d16
 3296              	ili9341_set_frame_rate_control:
 3297              	.LFB211:
1230:application-library/ili9341-lcd/ili9341.c **** 
1231:application-library/ili9341-lcd/ili9341.c **** }
1232:application-library/ili9341-lcd/ili9341.c **** 
1233:application-library/ili9341-lcd/ili9341.c **** void ili9341_set_frame_rate_control()
1234:application-library/ili9341-lcd/ili9341.c **** {
 3298              		.loc 1 1234 0
 3299              		.cfi_startproc
 3300              		@ args = 0, pretend = 0, frame = 8
 3301              		@ frame_needed = 0, uses_anonymous_args = 0
 3302              		.loc 1 1234 0
 3303 0000 00B5     		push	{lr}
 3304              	.LCFI117:
 3305              		.cfi_def_cfa_offset 4
 3306              		.cfi_offset 14, -4
 3307 0002 83B0     		sub	sp, sp, #12
 3308              	.LCFI118:
 3309              		.cfi_def_cfa_offset 16
1235:application-library/ili9341-lcd/ili9341.c ****   uint8_t p_param[2] = {0x00, 0x10};
ARM GAS  /tmp/ccEto00Y.s 			page 78


 3310              		.loc 1 1235 0
 3311 0004 0023     		movs	r3, #0
 3312 0006 8DF80430 		strb	r3, [sp, #4]
 3313 000a 1023     		movs	r3, #16
 3314 000c 8DF80530 		strb	r3, [sp, #5]
1236:application-library/ili9341-lcd/ili9341.c ****   bus_8080_write_register(0xB1, 2, p_param);
 3315              		.loc 1 1236 0
 3316 0010 01AA     		add	r2, sp, #4
 3317 0012 0221     		movs	r1, #2
 3318 0014 B120     		movs	r0, #177
 3319 0016 FFF7FEFF 		bl	bus_8080_write_register
 3320              	.LVL213:
1237:application-library/ili9341-lcd/ili9341.c **** }
 3321              		.loc 1 1237 0
 3322 001a 03B0     		add	sp, sp, #12
 3323              	.LCFI119:
 3324              		.cfi_def_cfa_offset 4
 3325              		@ sp needed
 3326 001c 5DF804FB 		ldr	pc, [sp], #4
 3327              		.cfi_endproc
 3328              	.LFE211:
 3330              		.section	.text.ili9341_set_display_function_control,"ax",%progbits
 3331              		.align	1
 3332              		.global	ili9341_set_display_function_control
 3333              		.syntax unified
 3334              		.thumb
 3335              		.thumb_func
 3336              		.fpu fpv4-sp-d16
 3338              	ili9341_set_display_function_control:
 3339              	.LFB212:
1238:application-library/ili9341-lcd/ili9341.c **** 
1239:application-library/ili9341-lcd/ili9341.c **** void ili9341_set_display_function_control()
1240:application-library/ili9341-lcd/ili9341.c **** {
 3340              		.loc 1 1240 0
 3341              		.cfi_startproc
 3342              		@ args = 0, pretend = 0, frame = 8
 3343              		@ frame_needed = 0, uses_anonymous_args = 0
 3344 0000 00B5     		push	{lr}
 3345              	.LCFI120:
 3346              		.cfi_def_cfa_offset 4
 3347              		.cfi_offset 14, -4
 3348 0002 83B0     		sub	sp, sp, #12
 3349              	.LCFI121:
 3350              		.cfi_def_cfa_offset 16
1241:application-library/ili9341-lcd/ili9341.c ****   uint8_t p_param[3] = {0x08, 0x82, 0x27};
 3351              		.loc 1 1241 0
 3352 0004 074B     		ldr	r3, .L205
 3353 0006 5B69     		ldr	r3, [r3, #20]
 3354 0008 ADF80430 		strh	r3, [sp, #4]	@ movhi
 3355 000c 1B0C     		lsrs	r3, r3, #16
 3356 000e 8DF80630 		strb	r3, [sp, #6]
1242:application-library/ili9341-lcd/ili9341.c ****   bus_8080_write_register(0xB6, 3, p_param);
 3357              		.loc 1 1242 0
 3358 0012 01AA     		add	r2, sp, #4
 3359 0014 0321     		movs	r1, #3
 3360 0016 B620     		movs	r0, #182
 3361 0018 FFF7FEFF 		bl	bus_8080_write_register
ARM GAS  /tmp/ccEto00Y.s 			page 79


 3362              	.LVL214:
1243:application-library/ili9341-lcd/ili9341.c **** }
 3363              		.loc 1 1243 0
 3364 001c 03B0     		add	sp, sp, #12
 3365              	.LCFI122:
 3366              		.cfi_def_cfa_offset 4
 3367              		@ sp needed
 3368 001e 5DF804FB 		ldr	pc, [sp], #4
 3369              	.L206:
 3370 0022 00BF     		.align	2
 3371              	.L205:
 3372 0024 00000000 		.word	.LANCHOR0
 3373              		.cfi_endproc
 3374              	.LFE212:
 3376              		.section	.text.ili9341_set_poweron_sequence_control_b,"ax",%progbits
 3377              		.align	1
 3378              		.global	ili9341_set_poweron_sequence_control_b
 3379              		.syntax unified
 3380              		.thumb
 3381              		.thumb_func
 3382              		.fpu fpv4-sp-d16
 3384              	ili9341_set_poweron_sequence_control_b:
 3385              	.LFB213:
1244:application-library/ili9341-lcd/ili9341.c **** 
1245:application-library/ili9341-lcd/ili9341.c **** 
1246:application-library/ili9341-lcd/ili9341.c **** 
1247:application-library/ili9341-lcd/ili9341.c **** void ili9341_set_poweron_sequence_control_b()
1248:application-library/ili9341-lcd/ili9341.c **** {
 3386              		.loc 1 1248 0
 3387              		.cfi_startproc
 3388              		@ args = 0, pretend = 0, frame = 8
 3389              		@ frame_needed = 0, uses_anonymous_args = 0
 3390 0000 00B5     		push	{lr}
 3391              	.LCFI123:
 3392              		.cfi_def_cfa_offset 4
 3393              		.cfi_offset 14, -4
 3394 0002 83B0     		sub	sp, sp, #12
 3395              	.LCFI124:
 3396              		.cfi_def_cfa_offset 16
1249:application-library/ili9341-lcd/ili9341.c ****   uint8_t p_param[4] = {0x64, 0x03, 0x12, 0x81};
 3397              		.loc 1 1249 0
 3398 0004 054B     		ldr	r3, .L209
 3399 0006 9B69     		ldr	r3, [r3, #24]
 3400 0008 02AA     		add	r2, sp, #8
 3401 000a 42F8043D 		str	r3, [r2, #-4]!
1250:application-library/ili9341-lcd/ili9341.c ****   bus_8080_write_register(0xED, 4, p_param);
 3402              		.loc 1 1250 0
 3403 000e 0421     		movs	r1, #4
 3404 0010 ED20     		movs	r0, #237
 3405 0012 FFF7FEFF 		bl	bus_8080_write_register
 3406              	.LVL215:
1251:application-library/ili9341-lcd/ili9341.c **** }
 3407              		.loc 1 1251 0
 3408 0016 03B0     		add	sp, sp, #12
 3409              	.LCFI125:
 3410              		.cfi_def_cfa_offset 4
 3411              		@ sp needed
ARM GAS  /tmp/ccEto00Y.s 			page 80


 3412 0018 5DF804FB 		ldr	pc, [sp], #4
 3413              	.L210:
 3414              		.align	2
 3415              	.L209:
 3416 001c 00000000 		.word	.LANCHOR0
 3417              		.cfi_endproc
 3418              	.LFE213:
 3420              		.section	.text.ili9341_set_pump_ratio_control,"ax",%progbits
 3421              		.align	1
 3422              		.global	ili9341_set_pump_ratio_control
 3423              		.syntax unified
 3424              		.thumb
 3425              		.thumb_func
 3426              		.fpu fpv4-sp-d16
 3428              	ili9341_set_pump_ratio_control:
 3429              	.LFB214:
1252:application-library/ili9341-lcd/ili9341.c **** 
1253:application-library/ili9341-lcd/ili9341.c **** /**/
1254:application-library/ili9341-lcd/ili9341.c **** void ili9341_set_pump_ratio_control()
1255:application-library/ili9341-lcd/ili9341.c **** {
 3430              		.loc 1 1255 0
 3431              		.cfi_startproc
 3432              		@ args = 0, pretend = 0, frame = 8
 3433              		@ frame_needed = 0, uses_anonymous_args = 0
 3434 0000 00B5     		push	{lr}
 3435              	.LCFI126:
 3436              		.cfi_def_cfa_offset 4
 3437              		.cfi_offset 14, -4
 3438 0002 83B0     		sub	sp, sp, #12
 3439              	.LCFI127:
 3440              		.cfi_def_cfa_offset 16
1256:application-library/ili9341-lcd/ili9341.c ****   uint8_t p_param[1] = {0x20};
 3441              		.loc 1 1256 0
 3442 0004 02AA     		add	r2, sp, #8
 3443 0006 2023     		movs	r3, #32
 3444 0008 02F8043D 		strb	r3, [r2, #-4]!
1257:application-library/ili9341-lcd/ili9341.c ****   bus_8080_write_register(0xF7, 1, p_param);
 3445              		.loc 1 1257 0
 3446 000c 0121     		movs	r1, #1
 3447 000e F720     		movs	r0, #247
 3448 0010 FFF7FEFF 		bl	bus_8080_write_register
 3449              	.LVL216:
1258:application-library/ili9341-lcd/ili9341.c **** }
 3450              		.loc 1 1258 0
 3451 0014 03B0     		add	sp, sp, #12
 3452              	.LCFI128:
 3453              		.cfi_def_cfa_offset 4
 3454              		@ sp needed
 3455 0016 5DF804FB 		ldr	pc, [sp], #4
 3456              		.cfi_endproc
 3457              	.LFE214:
 3459              		.section	.text.ili9341_init,"ax",%progbits
 3460              		.align	1
 3461              		.global	ili9341_init
 3462              		.syntax unified
 3463              		.thumb
 3464              		.thumb_func
ARM GAS  /tmp/ccEto00Y.s 			page 81


 3465              		.fpu fpv4-sp-d16
 3467              	ili9341_init:
 3468              	.LFB215:
1259:application-library/ili9341-lcd/ili9341.c **** 
1260:application-library/ili9341-lcd/ili9341.c **** 
1261:application-library/ili9341-lcd/ili9341.c **** 
1262:application-library/ili9341-lcd/ili9341.c **** void ili9341_init()
1263:application-library/ili9341-lcd/ili9341.c **** {
 3469              		.loc 1 1263 0
 3470              		.cfi_startproc
 3471              		@ args = 0, pretend = 0, frame = 0
 3472              		@ frame_needed = 0, uses_anonymous_args = 0
 3473 0000 08B5     		push	{r3, lr}
 3474              	.LCFI129:
 3475              		.cfi_def_cfa_offset 8
 3476              		.cfi_offset 3, -8
 3477              		.cfi_offset 14, -4
1264:application-library/ili9341-lcd/ili9341.c ****   ili9341_hard_reset();
 3478              		.loc 1 1264 0
 3479 0002 FFF7FEFF 		bl	ili9341_hard_reset
 3480              	.LVL217:
1265:application-library/ili9341-lcd/ili9341.c ****   ili9341_set_power_control_a();
 3481              		.loc 1 1265 0
 3482 0006 FFF7FEFF 		bl	ili9341_set_power_control_a
 3483              	.LVL218:
1266:application-library/ili9341-lcd/ili9341.c ****   ili9341_set_power_control_b();
 3484              		.loc 1 1266 0
 3485 000a FFF7FEFF 		bl	ili9341_set_power_control_b
 3486              	.LVL219:
1267:application-library/ili9341-lcd/ili9341.c ****   ili9341_set_driver_timing_control_a();
 3487              		.loc 1 1267 0
 3488 000e FFF7FEFF 		bl	ili9341_set_driver_timing_control_a
 3489              	.LVL220:
1268:application-library/ili9341-lcd/ili9341.c ****   ili9341_set_driver_timing_control_b();
 3490              		.loc 1 1268 0
 3491 0012 FFF7FEFF 		bl	ili9341_set_driver_timing_control_b
 3492              	.LVL221:
1269:application-library/ili9341-lcd/ili9341.c ****   ili9341_set_poweron_sequence_control_b();
 3493              		.loc 1 1269 0
 3494 0016 FFF7FEFF 		bl	ili9341_set_poweron_sequence_control_b
 3495              	.LVL222:
1270:application-library/ili9341-lcd/ili9341.c ****   ili9341_set_pump_ratio_control();
 3496              		.loc 1 1270 0
 3497 001a FFF7FEFF 		bl	ili9341_set_pump_ratio_control
 3498              	.LVL223:
1271:application-library/ili9341-lcd/ili9341.c ****   ili9341_set_power_control1();
 3499              		.loc 1 1271 0
 3500 001e FFF7FEFF 		bl	ili9341_set_power_control1
 3501              	.LVL224:
1272:application-library/ili9341-lcd/ili9341.c ****   ili9341_set_power_control2();
 3502              		.loc 1 1272 0
 3503 0022 FFF7FEFF 		bl	ili9341_set_power_control2
 3504              	.LVL225:
1273:application-library/ili9341-lcd/ili9341.c ****   ili9341_set_vcom_control1();
 3505              		.loc 1 1273 0
 3506 0026 FFF7FEFF 		bl	ili9341_set_vcom_control1
 3507              	.LVL226:
ARM GAS  /tmp/ccEto00Y.s 			page 82


1274:application-library/ili9341-lcd/ili9341.c ****   ili9341_set_vcom_control2();
 3508              		.loc 1 1274 0
 3509 002a FFF7FEFF 		bl	ili9341_set_vcom_control2
 3510              	.LVL227:
1275:application-library/ili9341-lcd/ili9341.c ****   ili9341_set_memory_access_control(0x08);
 3511              		.loc 1 1275 0
 3512 002e 0820     		movs	r0, #8
 3513 0030 FFF7FEFF 		bl	ili9341_set_memory_access_control
 3514              	.LVL228:
1276:application-library/ili9341-lcd/ili9341.c ****   ili9341_set_pixel_format_set();
 3515              		.loc 1 1276 0
 3516 0034 FFF7FEFF 		bl	ili9341_set_pixel_format_set
 3517              	.LVL229:
1277:application-library/ili9341-lcd/ili9341.c ****   ili9341_set_frame_rate_control();
 3518              		.loc 1 1277 0
 3519 0038 FFF7FEFF 		bl	ili9341_set_frame_rate_control
 3520              	.LVL230:
1278:application-library/ili9341-lcd/ili9341.c ****   ili9341_set_display_function_control();
 3521              		.loc 1 1278 0
 3522 003c FFF7FEFF 		bl	ili9341_set_display_function_control
 3523              	.LVL231:
1279:application-library/ili9341-lcd/ili9341.c ****   ili9341_exit_sleep_mode();
 3524              		.loc 1 1279 0
 3525 0040 FFF7FEFF 		bl	ili9341_exit_sleep_mode
 3526              	.LVL232:
1280:application-library/ili9341-lcd/ili9341.c ****   ili9341_set_display_on();
 3527              		.loc 1 1280 0
 3528 0044 FFF7FEFF 		bl	ili9341_set_display_on
 3529              	.LVL233:
1281:application-library/ili9341-lcd/ili9341.c ****   ili9341_memory_write();
 3530              		.loc 1 1281 0
 3531 0048 FFF7FEFF 		bl	ili9341_memory_write
 3532              	.LVL234:
 3533 004c 08BD     		pop	{r3, pc}
 3534              		.cfi_endproc
 3535              	.LFE215:
 3537              		.section	.text.ili9341_set_frame_address,"ax",%progbits
 3538              		.align	1
 3539              		.global	ili9341_set_frame_address
 3540              		.syntax unified
 3541              		.thumb
 3542              		.thumb_func
 3543              		.fpu fpv4-sp-d16
 3545              	ili9341_set_frame_address:
 3546              	.LFB216:
1282:application-library/ili9341-lcd/ili9341.c **** }
1283:application-library/ili9341-lcd/ili9341.c **** 
1284:application-library/ili9341-lcd/ili9341.c **** /**
1285:application-library/ili9341-lcd/ili9341.c ****   * @brief Send to ILI9341 the define area of frame memory where MCU can access.
1286:application-library/ili9341-lcd/ili9341.c ****   * @note  Refer to state diagram in ILI9341 Version V1.11 Section 8.8.20, Column Address Set.
1287:application-library/ili9341-lcd/ili9341.c ****   */
1288:application-library/ili9341-lcd/ili9341.c **** void ili9341_set_frame_address(uint16_t x1,uint16_t y1,uint16_t x2,uint16_t y2)
1289:application-library/ili9341-lcd/ili9341.c **** {
 3547              		.loc 1 1289 0
 3548              		.cfi_startproc
 3549              		@ args = 0, pretend = 0, frame = 0
 3550              		@ frame_needed = 0, uses_anonymous_args = 0
ARM GAS  /tmp/ccEto00Y.s 			page 83


 3551              	.LVL235:
 3552 0000 38B5     		push	{r3, r4, r5, lr}
 3553              	.LCFI130:
 3554              		.cfi_def_cfa_offset 16
 3555              		.cfi_offset 3, -16
 3556              		.cfi_offset 4, -12
 3557              		.cfi_offset 5, -8
 3558              		.cfi_offset 14, -4
 3559 0002 0C46     		mov	r4, r1
 3560 0004 1D46     		mov	r5, r3
1290:application-library/ili9341-lcd/ili9341.c ****   ili9341_set_column_address(x1, x2);
 3561              		.loc 1 1290 0
 3562 0006 1146     		mov	r1, r2
 3563              	.LVL236:
 3564 0008 FFF7FEFF 		bl	ili9341_set_column_address
 3565              	.LVL237:
1291:application-library/ili9341-lcd/ili9341.c ****   ili9341_set_page_address(y1, y2);
 3566              		.loc 1 1291 0
 3567 000c 2946     		mov	r1, r5
 3568 000e 2046     		mov	r0, r4
 3569 0010 FFF7FEFF 		bl	ili9341_set_page_address
 3570              	.LVL238:
1292:application-library/ili9341-lcd/ili9341.c ****   ili9341_memory_write();
 3571              		.loc 1 1292 0
 3572 0014 FFF7FEFF 		bl	ili9341_memory_write
 3573              	.LVL239:
 3574 0018 38BD     		pop	{r3, r4, r5, pc}
 3575              		.cfi_endproc
 3576              	.LFE216:
 3578              		.section	.text.lcd_draw_horizontal_line,"ax",%progbits
 3579              		.align	1
 3580              		.global	lcd_draw_horizontal_line
 3581              		.syntax unified
 3582              		.thumb
 3583              		.thumb_func
 3584              		.fpu fpv4-sp-d16
 3586              	lcd_draw_horizontal_line:
 3587              	.LFB217:
1293:application-library/ili9341-lcd/ili9341.c **** }
1294:application-library/ili9341-lcd/ili9341.c **** 
1295:application-library/ili9341-lcd/ili9341.c **** /**
1296:application-library/ili9341-lcd/ili9341.c ****   * @brief Draw a horizontal line.
1297:application-library/ili9341-lcd/ili9341.c ****   */
1298:application-library/ili9341-lcd/ili9341.c **** void lcd_draw_horizontal_line(uint16_t start_coordinate_x, uint16_t start_coordinate_y, uint16_t le
1299:application-library/ili9341-lcd/ili9341.c **** { 
 3588              		.loc 1 1299 0
 3589              		.cfi_startproc
 3590              		@ args = 0, pretend = 0, frame = 0
 3591              		@ frame_needed = 0, uses_anonymous_args = 0
 3592              	.LVL240:
 3593 0000 F8B5     		push	{r3, r4, r5, r6, r7, lr}
 3594              	.LCFI131:
 3595              		.cfi_def_cfa_offset 24
 3596              		.cfi_offset 3, -24
 3597              		.cfi_offset 4, -20
 3598              		.cfi_offset 5, -16
 3599              		.cfi_offset 6, -12
ARM GAS  /tmp/ccEto00Y.s 			page 84


 3600              		.cfi_offset 7, -8
 3601              		.cfi_offset 14, -4
 3602 0002 0446     		mov	r4, r0
 3603 0004 0F46     		mov	r7, r1
 3604 0006 1646     		mov	r6, r2
 3605 0008 1D46     		mov	r5, r3
1300:application-library/ili9341-lcd/ili9341.c ****   ili9341_memory_write();
 3606              		.loc 1 1300 0
 3607 000a FFF7FEFF 		bl	ili9341_memory_write
 3608              	.LVL241:
1301:application-library/ili9341-lcd/ili9341.c ****   uint16_t end_coordinate_x = start_coordinate_x + length;
 3609              		.loc 1 1301 0
 3610 000e A219     		adds	r2, r4, r6
 3611              	.LVL242:
1302:application-library/ili9341-lcd/ili9341.c ****   uint16_t end_coordinate_y = start_coordinate_y;
1303:application-library/ili9341-lcd/ili9341.c **** 
1304:application-library/ili9341-lcd/ili9341.c ****   /* Sets the frame memory area. */
1305:application-library/ili9341-lcd/ili9341.c ****   ili9341_set_frame_address(start_coordinate_x, start_coordinate_y, end_coordinate_x, end_coordinat
 3612              		.loc 1 1305 0
 3613 0010 3B46     		mov	r3, r7
 3614 0012 92B2     		uxth	r2, r2
 3615 0014 3946     		mov	r1, r7
 3616 0016 2046     		mov	r0, r4
 3617 0018 FFF7FEFF 		bl	ili9341_set_frame_address
 3618              	.LVL243:
 3619              	.LBB5:
1306:application-library/ili9341-lcd/ili9341.c **** 
1307:application-library/ili9341-lcd/ili9341.c ****   /* Fill with line_color. */
1308:application-library/ili9341-lcd/ili9341.c ****   for(uint16_t i = 1; i<=length; ++i)
 3620              		.loc 1 1308 0
 3621 001c 0124     		movs	r4, #1
 3622              	.LVL244:
 3623 001e 07E0     		b	.L218
 3624              	.LVL245:
 3625              	.L219:
1309:application-library/ili9341-lcd/ili9341.c ****   {
1310:application-library/ili9341-lcd/ili9341.c ****     bus_8080_write_data(line_color >> 8);  /* MSB first. */
 3626              		.loc 1 1310 0 discriminator 3
 3627 0020 280A     		lsrs	r0, r5, #8
 3628 0022 FFF7FEFF 		bl	bus_8080_write_data
 3629              	.LVL246:
1311:application-library/ili9341-lcd/ili9341.c ****     bus_8080_write_data(line_color);      
 3630              		.loc 1 1311 0 discriminator 3
 3631 0026 E8B2     		uxtb	r0, r5
 3632 0028 FFF7FEFF 		bl	bus_8080_write_data
 3633              	.LVL247:
1308:application-library/ili9341-lcd/ili9341.c ****   {
 3634              		.loc 1 1308 0 discriminator 3
 3635 002c 0134     		adds	r4, r4, #1
 3636              	.LVL248:
 3637 002e A4B2     		uxth	r4, r4
 3638              	.LVL249:
 3639              	.L218:
1308:application-library/ili9341-lcd/ili9341.c ****   {
 3640              		.loc 1 1308 0 is_stmt 0 discriminator 1
 3641 0030 B442     		cmp	r4, r6
 3642 0032 F5D9     		bls	.L219
ARM GAS  /tmp/ccEto00Y.s 			page 85


 3643              	.LBE5:
1312:application-library/ili9341-lcd/ili9341.c ****   }
1313:application-library/ili9341-lcd/ili9341.c **** }
 3644              		.loc 1 1313 0 is_stmt 1
 3645 0034 F8BD     		pop	{r3, r4, r5, r6, r7, pc}
 3646              		.cfi_endproc
 3647              	.LFE217:
 3649              		.section	.text.lcd_draw_vertical_line,"ax",%progbits
 3650              		.align	1
 3651              		.global	lcd_draw_vertical_line
 3652              		.syntax unified
 3653              		.thumb
 3654              		.thumb_func
 3655              		.fpu fpv4-sp-d16
 3657              	lcd_draw_vertical_line:
 3658              	.LFB218:
1314:application-library/ili9341-lcd/ili9341.c **** 
1315:application-library/ili9341-lcd/ili9341.c **** /**
1316:application-library/ili9341-lcd/ili9341.c ****   * Draw a vertical line. Fill color if necessary.
1317:application-library/ili9341-lcd/ili9341.c ****   */
1318:application-library/ili9341-lcd/ili9341.c **** void lcd_draw_vertical_line(uint16_t start_coordinate_x, uint16_t start_coordinate_y, uint16_t leng
1319:application-library/ili9341-lcd/ili9341.c **** { 
 3659              		.loc 1 1319 0
 3660              		.cfi_startproc
 3661              		@ args = 0, pretend = 0, frame = 0
 3662              		@ frame_needed = 0, uses_anonymous_args = 0
 3663              	.LVL250:
 3664 0000 F8B5     		push	{r3, r4, r5, r6, r7, lr}
 3665              	.LCFI132:
 3666              		.cfi_def_cfa_offset 24
 3667              		.cfi_offset 3, -24
 3668              		.cfi_offset 4, -20
 3669              		.cfi_offset 5, -16
 3670              		.cfi_offset 6, -12
 3671              		.cfi_offset 7, -8
 3672              		.cfi_offset 14, -4
 3673 0002 0446     		mov	r4, r0
 3674 0004 0F46     		mov	r7, r1
 3675 0006 1646     		mov	r6, r2
 3676 0008 1D46     		mov	r5, r3
1320:application-library/ili9341-lcd/ili9341.c ****   
1321:application-library/ili9341-lcd/ili9341.c ****   bus_8080_write_command(0x2c); //write_memory_start
 3677              		.loc 1 1321 0
 3678 000a 2C20     		movs	r0, #44
 3679              	.LVL251:
 3680 000c FFF7FEFF 		bl	bus_8080_write_command
 3681              	.LVL252:
1322:application-library/ili9341-lcd/ili9341.c ****   
1323:application-library/ili9341-lcd/ili9341.c ****   uint16_t end_coordinate_x = start_coordinate_x;
1324:application-library/ili9341-lcd/ili9341.c ****   uint16_t end_coordinate_y = start_coordinate_y + length;
 3682              		.loc 1 1324 0
 3683 0010 BB19     		adds	r3, r7, r6
 3684              	.LVL253:
1325:application-library/ili9341-lcd/ili9341.c ****   /* Sets the frame memory area. */
1326:application-library/ili9341-lcd/ili9341.c ****   ili9341_set_frame_address(start_coordinate_x, start_coordinate_y, end_coordinate_x, end_coordinat
 3685              		.loc 1 1326 0
 3686 0012 9BB2     		uxth	r3, r3
ARM GAS  /tmp/ccEto00Y.s 			page 86


 3687 0014 2246     		mov	r2, r4
 3688 0016 3946     		mov	r1, r7
 3689 0018 2046     		mov	r0, r4
 3690 001a FFF7FEFF 		bl	ili9341_set_frame_address
 3691              	.LVL254:
 3692              	.LBB6:
1327:application-library/ili9341-lcd/ili9341.c **** 
1328:application-library/ili9341-lcd/ili9341.c ****   /* Fill with line_color. */
1329:application-library/ili9341-lcd/ili9341.c ****   for(uint16_t i=1; i<=length; ++i)
 3693              		.loc 1 1329 0
 3694 001e 0124     		movs	r4, #1
 3695              	.LVL255:
 3696 0020 07E0     		b	.L222
 3697              	.LVL256:
 3698              	.L223:
1330:application-library/ili9341-lcd/ili9341.c ****   { 
1331:application-library/ili9341-lcd/ili9341.c ****     bus_8080_write_data(line_color>>8);   
 3699              		.loc 1 1331 0 discriminator 3
 3700 0022 280A     		lsrs	r0, r5, #8
 3701 0024 FFF7FEFF 		bl	bus_8080_write_data
 3702              	.LVL257:
1332:application-library/ili9341-lcd/ili9341.c ****     bus_8080_write_data(line_color);       
 3703              		.loc 1 1332 0 discriminator 3
 3704 0028 E8B2     		uxtb	r0, r5
 3705 002a FFF7FEFF 		bl	bus_8080_write_data
 3706              	.LVL258:
1329:application-library/ili9341-lcd/ili9341.c ****   { 
 3707              		.loc 1 1329 0 discriminator 3
 3708 002e 0134     		adds	r4, r4, #1
 3709              	.LVL259:
 3710 0030 A4B2     		uxth	r4, r4
 3711              	.LVL260:
 3712              	.L222:
1329:application-library/ili9341-lcd/ili9341.c ****   { 
 3713              		.loc 1 1329 0 is_stmt 0 discriminator 1
 3714 0032 B442     		cmp	r4, r6
 3715 0034 F5D9     		bls	.L223
 3716              	.LBE6:
1333:application-library/ili9341-lcd/ili9341.c ****   }
1334:application-library/ili9341-lcd/ili9341.c **** }
 3717              		.loc 1 1334 0 is_stmt 1
 3718 0036 F8BD     		pop	{r3, r4, r5, r6, r7, pc}
 3719              		.cfi_endproc
 3720              	.LFE218:
 3722              		.section	.text.lcd_draw_rectangle_unfilled,"ax",%progbits
 3723              		.align	1
 3724              		.global	lcd_draw_rectangle_unfilled
 3725              		.syntax unified
 3726              		.thumb
 3727              		.thumb_func
 3728              		.fpu fpv4-sp-d16
 3730              	lcd_draw_rectangle_unfilled:
 3731              	.LFB219:
1335:application-library/ili9341-lcd/ili9341.c **** 
1336:application-library/ili9341-lcd/ili9341.c **** /**
1337:application-library/ili9341-lcd/ili9341.c ****   * @brief Draw an empty rectangle frame.
1338:application-library/ili9341-lcd/ili9341.c ****   * @note  This is equivalent to drawing two vertical lines plus two horizontal lines.
ARM GAS  /tmp/ccEto00Y.s 			page 87


1339:application-library/ili9341-lcd/ili9341.c ****   */
1340:application-library/ili9341-lcd/ili9341.c **** void lcd_draw_rectangle_unfilled(uint16_t start_coordinate_x, uint16_t start_coordinate_y, uint16_t
1341:application-library/ili9341-lcd/ili9341.c **** {
 3732              		.loc 1 1341 0
 3733              		.cfi_startproc
 3734              		@ args = 4, pretend = 0, frame = 0
 3735              		@ frame_needed = 0, uses_anonymous_args = 0
 3736              	.LVL261:
 3737 0000 2DE9F041 		push	{r4, r5, r6, r7, r8, lr}
 3738              	.LCFI133:
 3739              		.cfi_def_cfa_offset 24
 3740              		.cfi_offset 4, -24
 3741              		.cfi_offset 5, -20
 3742              		.cfi_offset 6, -16
 3743              		.cfi_offset 7, -12
 3744              		.cfi_offset 8, -8
 3745              		.cfi_offset 14, -4
 3746 0004 0446     		mov	r4, r0
 3747 0006 0E46     		mov	r6, r1
 3748 0008 9046     		mov	r8, r2
 3749 000a 1F46     		mov	r7, r3
 3750 000c BDF81850 		ldrh	r5, [sp, #24]
1342:application-library/ili9341-lcd/ili9341.c ****   lcd_draw_horizontal_line(start_coordinate_x, start_coordinate_y, rect_width, frame_color);
 3751              		.loc 1 1342 0
 3752 0010 2B46     		mov	r3, r5
 3753              	.LVL262:
 3754 0012 FFF7FEFF 		bl	lcd_draw_horizontal_line
 3755              	.LVL263:
1343:application-library/ili9341-lcd/ili9341.c ****   lcd_draw_horizontal_line(start_coordinate_x, start_coordinate_y + rect_height, rect_width, frame_
 3756              		.loc 1 1343 0
 3757 0016 F119     		adds	r1, r6, r7
 3758 0018 2B46     		mov	r3, r5
 3759 001a 4246     		mov	r2, r8
 3760 001c 89B2     		uxth	r1, r1
 3761 001e 2046     		mov	r0, r4
 3762 0020 FFF7FEFF 		bl	lcd_draw_horizontal_line
 3763              	.LVL264:
1344:application-library/ili9341-lcd/ili9341.c **** 
1345:application-library/ili9341-lcd/ili9341.c ****   lcd_draw_vertical_line(start_coordinate_x, start_coordinate_y, rect_height, frame_color);
 3764              		.loc 1 1345 0
 3765 0024 2B46     		mov	r3, r5
 3766 0026 3A46     		mov	r2, r7
 3767 0028 3146     		mov	r1, r6
 3768 002a 2046     		mov	r0, r4
 3769 002c FFF7FEFF 		bl	lcd_draw_vertical_line
 3770              	.LVL265:
1346:application-library/ili9341-lcd/ili9341.c ****   lcd_draw_vertical_line(start_coordinate_x + rect_width, start_coordinate_y, rect_height, frame_co
 3771              		.loc 1 1346 0
 3772 0030 04EB0800 		add	r0, r4, r8
 3773 0034 2B46     		mov	r3, r5
 3774 0036 3A46     		mov	r2, r7
 3775 0038 3146     		mov	r1, r6
 3776 003a 80B2     		uxth	r0, r0
 3777 003c FFF7FEFF 		bl	lcd_draw_vertical_line
 3778              	.LVL266:
 3779 0040 BDE8F081 		pop	{r4, r5, r6, r7, r8, pc}
 3780              		.cfi_endproc
ARM GAS  /tmp/ccEto00Y.s 			page 88


 3781              	.LFE219:
 3783              		.section	.text.lcd_draw_rectangle_filled,"ax",%progbits
 3784              		.align	1
 3785              		.global	lcd_draw_rectangle_filled
 3786              		.syntax unified
 3787              		.thumb
 3788              		.thumb_func
 3789              		.fpu fpv4-sp-d16
 3791              	lcd_draw_rectangle_filled:
 3792              	.LFB220:
1347:application-library/ili9341-lcd/ili9341.c **** }
1348:application-library/ili9341-lcd/ili9341.c **** 
1349:application-library/ili9341-lcd/ili9341.c **** /**
1350:application-library/ili9341-lcd/ili9341.c ****   * @brief Draw a solid color-filled rectangle.
1351:application-library/ili9341-lcd/ili9341.c ****   */
1352:application-library/ili9341-lcd/ili9341.c **** void lcd_draw_rectangle_filled(uint16_t start_coordinate_x, uint16_t start_coordinate_y, uint16_t r
1353:application-library/ili9341-lcd/ili9341.c **** {
 3793              		.loc 1 1353 0
 3794              		.cfi_startproc
 3795              		@ args = 4, pretend = 0, frame = 0
 3796              		@ frame_needed = 0, uses_anonymous_args = 0
 3797              	.LVL267:
 3798 0000 2DE9F843 		push	{r3, r4, r5, r6, r7, r8, r9, lr}
 3799              	.LCFI134:
 3800              		.cfi_def_cfa_offset 32
 3801              		.cfi_offset 3, -32
 3802              		.cfi_offset 4, -28
 3803              		.cfi_offset 5, -24
 3804              		.cfi_offset 6, -20
 3805              		.cfi_offset 7, -16
 3806              		.cfi_offset 8, -12
 3807              		.cfi_offset 9, -8
 3808              		.cfi_offset 14, -4
 3809 0004 8146     		mov	r9, r0
 3810 0006 8846     		mov	r8, r1
 3811 0008 1746     		mov	r7, r2
 3812 000a 1D46     		mov	r5, r3
 3813 000c BDF82060 		ldrh	r6, [sp, #32]
 3814              	.LVL268:
 3815              	.LBB7:
1354:application-library/ili9341-lcd/ili9341.c ****   for (uint16_t i = 0; i < rect_height; ++i)
 3816              		.loc 1 1354 0
 3817 0010 0024     		movs	r4, #0
 3818 0012 09E0     		b	.L228
 3819              	.LVL269:
 3820              	.L229:
1355:application-library/ili9341-lcd/ili9341.c ****   {
1356:application-library/ili9341-lcd/ili9341.c ****     lcd_draw_horizontal_line(start_coordinate_x, start_coordinate_y + i, rect_width, rect_color);
 3821              		.loc 1 1356 0 discriminator 3
 3822 0014 04EB0801 		add	r1, r4, r8
 3823 0018 3346     		mov	r3, r6
 3824 001a 3A46     		mov	r2, r7
 3825 001c 89B2     		uxth	r1, r1
 3826 001e 4846     		mov	r0, r9
 3827 0020 FFF7FEFF 		bl	lcd_draw_horizontal_line
 3828              	.LVL270:
1354:application-library/ili9341-lcd/ili9341.c ****   for (uint16_t i = 0; i < rect_height; ++i)
ARM GAS  /tmp/ccEto00Y.s 			page 89


 3829              		.loc 1 1354 0 discriminator 3
 3830 0024 0134     		adds	r4, r4, #1
 3831              	.LVL271:
 3832 0026 A4B2     		uxth	r4, r4
 3833              	.LVL272:
 3834              	.L228:
1354:application-library/ili9341-lcd/ili9341.c ****   for (uint16_t i = 0; i < rect_height; ++i)
 3835              		.loc 1 1354 0 is_stmt 0 discriminator 1
 3836 0028 AC42     		cmp	r4, r5
 3837 002a F3D3     		bcc	.L229
 3838              	.LBE7:
1357:application-library/ili9341-lcd/ili9341.c ****   }
1358:application-library/ili9341-lcd/ili9341.c **** }
 3839              		.loc 1 1358 0 is_stmt 1
 3840 002c BDE8F883 		pop	{r3, r4, r5, r6, r7, r8, r9, pc}
 3841              		.cfi_endproc
 3842              	.LFE220:
 3844              		.section	.text.lcd_clear_all,"ax",%progbits
 3845              		.align	1
 3846              		.global	lcd_clear_all
 3847              		.syntax unified
 3848              		.thumb
 3849              		.thumb_func
 3850              		.fpu fpv4-sp-d16
 3852              	lcd_clear_all:
 3853              	.LFB221:
1359:application-library/ili9341-lcd/ili9341.c **** 
1360:application-library/ili9341-lcd/ili9341.c **** /**
1361:application-library/ili9341-lcd/ili9341.c ****   * @brief Clear the entire screen and fill with color.
1362:application-library/ili9341-lcd/ili9341.c ****   */
1363:application-library/ili9341-lcd/ili9341.c **** void lcd_clear_all(uint16_t fill_color)                   
1364:application-library/ili9341-lcd/ili9341.c **** { 
 3854              		.loc 1 1364 0
 3855              		.cfi_startproc
 3856              		@ args = 0, pretend = 0, frame = 0
 3857              		@ frame_needed = 0, uses_anonymous_args = 0
 3858              	.LVL273:
 3859 0000 70B5     		push	{r4, r5, r6, lr}
 3860              	.LCFI135:
 3861              		.cfi_def_cfa_offset 16
 3862              		.cfi_offset 4, -16
 3863              		.cfi_offset 5, -12
 3864              		.cfi_offset 6, -8
 3865              		.cfi_offset 14, -4
 3866 0002 0546     		mov	r5, r0
 3867              	.LVL274:
1365:application-library/ili9341-lcd/ili9341.c ****   uint16_t start_coordinate_x = 0;
1366:application-library/ili9341-lcd/ili9341.c ****   uint16_t start_coordinate_y = 0;
1367:application-library/ili9341-lcd/ili9341.c ****   uint16_t end_coordinate_x = TFT_PIXEL_H_LENGTH - 1;
1368:application-library/ili9341-lcd/ili9341.c ****   uint16_t end_coordinate_y = TFT_PIXEL_V_WIDTH - 1;
1369:application-library/ili9341-lcd/ili9341.c **** 
1370:application-library/ili9341-lcd/ili9341.c ****   ili9341_set_frame_address(start_coordinate_x, start_coordinate_y, end_coordinate_x, end_coordinat
 3868              		.loc 1 1370 0
 3869 0004 40F23F13 		movw	r3, #319
 3870 0008 EF22     		movs	r2, #239
 3871 000a 0021     		movs	r1, #0
 3872 000c 0846     		mov	r0, r1
ARM GAS  /tmp/ccEto00Y.s 			page 90


 3873              	.LVL275:
 3874 000e FFF7FEFF 		bl	ili9341_set_frame_address
 3875              	.LVL276:
 3876              	.LBB8:
1371:application-library/ili9341-lcd/ili9341.c ****   for(uint16_t i = 0; i < TFT_PIXEL_V_WIDTH; ++i)  
 3877              		.loc 1 1371 0
 3878 0012 0026     		movs	r6, #0
 3879 0014 0BE0     		b	.L232
 3880              	.LVL277:
 3881              	.L233:
 3882              	.LBB9:
1372:application-library/ili9341-lcd/ili9341.c ****     for(uint16_t m = 0; m < TFT_PIXEL_H_LENGTH; ++m) 
1373:application-library/ili9341-lcd/ili9341.c ****     {
1374:application-library/ili9341-lcd/ili9341.c ****       /* Write color to fill. */
1375:application-library/ili9341-lcd/ili9341.c ****       bus_8080_write_data(fill_color>>8);
 3883              		.loc 1 1375 0 discriminator 3
 3884 0016 280A     		lsrs	r0, r5, #8
 3885 0018 FFF7FEFF 		bl	bus_8080_write_data
 3886              	.LVL278:
1376:application-library/ili9341-lcd/ili9341.c ****       bus_8080_write_data(fill_color);
 3887              		.loc 1 1376 0 discriminator 3
 3888 001c E8B2     		uxtb	r0, r5
 3889 001e FFF7FEFF 		bl	bus_8080_write_data
 3890              	.LVL279:
1372:application-library/ili9341-lcd/ili9341.c ****     for(uint16_t m = 0; m < TFT_PIXEL_H_LENGTH; ++m) 
 3891              		.loc 1 1372 0 discriminator 3
 3892 0022 0134     		adds	r4, r4, #1
 3893              	.LVL280:
 3894 0024 A4B2     		uxth	r4, r4
 3895              	.LVL281:
 3896              	.L234:
1372:application-library/ili9341-lcd/ili9341.c ****     for(uint16_t m = 0; m < TFT_PIXEL_H_LENGTH; ++m) 
 3897              		.loc 1 1372 0 is_stmt 0 discriminator 1
 3898 0026 EF2C     		cmp	r4, #239
 3899 0028 F5D9     		bls	.L233
 3900              	.LBE9:
1371:application-library/ili9341-lcd/ili9341.c ****   for(uint16_t i = 0; i < TFT_PIXEL_V_WIDTH; ++i)  
 3901              		.loc 1 1371 0 is_stmt 1 discriminator 2
 3902 002a 0136     		adds	r6, r6, #1
 3903              	.LVL282:
 3904 002c B6B2     		uxth	r6, r6
 3905              	.LVL283:
 3906              	.L232:
1371:application-library/ili9341-lcd/ili9341.c ****   for(uint16_t i = 0; i < TFT_PIXEL_V_WIDTH; ++i)  
 3907              		.loc 1 1371 0 is_stmt 0 discriminator 1
 3908 002e B6F5A07F 		cmp	r6, #320
 3909 0032 01D2     		bcs	.L237
 3910 0034 0024     		movs	r4, #0
 3911 0036 F6E7     		b	.L234
 3912              	.L237:
 3913              	.LBE8:
1377:application-library/ili9341-lcd/ili9341.c ****     }
1378:application-library/ili9341-lcd/ili9341.c **** }
 3914              		.loc 1 1378 0 is_stmt 1
 3915 0038 70BD     		pop	{r4, r5, r6, pc}
 3916              		.cfi_endproc
 3917              	.LFE221:
ARM GAS  /tmp/ccEto00Y.s 			page 91


 3919              		.section	.text.lcd_draw_dot,"ax",%progbits
 3920              		.align	1
 3921              		.global	lcd_draw_dot
 3922              		.syntax unified
 3923              		.thumb
 3924              		.thumb_func
 3925              		.fpu fpv4-sp-d16
 3927              	lcd_draw_dot:
 3928              	.LFB222:
1379:application-library/ili9341-lcd/ili9341.c **** 
1380:application-library/ili9341-lcd/ili9341.c **** 
1381:application-library/ili9341-lcd/ili9341.c **** void lcd_draw_dot(uint16_t start_coordinate_x, uint16_t start_coordinate_y, uint16_t dot_color) 
1382:application-library/ili9341-lcd/ili9341.c **** {
 3929              		.loc 1 1382 0
 3930              		.cfi_startproc
 3931              		@ args = 0, pretend = 0, frame = 0
 3932              		@ frame_needed = 0, uses_anonymous_args = 0
 3933              	.LVL284:
 3934 0000 10B5     		push	{r4, lr}
 3935              	.LCFI136:
 3936              		.cfi_def_cfa_offset 8
 3937              		.cfi_offset 4, -8
 3938              		.cfi_offset 14, -4
 3939 0002 1446     		mov	r4, r2
1383:application-library/ili9341-lcd/ili9341.c ****   uint16_t end_coordinate_x = start_coordinate_x + 1;
 3940              		.loc 1 1383 0
 3941 0004 421C     		adds	r2, r0, #1
 3942              	.LVL285:
1384:application-library/ili9341-lcd/ili9341.c ****   uint16_t end_coordinate_y = start_coordinate_y + 1;
 3943              		.loc 1 1384 0
 3944 0006 4B1C     		adds	r3, r1, #1
 3945              	.LVL286:
1385:application-library/ili9341-lcd/ili9341.c ****   ili9341_set_frame_address(start_coordinate_x, start_coordinate_y, end_coordinate_x, end_coordinat
 3946              		.loc 1 1385 0
 3947 0008 9BB2     		uxth	r3, r3
 3948 000a 92B2     		uxth	r2, r2
 3949 000c FFF7FEFF 		bl	ili9341_set_frame_address
 3950              	.LVL287:
1386:application-library/ili9341-lcd/ili9341.c ****   bus_8080_write_data(dot_color >> 8); 
 3951              		.loc 1 1386 0
 3952 0010 200A     		lsrs	r0, r4, #8
 3953 0012 FFF7FEFF 		bl	bus_8080_write_data
 3954              	.LVL288:
1387:application-library/ili9341-lcd/ili9341.c ****   bus_8080_write_data(dot_color);      
 3955              		.loc 1 1387 0
 3956 0016 E0B2     		uxtb	r0, r4
 3957 0018 FFF7FEFF 		bl	bus_8080_write_data
 3958              	.LVL289:
 3959 001c 10BD     		pop	{r4, pc}
 3960              		.cfi_endproc
 3961              	.LFE222:
 3963              		.section	.text.lcd_plot_char,"ax",%progbits
 3964              		.align	1
 3965              		.global	lcd_plot_char
 3966              		.syntax unified
 3967              		.thumb
 3968              		.thumb_func
ARM GAS  /tmp/ccEto00Y.s 			page 92


 3969              		.fpu fpv4-sp-d16
 3971              	lcd_plot_char:
 3972              	.LFB223:
1388:application-library/ili9341-lcd/ili9341.c **** }
1389:application-library/ili9341-lcd/ili9341.c **** 
1390:application-library/ili9341-lcd/ili9341.c **** 
1391:application-library/ili9341-lcd/ili9341.c **** void lcd_plot_char(int16_t x, int16_t y, unsigned char c,uint16_t color, uint16_t bg, uint8_t size)
1392:application-library/ili9341-lcd/ili9341.c **** {
 3973              		.loc 1 1392 0
 3974              		.cfi_startproc
 3975              		@ args = 8, pretend = 0, frame = 8
 3976              		@ frame_needed = 0, uses_anonymous_args = 0
 3977              	.LVL290:
 3978 0000 2DE9F04F 		push	{r4, r5, r6, r7, r8, r9, r10, fp, lr}
 3979              	.LCFI137:
 3980              		.cfi_def_cfa_offset 36
 3981              		.cfi_offset 4, -36
 3982              		.cfi_offset 5, -32
 3983              		.cfi_offset 6, -28
 3984              		.cfi_offset 7, -24
 3985              		.cfi_offset 8, -20
 3986              		.cfi_offset 9, -16
 3987              		.cfi_offset 10, -12
 3988              		.cfi_offset 11, -8
 3989              		.cfi_offset 14, -4
 3990 0004 83B0     		sub	sp, sp, #12
 3991              	.LCFI138:
 3992              		.cfi_def_cfa_offset 48
 3993 0006 8346     		mov	fp, r0
 3994 0008 0191     		str	r1, [sp, #4]
 3995 000a 9246     		mov	r10, r2
 3996 000c 9846     		mov	r8, r3
 3997 000e BDF83090 		ldrh	r9, [sp, #48]
 3998 0012 9DF83470 		ldrb	r7, [sp, #52]	@ zero_extendqisi2
 3999              	.LVL291:
 4000              	.LBB10:
1393:application-library/ili9341-lcd/ili9341.c ****   for (int8_t i=0; i<6; i++ )
 4001              		.loc 1 1393 0
 4002 0016 0026     		movs	r6, #0
 4003 0018 25E0     		b	.L241
 4004              	.LVL292:
 4005              	.L248:
 4006              	.LBB11:
1394:application-library/ili9341-lcd/ili9341.c ****   {
1395:application-library/ili9341-lcd/ili9341.c ****     uint8_t line;
1396:application-library/ili9341-lcd/ili9341.c ****     if (i == 5)
1397:application-library/ili9341-lcd/ili9341.c ****     {
1398:application-library/ili9341-lcd/ili9341.c ****       line = 0x0;
 4007              		.loc 1 1398 0
 4008 001a 0025     		movs	r5, #0
 4009 001c 2CE0     		b	.L242
 4010              	.LVL293:
 4011              	.L244:
 4012              	.LBB12:
1399:application-library/ili9341-lcd/ili9341.c ****     }
1400:application-library/ili9341-lcd/ili9341.c ****     else 
1401:application-library/ili9341-lcd/ili9341.c ****     {
ARM GAS  /tmp/ccEto00Y.s 			page 93


1402:application-library/ili9341-lcd/ili9341.c ****       line = *((uint8_t*)(font+(c*5)+i));
1403:application-library/ili9341-lcd/ili9341.c ****     }
1404:application-library/ili9341-lcd/ili9341.c **** 
1405:application-library/ili9341-lcd/ili9341.c ****     for (int8_t j = 0; j<8; j++)
1406:application-library/ili9341-lcd/ili9341.c ****     {
1407:application-library/ili9341-lcd/ili9341.c ****       if (line & 0x1)
1408:application-library/ili9341-lcd/ili9341.c ****       {
1409:application-library/ili9341-lcd/ili9341.c ****         if (size == 1) // default size
1410:application-library/ili9341-lcd/ili9341.c ****         {
1411:application-library/ili9341-lcd/ili9341.c ****           lcd_draw_dot(x+i, y+j, color);
1412:application-library/ili9341-lcd/ili9341.c ****         }
1413:application-library/ili9341-lcd/ili9341.c ****         else {  // big size
1414:application-library/ili9341-lcd/ili9341.c ****           // ili9341_plot_color_block(x+(i*size), y+(j*size), size, size, color);
1415:application-library/ili9341-lcd/ili9341.c ****         } 
1416:application-library/ili9341-lcd/ili9341.c ****       } else if (bg != color)
 4013              		.loc 1 1416 0
 4014 001e C845     		cmp	r8, r9
 4015 0020 01D0     		beq	.L245
1417:application-library/ili9341-lcd/ili9341.c ****       {
1418:application-library/ili9341-lcd/ili9341.c ****         if (size == 1) // default size
 4016              		.loc 1 1418 0
 4017 0022 012F     		cmp	r7, #1
 4018 0024 13D0     		beq	.L250
 4019              	.L245:
1419:application-library/ili9341-lcd/ili9341.c ****         {
1420:application-library/ili9341-lcd/ili9341.c ****           lcd_draw_dot(x+i, y+j, bg);
1421:application-library/ili9341-lcd/ili9341.c ****         }
1422:application-library/ili9341-lcd/ili9341.c ****         else 
1423:application-library/ili9341-lcd/ili9341.c ****         {  // big size
1424:application-library/ili9341-lcd/ili9341.c ****           //ili9341_plot_color_block(x+i*size, y+j*size, size, size, bg);
1425:application-library/ili9341-lcd/ili9341.c ****         }
1426:application-library/ili9341-lcd/ili9341.c ****       }
1427:application-library/ili9341-lcd/ili9341.c **** 
1428:application-library/ili9341-lcd/ili9341.c ****       line >>= 1;
 4020              		.loc 1 1428 0 discriminator 2
 4021 0026 6D08     		lsrs	r5, r5, #1
 4022              	.LVL294:
1405:application-library/ili9341-lcd/ili9341.c ****     {
 4023              		.loc 1 1405 0 discriminator 2
 4024 0028 0134     		adds	r4, r4, #1
 4025              	.LVL295:
 4026 002a 64B2     		sxtb	r4, r4
 4027              	.LVL296:
 4028              	.L243:
1405:application-library/ili9341-lcd/ili9341.c ****     {
 4029              		.loc 1 1405 0 is_stmt 0 discriminator 1
 4030 002c 072C     		cmp	r4, #7
 4031 002e 18DC     		bgt	.L251
1407:application-library/ili9341-lcd/ili9341.c ****       {
 4032              		.loc 1 1407 0 is_stmt 1
 4033 0030 15F0010F 		tst	r5, #1
 4034 0034 F3D0     		beq	.L244
1409:application-library/ili9341-lcd/ili9341.c ****         {
 4035              		.loc 1 1409 0
 4036 0036 012F     		cmp	r7, #1
 4037 0038 F5D1     		bne	.L245
1411:application-library/ili9341-lcd/ili9341.c ****         }
ARM GAS  /tmp/ccEto00Y.s 			page 94


 4038              		.loc 1 1411 0
 4039 003a 019B     		ldr	r3, [sp, #4]
 4040 003c E118     		adds	r1, r4, r3
 4041 003e 06EB0B00 		add	r0, r6, fp
 4042 0042 4246     		mov	r2, r8
 4043 0044 89B2     		uxth	r1, r1
 4044 0046 80B2     		uxth	r0, r0
 4045 0048 FFF7FEFF 		bl	lcd_draw_dot
 4046              	.LVL297:
 4047 004c EBE7     		b	.L245
 4048              	.L250:
1420:application-library/ili9341-lcd/ili9341.c ****         }
 4049              		.loc 1 1420 0
 4050 004e 019B     		ldr	r3, [sp, #4]
 4051 0050 E118     		adds	r1, r4, r3
 4052 0052 06EB0B00 		add	r0, r6, fp
 4053 0056 4A46     		mov	r2, r9
 4054 0058 89B2     		uxth	r1, r1
 4055 005a 80B2     		uxth	r0, r0
 4056 005c FFF7FEFF 		bl	lcd_draw_dot
 4057              	.LVL298:
 4058 0060 E1E7     		b	.L245
 4059              	.L251:
 4060              	.LBE12:
 4061              	.LBE11:
1393:application-library/ili9341-lcd/ili9341.c ****   {
 4062              		.loc 1 1393 0 discriminator 2
 4063 0062 0136     		adds	r6, r6, #1
 4064              	.LVL299:
 4065 0064 76B2     		sxtb	r6, r6
 4066              	.LVL300:
 4067              	.L241:
1393:application-library/ili9341-lcd/ili9341.c ****   {
 4068              		.loc 1 1393 0 is_stmt 0 discriminator 1
 4069 0066 052E     		cmp	r6, #5
 4070 0068 08DC     		bgt	.L252
 4071              	.LBB13:
1396:application-library/ili9341-lcd/ili9341.c ****     {
 4072              		.loc 1 1396 0 is_stmt 1
 4073 006a 052E     		cmp	r6, #5
 4074 006c D5D0     		beq	.L248
1402:application-library/ili9341-lcd/ili9341.c ****     }
 4075              		.loc 1 1402 0
 4076 006e 0AEB8A03 		add	r3, r10, r10, lsl #2
 4077 0072 3344     		add	r3, r3, r6
 4078 0074 034A     		ldr	r2, .L253
 4079 0076 D55C     		ldrb	r5, [r2, r3]	@ zero_extendqisi2
 4080              	.LVL301:
 4081              	.L242:
1398:application-library/ili9341-lcd/ili9341.c ****     }
 4082              		.loc 1 1398 0 discriminator 1
 4083 0078 0024     		movs	r4, #0
 4084 007a D7E7     		b	.L243
 4085              	.L252:
 4086              	.LBE13:
 4087              	.LBE10:
1429:application-library/ili9341-lcd/ili9341.c ****     }
ARM GAS  /tmp/ccEto00Y.s 			page 95


1430:application-library/ili9341-lcd/ili9341.c ****   }
1431:application-library/ili9341-lcd/ili9341.c **** }
 4088              		.loc 1 1431 0
 4089 007c 03B0     		add	sp, sp, #12
 4090              	.LCFI139:
 4091              		.cfi_def_cfa_offset 36
 4092              		@ sp needed
 4093 007e BDE8F08F 		pop	{r4, r5, r6, r7, r8, r9, r10, fp, pc}
 4094              	.LVL302:
 4095              	.L254:
 4096 0082 00BF     		.align	2
 4097              	.L253:
 4098 0084 00000000 		.word	.LANCHOR1
 4099              		.cfi_endproc
 4100              	.LFE223:
 4102              		.section	.text.lcd_set_rotation,"ax",%progbits
 4103              		.align	1
 4104              		.global	lcd_set_rotation
 4105              		.syntax unified
 4106              		.thumb
 4107              		.thumb_func
 4108              		.fpu fpv4-sp-d16
 4110              	lcd_set_rotation:
 4111              	.LFB224:
1432:application-library/ili9341-lcd/ili9341.c **** 
1433:application-library/ili9341-lcd/ili9341.c **** void lcd_set_rotation(uint8_t orientation) 
1434:application-library/ili9341-lcd/ili9341.c **** {
 4112              		.loc 1 1434 0
 4113              		.cfi_startproc
 4114              		@ args = 0, pretend = 0, frame = 8
 4115              		@ frame_needed = 0, uses_anonymous_args = 0
 4116              	.LVL303:
 4117 0000 10B5     		push	{r4, lr}
 4118              	.LCFI140:
 4119              		.cfi_def_cfa_offset 8
 4120              		.cfi_offset 4, -8
 4121              		.cfi_offset 14, -4
 4122 0002 82B0     		sub	sp, sp, #8
 4123              	.LCFI141:
 4124              		.cfi_def_cfa_offset 16
 4125 0004 0446     		mov	r4, r0
1435:application-library/ili9341-lcd/ili9341.c ****   bus_8080_write_command(0x36);    
 4126              		.loc 1 1435 0
 4127 0006 3620     		movs	r0, #54
 4128              	.LVL304:
 4129 0008 FFF7FEFF 		bl	bus_8080_write_command
 4130              	.LVL305:
1436:application-library/ili9341-lcd/ili9341.c **** 
1437:application-library/ili9341-lcd/ili9341.c ****   uint8_t p_param[1];
1438:application-library/ili9341-lcd/ili9341.c **** 
1439:application-library/ili9341-lcd/ili9341.c ****   switch (orientation) 
 4131              		.loc 1 1439 0
 4132 000c 032C     		cmp	r4, #3
 4133 000e 0BD8     		bhi	.L255
 4134 0010 DFE804F0 		tbb	[pc, r4]
 4135              	.L258:
 4136 0014 02       		.byte	(.L257-.L258)/2
ARM GAS  /tmp/ccEto00Y.s 			page 96


 4137 0015 0C       		.byte	(.L259-.L258)/2
 4138 0016 15       		.byte	(.L260-.L258)/2
 4139 0017 1E       		.byte	(.L261-.L258)/2
 4140              		.p2align 1
 4141              	.L257:
1440:application-library/ili9341-lcd/ili9341.c ****   {
1441:application-library/ili9341-lcd/ili9341.c ****     case 0:
1442:application-library/ili9341-lcd/ili9341.c ****       *p_param = 0x40 | 0x08; // MX BGR
 4142              		.loc 1 1442 0
 4143 0018 02AA     		add	r2, sp, #8
 4144 001a 4823     		movs	r3, #72
 4145 001c 02F8043D 		strb	r3, [r2, #-4]!
1443:application-library/ili9341-lcd/ili9341.c ****       bus_8080_write_register(0x36, 1, p_param);
 4146              		.loc 1 1443 0
 4147 0020 0121     		movs	r1, #1
 4148 0022 3620     		movs	r0, #54
 4149 0024 FFF7FEFF 		bl	bus_8080_write_register
 4150              	.LVL306:
 4151              	.L255:
1444:application-library/ili9341-lcd/ili9341.c ****       break;
1445:application-library/ili9341-lcd/ili9341.c ****     case 1:
1446:application-library/ili9341-lcd/ili9341.c ****       *p_param = 0x20 | 0x08; // MV BGR
1447:application-library/ili9341-lcd/ili9341.c ****       bus_8080_write_register(0x36, 1, p_param);
1448:application-library/ili9341-lcd/ili9341.c ****       break;
1449:application-library/ili9341-lcd/ili9341.c ****     case 2:
1450:application-library/ili9341-lcd/ili9341.c ****       *p_param = 0x80 | 0x08; // MY BGR
1451:application-library/ili9341-lcd/ili9341.c ****       bus_8080_write_register(0x36, 1, p_param);
1452:application-library/ili9341-lcd/ili9341.c ****       break;
1453:application-library/ili9341-lcd/ili9341.c ****     case 3:
1454:application-library/ili9341-lcd/ili9341.c ****       *p_param = 0x40 | 0x80 | 0x20 | 0x08; // MY MX MV BGR 
1455:application-library/ili9341-lcd/ili9341.c ****       bus_8080_write_register(0x36, 1, p_param);
1456:application-library/ili9341-lcd/ili9341.c ****       break;
1457:application-library/ili9341-lcd/ili9341.c ****   }
1458:application-library/ili9341-lcd/ili9341.c **** }
 4152              		.loc 1 1458 0
 4153 0028 02B0     		add	sp, sp, #8
 4154              	.LCFI142:
 4155              		.cfi_remember_state
 4156              		.cfi_def_cfa_offset 8
 4157              		@ sp needed
 4158 002a 10BD     		pop	{r4, pc}
 4159              	.L259:
 4160              	.LCFI143:
 4161              		.cfi_restore_state
1446:application-library/ili9341-lcd/ili9341.c ****       bus_8080_write_register(0x36, 1, p_param);
 4162              		.loc 1 1446 0
 4163 002c 02AA     		add	r2, sp, #8
 4164 002e 2823     		movs	r3, #40
 4165 0030 02F8043D 		strb	r3, [r2, #-4]!
1447:application-library/ili9341-lcd/ili9341.c ****       break;
 4166              		.loc 1 1447 0
 4167 0034 0121     		movs	r1, #1
 4168 0036 3620     		movs	r0, #54
 4169 0038 FFF7FEFF 		bl	bus_8080_write_register
 4170              	.LVL307:
1448:application-library/ili9341-lcd/ili9341.c ****     case 2:
 4171              		.loc 1 1448 0
ARM GAS  /tmp/ccEto00Y.s 			page 97


 4172 003c F4E7     		b	.L255
 4173              	.L260:
1450:application-library/ili9341-lcd/ili9341.c ****       bus_8080_write_register(0x36, 1, p_param);
 4174              		.loc 1 1450 0
 4175 003e 02AA     		add	r2, sp, #8
 4176 0040 8823     		movs	r3, #136
 4177 0042 02F8043D 		strb	r3, [r2, #-4]!
1451:application-library/ili9341-lcd/ili9341.c ****       break;
 4178              		.loc 1 1451 0
 4179 0046 0121     		movs	r1, #1
 4180 0048 3620     		movs	r0, #54
 4181 004a FFF7FEFF 		bl	bus_8080_write_register
 4182              	.LVL308:
1452:application-library/ili9341-lcd/ili9341.c ****     case 3:
 4183              		.loc 1 1452 0
 4184 004e EBE7     		b	.L255
 4185              	.L261:
1454:application-library/ili9341-lcd/ili9341.c ****       bus_8080_write_register(0x36, 1, p_param);
 4186              		.loc 1 1454 0
 4187 0050 02AA     		add	r2, sp, #8
 4188 0052 E823     		movs	r3, #232
 4189 0054 02F8043D 		strb	r3, [r2, #-4]!
1455:application-library/ili9341-lcd/ili9341.c ****       break;
 4190              		.loc 1 1455 0
 4191 0058 0121     		movs	r1, #1
 4192 005a 3620     		movs	r0, #54
 4193 005c FFF7FEFF 		bl	bus_8080_write_register
 4194              	.LVL309:
 4195              		.loc 1 1458 0
 4196 0060 E2E7     		b	.L255
 4197              		.cfi_endproc
 4198              	.LFE224:
 4200              		.section	.text.lcd_write_message,"ax",%progbits
 4201              		.align	1
 4202              		.global	lcd_write_message
 4203              		.syntax unified
 4204              		.thumb
 4205              		.thumb_func
 4206              		.fpu fpv4-sp-d16
 4208              	lcd_write_message:
 4209              	.LFB225:
1459:application-library/ili9341-lcd/ili9341.c **** 
1460:application-library/ili9341-lcd/ili9341.c **** 
1461:application-library/ili9341-lcd/ili9341.c **** void lcd_write_message(char* message, uint16_t start_coordinate_x, uint16_t start_coordinate_y, uin
 4210              		.loc 1 1461 0
 4211              		.cfi_startproc
 4212              		@ args = 8, pretend = 0, frame = 0
 4213              		@ frame_needed = 0, uses_anonymous_args = 0
 4214              	.LVL310:
 4215 0000 2DE9F043 		push	{r4, r5, r6, r7, r8, r9, lr}
 4216              	.LCFI144:
 4217              		.cfi_def_cfa_offset 28
 4218              		.cfi_offset 4, -28
 4219              		.cfi_offset 5, -24
 4220              		.cfi_offset 6, -20
 4221              		.cfi_offset 7, -16
 4222              		.cfi_offset 8, -12
ARM GAS  /tmp/ccEto00Y.s 			page 98


 4223              		.cfi_offset 9, -8
 4224              		.cfi_offset 14, -4
 4225 0004 83B0     		sub	sp, sp, #12
 4226              	.LCFI145:
 4227              		.cfi_def_cfa_offset 40
 4228 0006 0646     		mov	r6, r0
 4229 0008 0D46     		mov	r5, r1
 4230 000a 9146     		mov	r9, r2
 4231 000c BDF82880 		ldrh	r8, [sp, #40]
 4232 0010 BDF82C70 		ldrh	r7, [sp, #44]
 4233              	.LVL311:
 4234              	.LBB14:
1462:application-library/ili9341-lcd/ili9341.c ****   for(uint8_t i = 0; i< strlen(message); i++){
 4235              		.loc 1 1462 0
 4236 0014 0024     		movs	r4, #0
 4237 0016 0DE0     		b	.L264
 4238              	.LVL312:
 4239              	.L265:
 4240              	.LBB15:
1463:application-library/ili9341-lcd/ili9341.c ****     char single_char = message[i];
 4241              		.loc 1 1463 0 discriminator 3
 4242 0018 325D     		ldrb	r2, [r6, r4]	@ zero_extendqisi2
 4243              	.LVL313:
1464:application-library/ili9341-lcd/ili9341.c ****     lcd_plot_char(start_coordinate_x, start_coordinate_y, single_char, text_color, text_bg_color, 1
 4244              		.loc 1 1464 0 discriminator 3
 4245 001a 0123     		movs	r3, #1
 4246 001c 0193     		str	r3, [sp, #4]
 4247 001e 0097     		str	r7, [sp]
 4248 0020 4346     		mov	r3, r8
 4249 0022 0FFA89F1 		sxth	r1, r9
 4250 0026 28B2     		sxth	r0, r5
 4251 0028 FFF7FEFF 		bl	lcd_plot_char
 4252              	.LVL314:
1465:application-library/ili9341-lcd/ili9341.c ****     start_coordinate_x += 6;
 4253              		.loc 1 1465 0 discriminator 3
 4254 002c 0635     		adds	r5, r5, #6
 4255              	.LVL315:
 4256 002e ADB2     		uxth	r5, r5
 4257              	.LVL316:
 4258              	.LBE15:
1462:application-library/ili9341-lcd/ili9341.c ****     char single_char = message[i];
 4259              		.loc 1 1462 0 discriminator 3
 4260 0030 0134     		adds	r4, r4, #1
 4261              	.LVL317:
 4262 0032 E4B2     		uxtb	r4, r4
 4263              	.LVL318:
 4264              	.L264:
1462:application-library/ili9341-lcd/ili9341.c ****     char single_char = message[i];
 4265              		.loc 1 1462 0 is_stmt 0 discriminator 1
 4266 0034 3046     		mov	r0, r6
 4267 0036 FFF7FEFF 		bl	strlen
 4268              	.LVL319:
 4269 003a 8442     		cmp	r4, r0
 4270 003c ECD3     		bcc	.L265
 4271              	.LBE14:
1466:application-library/ili9341-lcd/ili9341.c ****   }
1467:application-library/ili9341-lcd/ili9341.c **** }
ARM GAS  /tmp/ccEto00Y.s 			page 99


 4272              		.loc 1 1467 0 is_stmt 1
 4273 003e 03B0     		add	sp, sp, #12
 4274              	.LCFI146:
 4275              		.cfi_def_cfa_offset 28
 4276              		@ sp needed
 4277 0040 BDE8F083 		pop	{r4, r5, r6, r7, r8, r9, pc}
 4278              		.cfi_endproc
 4279              	.LFE225:
 4281              		.section	.text.lcd_enter_vertical_scroll_mode,"ax",%progbits
 4282              		.align	1
 4283              		.global	lcd_enter_vertical_scroll_mode
 4284              		.syntax unified
 4285              		.thumb
 4286              		.thumb_func
 4287              		.fpu fpv4-sp-d16
 4289              	lcd_enter_vertical_scroll_mode:
 4290              	.LFB226:
1468:application-library/ili9341-lcd/ili9341.c **** 
1469:application-library/ili9341-lcd/ili9341.c **** /**
1470:application-library/ili9341-lcd/ili9341.c ****   * @brief  Scroll the current display vertically.
1471:application-library/ili9341-lcd/ili9341.c ****   * @note   The screen only supports "vertical scrolling", that means it has following effect:
1472:application-library/ili9341-lcd/ili9341.c ****   *         Before scrolling: 
1473:application-library/ili9341-lcd/ili9341.c ****   *         --------------------------------
1474:application-library/ili9341-lcd/ili9341.c ****   *         -                              -
1475:application-library/ili9341-lcd/ili9341.c ****   *         -    |                         -
1476:application-library/ili9341-lcd/ili9341.c ****   *         -    |                         -
1477:application-library/ili9341-lcd/ili9341.c ****   *         -    |----------               -  
1478:application-library/ili9341-lcd/ili9341.c ****   *         -    |                         -
1479:application-library/ili9341-lcd/ili9341.c ****   *         -    |                         -
1480:application-library/ili9341-lcd/ili9341.c ****   *         -                              -
1481:application-library/ili9341-lcd/ili9341.c ****   *         --------------------------------
1482:application-library/ili9341-lcd/ili9341.c ****   * 
1483:application-library/ili9341-lcd/ili9341.c ****   *         After scrolling: 
1484:application-library/ili9341-lcd/ili9341.c ****   *         --------------------------------
1485:application-library/ili9341-lcd/ili9341.c ****   *         -                              -
1486:application-library/ili9341-lcd/ili9341.c ****   *         -          |                   -
1487:application-library/ili9341-lcd/ili9341.c ****   *         -          |                   -
1488:application-library/ili9341-lcd/ili9341.c ****   *         -          |----------         -  
1489:application-library/ili9341-lcd/ili9341.c ****   *         -          |                   -
1490:application-library/ili9341-lcd/ili9341.c ****   *         -          |                   -
1491:application-library/ili9341-lcd/ili9341.c ****   *         -                              -
1492:application-library/ili9341-lcd/ili9341.c ****   *         --------------------------------
1493:application-library/ili9341-lcd/ili9341.c ****   * 
1494:application-library/ili9341-lcd/ili9341.c ****   *         It is called "vertical" because it scrolls in the vertical placement of the screen.
1495:application-library/ili9341-lcd/ili9341.c ****   */
1496:application-library/ili9341-lcd/ili9341.c **** void lcd_enter_vertical_scroll_mode()
1497:application-library/ili9341-lcd/ili9341.c **** {
 4291              		.loc 1 1497 0
 4292              		.cfi_startproc
 4293              		@ args = 0, pretend = 0, frame = 0
 4294              		@ frame_needed = 0, uses_anonymous_args = 0
 4295 0000 08B5     		push	{r3, lr}
 4296              	.LCFI147:
 4297              		.cfi_def_cfa_offset 8
 4298              		.cfi_offset 3, -8
 4299              		.cfi_offset 14, -4
1498:application-library/ili9341-lcd/ili9341.c ****   ili9341_vertical_scrolling_start_address(100);  // 0x37
ARM GAS  /tmp/ccEto00Y.s 			page 100


 4300              		.loc 1 1498 0
 4301 0002 6420     		movs	r0, #100
 4302 0004 FFF7FEFF 		bl	ili9341_vertical_scrolling_start_address
 4303              	.LVL320:
 4304 0008 08BD     		pop	{r3, pc}
 4305              		.cfi_endproc
 4306              	.LFE226:
 4308              		.section	.text.lcd_continuous_scroll,"ax",%progbits
 4309              		.align	1
 4310              		.global	lcd_continuous_scroll
 4311              		.syntax unified
 4312              		.thumb
 4313              		.thumb_func
 4314              		.fpu fpv4-sp-d16
 4316              	lcd_continuous_scroll:
 4317              	.LFB227:
1499:application-library/ili9341-lcd/ili9341.c **** }
1500:application-library/ili9341-lcd/ili9341.c **** 
1501:application-library/ili9341-lcd/ili9341.c **** 
1502:application-library/ili9341-lcd/ili9341.c **** void lcd_continuous_scroll() 
1503:application-library/ili9341-lcd/ili9341.c **** {
 4318              		.loc 1 1503 0
 4319              		.cfi_startproc
 4320              		@ args = 0, pretend = 0, frame = 0
 4321              		@ frame_needed = 0, uses_anonymous_args = 0
 4322 0000 08B5     		push	{r3, lr}
 4323              	.LCFI148:
 4324              		.cfi_def_cfa_offset 8
 4325              		.cfi_offset 3, -8
 4326              		.cfi_offset 14, -4
1504:application-library/ili9341-lcd/ili9341.c ****   ili9341_set_column_address(0, 0);
 4327              		.loc 1 1504 0
 4328 0002 0021     		movs	r1, #0
 4329 0004 0846     		mov	r0, r1
 4330 0006 FFF7FEFF 		bl	ili9341_set_column_address
 4331              	.LVL321:
1505:application-library/ili9341-lcd/ili9341.c ****   ili9341_set_page_address(0, 0);
 4332              		.loc 1 1505 0
 4333 000a 0021     		movs	r1, #0
 4334 000c 0846     		mov	r0, r1
 4335 000e FFF7FEFF 		bl	ili9341_set_page_address
 4336              	.LVL322:
1506:application-library/ili9341-lcd/ili9341.c **** 
1507:application-library/ili9341-lcd/ili9341.c ****   ili9341_memory_write(); // 0x2C
 4337              		.loc 1 1507 0
 4338 0012 FFF7FEFF 		bl	ili9341_memory_write
 4339              	.LVL323:
1508:application-library/ili9341-lcd/ili9341.c ****   bus_8080_write_command(0x37);
 4340              		.loc 1 1508 0
 4341 0016 3720     		movs	r0, #55
 4342 0018 FFF7FEFF 		bl	bus_8080_write_command
 4343              	.LVL324:
 4344 001c 08BD     		pop	{r3, pc}
 4345              		.cfi_endproc
 4346              	.LFE227:
 4348              		.section	.rodata
 4349              		.align	2
ARM GAS  /tmp/ccEto00Y.s 			page 101


 4350              		.set	.LANCHOR0,. + 0
 4351              	.LC0:
 4352 0000 3E       		.byte	62
 4353 0001 28       		.byte	40
 4354 0002 0000     		.space	2
 4355              	.LC1:
 4356 0004 39       		.byte	57
 4357 0005 2C       		.byte	44
 4358 0006 00       		.byte	0
 4359 0007 34       		.byte	52
 4360 0008 02       		.byte	2
 4361 0009 000000   		.space	3
 4362              	.LC2:
 4363 000c 00       		.byte	0
 4364 000d C1       		.byte	-63
 4365 000e 30       		.byte	48
 4366 000f 00       		.space	1
 4367              	.LC3:
 4368 0010 85       		.byte	-123
 4369 0011 00       		.byte	0
 4370 0012 78       		.byte	120
 4371 0013 00       		.space	1
 4372              	.LC4:
 4373 0014 08       		.byte	8
 4374 0015 82       		.byte	-126
 4375 0016 27       		.byte	39
 4376 0017 00       		.space	1
 4377              	.LC5:
 4378 0018 64       		.byte	100
 4379 0019 03       		.byte	3
 4380 001a 12       		.byte	18
 4381 001b 81       		.byte	-127
 4382              		.section	.rodata.font,"a",%progbits
 4383              		.align	2
 4384              		.set	.LANCHOR1,. + 0
 4387              	font:
 4388 0000 00       		.byte	0
 4389 0001 00       		.byte	0
 4390 0002 00       		.byte	0
 4391 0003 00       		.byte	0
 4392 0004 00       		.byte	0
 4393 0005 3E       		.byte	62
 4394 0006 5B       		.byte	91
 4395 0007 4F       		.byte	79
 4396 0008 5B       		.byte	91
 4397 0009 3E       		.byte	62
 4398 000a 3E       		.byte	62
 4399 000b 6B       		.byte	107
 4400 000c 4F       		.byte	79
 4401 000d 6B       		.byte	107
 4402 000e 3E       		.byte	62
 4403 000f 1C       		.byte	28
 4404 0010 3E       		.byte	62
 4405 0011 7C       		.byte	124
 4406 0012 3E       		.byte	62
 4407 0013 1C       		.byte	28
 4408 0014 18       		.byte	24
ARM GAS  /tmp/ccEto00Y.s 			page 102


 4409 0015 3C       		.byte	60
 4410 0016 7E       		.byte	126
 4411 0017 3C       		.byte	60
 4412 0018 18       		.byte	24
 4413 0019 1C       		.byte	28
 4414 001a 57       		.byte	87
 4415 001b 7D       		.byte	125
 4416 001c 57       		.byte	87
 4417 001d 1C       		.byte	28
 4418 001e 1C       		.byte	28
 4419 001f 5E       		.byte	94
 4420 0020 7F       		.byte	127
 4421 0021 5E       		.byte	94
 4422 0022 1C       		.byte	28
 4423 0023 00       		.byte	0
 4424 0024 18       		.byte	24
 4425 0025 3C       		.byte	60
 4426 0026 18       		.byte	24
 4427 0027 00       		.byte	0
 4428 0028 FF       		.byte	-1
 4429 0029 E7       		.byte	-25
 4430 002a C3       		.byte	-61
 4431 002b E7       		.byte	-25
 4432 002c FF       		.byte	-1
 4433 002d 00       		.byte	0
 4434 002e 18       		.byte	24
 4435 002f 24       		.byte	36
 4436 0030 18       		.byte	24
 4437 0031 00       		.byte	0
 4438 0032 FF       		.byte	-1
 4439 0033 E7       		.byte	-25
 4440 0034 DB       		.byte	-37
 4441 0035 E7       		.byte	-25
 4442 0036 FF       		.byte	-1
 4443 0037 30       		.byte	48
 4444 0038 48       		.byte	72
 4445 0039 3A       		.byte	58
 4446 003a 06       		.byte	6
 4447 003b 0E       		.byte	14
 4448 003c 26       		.byte	38
 4449 003d 29       		.byte	41
 4450 003e 79       		.byte	121
 4451 003f 29       		.byte	41
 4452 0040 26       		.byte	38
 4453 0041 40       		.byte	64
 4454 0042 7F       		.byte	127
 4455 0043 05       		.byte	5
 4456 0044 05       		.byte	5
 4457 0045 07       		.byte	7
 4458 0046 40       		.byte	64
 4459 0047 7F       		.byte	127
 4460 0048 05       		.byte	5
 4461 0049 25       		.byte	37
 4462 004a 3F       		.byte	63
 4463 004b 5A       		.byte	90
 4464 004c 3C       		.byte	60
 4465 004d E7       		.byte	-25
ARM GAS  /tmp/ccEto00Y.s 			page 103


 4466 004e 3C       		.byte	60
 4467 004f 5A       		.byte	90
 4468 0050 7F       		.byte	127
 4469 0051 3E       		.byte	62
 4470 0052 1C       		.byte	28
 4471 0053 1C       		.byte	28
 4472 0054 08       		.byte	8
 4473 0055 08       		.byte	8
 4474 0056 1C       		.byte	28
 4475 0057 1C       		.byte	28
 4476 0058 3E       		.byte	62
 4477 0059 7F       		.byte	127
 4478 005a 14       		.byte	20
 4479 005b 22       		.byte	34
 4480 005c 7F       		.byte	127
 4481 005d 22       		.byte	34
 4482 005e 14       		.byte	20
 4483 005f 5F       		.byte	95
 4484 0060 5F       		.byte	95
 4485 0061 00       		.byte	0
 4486 0062 5F       		.byte	95
 4487 0063 5F       		.byte	95
 4488 0064 06       		.byte	6
 4489 0065 09       		.byte	9
 4490 0066 7F       		.byte	127
 4491 0067 01       		.byte	1
 4492 0068 7F       		.byte	127
 4493 0069 00       		.byte	0
 4494 006a 66       		.byte	102
 4495 006b 89       		.byte	-119
 4496 006c 95       		.byte	-107
 4497 006d 6A       		.byte	106
 4498 006e 60       		.byte	96
 4499 006f 60       		.byte	96
 4500 0070 60       		.byte	96
 4501 0071 60       		.byte	96
 4502 0072 60       		.byte	96
 4503 0073 94       		.byte	-108
 4504 0074 A2       		.byte	-94
 4505 0075 FF       		.byte	-1
 4506 0076 A2       		.byte	-94
 4507 0077 94       		.byte	-108
 4508 0078 08       		.byte	8
 4509 0079 04       		.byte	4
 4510 007a 7E       		.byte	126
 4511 007b 04       		.byte	4
 4512 007c 08       		.byte	8
 4513 007d 10       		.byte	16
 4514 007e 20       		.byte	32
 4515 007f 7E       		.byte	126
 4516 0080 20       		.byte	32
 4517 0081 10       		.byte	16
 4518 0082 08       		.byte	8
 4519 0083 08       		.byte	8
 4520 0084 2A       		.byte	42
 4521 0085 1C       		.byte	28
 4522 0086 08       		.byte	8
ARM GAS  /tmp/ccEto00Y.s 			page 104


 4523 0087 08       		.byte	8
 4524 0088 1C       		.byte	28
 4525 0089 2A       		.byte	42
 4526 008a 08       		.byte	8
 4527 008b 08       		.byte	8
 4528 008c 1E       		.byte	30
 4529 008d 10       		.byte	16
 4530 008e 10       		.byte	16
 4531 008f 10       		.byte	16
 4532 0090 10       		.byte	16
 4533 0091 0C       		.byte	12
 4534 0092 1E       		.byte	30
 4535 0093 0C       		.byte	12
 4536 0094 1E       		.byte	30
 4537 0095 0C       		.byte	12
 4538 0096 30       		.byte	48
 4539 0097 38       		.byte	56
 4540 0098 3E       		.byte	62
 4541 0099 38       		.byte	56
 4542 009a 30       		.byte	48
 4543 009b 06       		.byte	6
 4544 009c 0E       		.byte	14
 4545 009d 3E       		.byte	62
 4546 009e 0E       		.byte	14
 4547 009f 06       		.byte	6
 4548 00a0 00       		.byte	0
 4549 00a1 00       		.byte	0
 4550 00a2 00       		.byte	0
 4551 00a3 00       		.byte	0
 4552 00a4 00       		.byte	0
 4553 00a5 00       		.byte	0
 4554 00a6 00       		.byte	0
 4555 00a7 5F       		.byte	95
 4556 00a8 00       		.byte	0
 4557 00a9 00       		.byte	0
 4558 00aa 00       		.byte	0
 4559 00ab 07       		.byte	7
 4560 00ac 00       		.byte	0
 4561 00ad 07       		.byte	7
 4562 00ae 00       		.byte	0
 4563 00af 14       		.byte	20
 4564 00b0 7F       		.byte	127
 4565 00b1 14       		.byte	20
 4566 00b2 7F       		.byte	127
 4567 00b3 14       		.byte	20
 4568 00b4 24       		.byte	36
 4569 00b5 2A       		.byte	42
 4570 00b6 7F       		.byte	127
 4571 00b7 2A       		.byte	42
 4572 00b8 12       		.byte	18
 4573 00b9 23       		.byte	35
 4574 00ba 13       		.byte	19
 4575 00bb 08       		.byte	8
 4576 00bc 64       		.byte	100
 4577 00bd 62       		.byte	98
 4578 00be 36       		.byte	54
 4579 00bf 49       		.byte	73
ARM GAS  /tmp/ccEto00Y.s 			page 105


 4580 00c0 56       		.byte	86
 4581 00c1 20       		.byte	32
 4582 00c2 50       		.byte	80
 4583 00c3 00       		.byte	0
 4584 00c4 08       		.byte	8
 4585 00c5 07       		.byte	7
 4586 00c6 03       		.byte	3
 4587 00c7 00       		.byte	0
 4588 00c8 00       		.byte	0
 4589 00c9 1C       		.byte	28
 4590 00ca 22       		.byte	34
 4591 00cb 41       		.byte	65
 4592 00cc 00       		.byte	0
 4593 00cd 00       		.byte	0
 4594 00ce 41       		.byte	65
 4595 00cf 22       		.byte	34
 4596 00d0 1C       		.byte	28
 4597 00d1 00       		.byte	0
 4598 00d2 2A       		.byte	42
 4599 00d3 1C       		.byte	28
 4600 00d4 7F       		.byte	127
 4601 00d5 1C       		.byte	28
 4602 00d6 2A       		.byte	42
 4603 00d7 08       		.byte	8
 4604 00d8 08       		.byte	8
 4605 00d9 3E       		.byte	62
 4606 00da 08       		.byte	8
 4607 00db 08       		.byte	8
 4608 00dc 00       		.byte	0
 4609 00dd 80       		.byte	-128
 4610 00de 70       		.byte	112
 4611 00df 30       		.byte	48
 4612 00e0 00       		.byte	0
 4613 00e1 08       		.byte	8
 4614 00e2 08       		.byte	8
 4615 00e3 08       		.byte	8
 4616 00e4 08       		.byte	8
 4617 00e5 08       		.byte	8
 4618 00e6 00       		.byte	0
 4619 00e7 00       		.byte	0
 4620 00e8 60       		.byte	96
 4621 00e9 60       		.byte	96
 4622 00ea 00       		.byte	0
 4623 00eb 20       		.byte	32
 4624 00ec 10       		.byte	16
 4625 00ed 08       		.byte	8
 4626 00ee 04       		.byte	4
 4627 00ef 02       		.byte	2
 4628 00f0 3E       		.byte	62
 4629 00f1 51       		.byte	81
 4630 00f2 49       		.byte	73
 4631 00f3 45       		.byte	69
 4632 00f4 3E       		.byte	62
 4633 00f5 00       		.byte	0
 4634 00f6 42       		.byte	66
 4635 00f7 7F       		.byte	127
 4636 00f8 40       		.byte	64
ARM GAS  /tmp/ccEto00Y.s 			page 106


 4637 00f9 00       		.byte	0
 4638 00fa 72       		.byte	114
 4639 00fb 49       		.byte	73
 4640 00fc 49       		.byte	73
 4641 00fd 49       		.byte	73
 4642 00fe 46       		.byte	70
 4643 00ff 21       		.byte	33
 4644 0100 41       		.byte	65
 4645 0101 49       		.byte	73
 4646 0102 4D       		.byte	77
 4647 0103 33       		.byte	51
 4648 0104 18       		.byte	24
 4649 0105 14       		.byte	20
 4650 0106 12       		.byte	18
 4651 0107 7F       		.byte	127
 4652 0108 10       		.byte	16
 4653 0109 27       		.byte	39
 4654 010a 45       		.byte	69
 4655 010b 45       		.byte	69
 4656 010c 45       		.byte	69
 4657 010d 39       		.byte	57
 4658 010e 3C       		.byte	60
 4659 010f 4A       		.byte	74
 4660 0110 49       		.byte	73
 4661 0111 49       		.byte	73
 4662 0112 31       		.byte	49
 4663 0113 41       		.byte	65
 4664 0114 21       		.byte	33
 4665 0115 11       		.byte	17
 4666 0116 09       		.byte	9
 4667 0117 07       		.byte	7
 4668 0118 36       		.byte	54
 4669 0119 49       		.byte	73
 4670 011a 49       		.byte	73
 4671 011b 49       		.byte	73
 4672 011c 36       		.byte	54
 4673 011d 46       		.byte	70
 4674 011e 49       		.byte	73
 4675 011f 49       		.byte	73
 4676 0120 29       		.byte	41
 4677 0121 1E       		.byte	30
 4678 0122 00       		.byte	0
 4679 0123 00       		.byte	0
 4680 0124 14       		.byte	20
 4681 0125 00       		.byte	0
 4682 0126 00       		.byte	0
 4683 0127 00       		.byte	0
 4684 0128 40       		.byte	64
 4685 0129 34       		.byte	52
 4686 012a 00       		.byte	0
 4687 012b 00       		.byte	0
 4688 012c 00       		.byte	0
 4689 012d 08       		.byte	8
 4690 012e 14       		.byte	20
 4691 012f 22       		.byte	34
 4692 0130 41       		.byte	65
 4693 0131 14       		.byte	20
ARM GAS  /tmp/ccEto00Y.s 			page 107


 4694 0132 14       		.byte	20
 4695 0133 14       		.byte	20
 4696 0134 14       		.byte	20
 4697 0135 14       		.byte	20
 4698 0136 00       		.byte	0
 4699 0137 41       		.byte	65
 4700 0138 22       		.byte	34
 4701 0139 14       		.byte	20
 4702 013a 08       		.byte	8
 4703 013b 02       		.byte	2
 4704 013c 01       		.byte	1
 4705 013d 59       		.byte	89
 4706 013e 09       		.byte	9
 4707 013f 06       		.byte	6
 4708 0140 3E       		.byte	62
 4709 0141 41       		.byte	65
 4710 0142 5D       		.byte	93
 4711 0143 59       		.byte	89
 4712 0144 4E       		.byte	78
 4713 0145 7C       		.byte	124
 4714 0146 12       		.byte	18
 4715 0147 11       		.byte	17
 4716 0148 12       		.byte	18
 4717 0149 7C       		.byte	124
 4718 014a 7F       		.byte	127
 4719 014b 49       		.byte	73
 4720 014c 49       		.byte	73
 4721 014d 49       		.byte	73
 4722 014e 36       		.byte	54
 4723 014f 3E       		.byte	62
 4724 0150 41       		.byte	65
 4725 0151 41       		.byte	65
 4726 0152 41       		.byte	65
 4727 0153 22       		.byte	34
 4728 0154 7F       		.byte	127
 4729 0155 41       		.byte	65
 4730 0156 41       		.byte	65
 4731 0157 41       		.byte	65
 4732 0158 3E       		.byte	62
 4733 0159 7F       		.byte	127
 4734 015a 49       		.byte	73
 4735 015b 49       		.byte	73
 4736 015c 49       		.byte	73
 4737 015d 41       		.byte	65
 4738 015e 7F       		.byte	127
 4739 015f 09       		.byte	9
 4740 0160 09       		.byte	9
 4741 0161 09       		.byte	9
 4742 0162 01       		.byte	1
 4743 0163 3E       		.byte	62
 4744 0164 41       		.byte	65
 4745 0165 41       		.byte	65
 4746 0166 51       		.byte	81
 4747 0167 73       		.byte	115
 4748 0168 7F       		.byte	127
 4749 0169 08       		.byte	8
 4750 016a 08       		.byte	8
ARM GAS  /tmp/ccEto00Y.s 			page 108


 4751 016b 08       		.byte	8
 4752 016c 7F       		.byte	127
 4753 016d 00       		.byte	0
 4754 016e 41       		.byte	65
 4755 016f 7F       		.byte	127
 4756 0170 41       		.byte	65
 4757 0171 00       		.byte	0
 4758 0172 20       		.byte	32
 4759 0173 40       		.byte	64
 4760 0174 41       		.byte	65
 4761 0175 3F       		.byte	63
 4762 0176 01       		.byte	1
 4763 0177 7F       		.byte	127
 4764 0178 08       		.byte	8
 4765 0179 14       		.byte	20
 4766 017a 22       		.byte	34
 4767 017b 41       		.byte	65
 4768 017c 7F       		.byte	127
 4769 017d 40       		.byte	64
 4770 017e 40       		.byte	64
 4771 017f 40       		.byte	64
 4772 0180 40       		.byte	64
 4773 0181 7F       		.byte	127
 4774 0182 02       		.byte	2
 4775 0183 1C       		.byte	28
 4776 0184 02       		.byte	2
 4777 0185 7F       		.byte	127
 4778 0186 7F       		.byte	127
 4779 0187 04       		.byte	4
 4780 0188 08       		.byte	8
 4781 0189 10       		.byte	16
 4782 018a 7F       		.byte	127
 4783 018b 3E       		.byte	62
 4784 018c 41       		.byte	65
 4785 018d 41       		.byte	65
 4786 018e 41       		.byte	65
 4787 018f 3E       		.byte	62
 4788 0190 7F       		.byte	127
 4789 0191 09       		.byte	9
 4790 0192 09       		.byte	9
 4791 0193 09       		.byte	9
 4792 0194 06       		.byte	6
 4793 0195 3E       		.byte	62
 4794 0196 41       		.byte	65
 4795 0197 51       		.byte	81
 4796 0198 21       		.byte	33
 4797 0199 5E       		.byte	94
 4798 019a 7F       		.byte	127
 4799 019b 09       		.byte	9
 4800 019c 19       		.byte	25
 4801 019d 29       		.byte	41
 4802 019e 46       		.byte	70
 4803 019f 26       		.byte	38
 4804 01a0 49       		.byte	73
 4805 01a1 49       		.byte	73
 4806 01a2 49       		.byte	73
 4807 01a3 32       		.byte	50
ARM GAS  /tmp/ccEto00Y.s 			page 109


 4808 01a4 03       		.byte	3
 4809 01a5 01       		.byte	1
 4810 01a6 7F       		.byte	127
 4811 01a7 01       		.byte	1
 4812 01a8 03       		.byte	3
 4813 01a9 3F       		.byte	63
 4814 01aa 40       		.byte	64
 4815 01ab 40       		.byte	64
 4816 01ac 40       		.byte	64
 4817 01ad 3F       		.byte	63
 4818 01ae 1F       		.byte	31
 4819 01af 20       		.byte	32
 4820 01b0 40       		.byte	64
 4821 01b1 20       		.byte	32
 4822 01b2 1F       		.byte	31
 4823 01b3 3F       		.byte	63
 4824 01b4 40       		.byte	64
 4825 01b5 38       		.byte	56
 4826 01b6 40       		.byte	64
 4827 01b7 3F       		.byte	63
 4828 01b8 63       		.byte	99
 4829 01b9 14       		.byte	20
 4830 01ba 08       		.byte	8
 4831 01bb 14       		.byte	20
 4832 01bc 63       		.byte	99
 4833 01bd 03       		.byte	3
 4834 01be 04       		.byte	4
 4835 01bf 78       		.byte	120
 4836 01c0 04       		.byte	4
 4837 01c1 03       		.byte	3
 4838 01c2 61       		.byte	97
 4839 01c3 59       		.byte	89
 4840 01c4 49       		.byte	73
 4841 01c5 4D       		.byte	77
 4842 01c6 43       		.byte	67
 4843 01c7 00       		.byte	0
 4844 01c8 7F       		.byte	127
 4845 01c9 41       		.byte	65
 4846 01ca 41       		.byte	65
 4847 01cb 41       		.byte	65
 4848 01cc 02       		.byte	2
 4849 01cd 04       		.byte	4
 4850 01ce 08       		.byte	8
 4851 01cf 10       		.byte	16
 4852 01d0 20       		.byte	32
 4853 01d1 00       		.byte	0
 4854 01d2 41       		.byte	65
 4855 01d3 41       		.byte	65
 4856 01d4 41       		.byte	65
 4857 01d5 7F       		.byte	127
 4858 01d6 04       		.byte	4
 4859 01d7 02       		.byte	2
 4860 01d8 01       		.byte	1
 4861 01d9 02       		.byte	2
 4862 01da 04       		.byte	4
 4863 01db 40       		.byte	64
 4864 01dc 40       		.byte	64
ARM GAS  /tmp/ccEto00Y.s 			page 110


 4865 01dd 40       		.byte	64
 4866 01de 40       		.byte	64
 4867 01df 40       		.byte	64
 4868 01e0 00       		.byte	0
 4869 01e1 03       		.byte	3
 4870 01e2 07       		.byte	7
 4871 01e3 08       		.byte	8
 4872 01e4 00       		.byte	0
 4873 01e5 20       		.byte	32
 4874 01e6 54       		.byte	84
 4875 01e7 54       		.byte	84
 4876 01e8 78       		.byte	120
 4877 01e9 40       		.byte	64
 4878 01ea 7F       		.byte	127
 4879 01eb 28       		.byte	40
 4880 01ec 44       		.byte	68
 4881 01ed 44       		.byte	68
 4882 01ee 38       		.byte	56
 4883 01ef 38       		.byte	56
 4884 01f0 44       		.byte	68
 4885 01f1 44       		.byte	68
 4886 01f2 44       		.byte	68
 4887 01f3 28       		.byte	40
 4888 01f4 38       		.byte	56
 4889 01f5 44       		.byte	68
 4890 01f6 44       		.byte	68
 4891 01f7 28       		.byte	40
 4892 01f8 7F       		.byte	127
 4893 01f9 38       		.byte	56
 4894 01fa 54       		.byte	84
 4895 01fb 54       		.byte	84
 4896 01fc 54       		.byte	84
 4897 01fd 18       		.byte	24
 4898 01fe 00       		.byte	0
 4899 01ff 08       		.byte	8
 4900 0200 7E       		.byte	126
 4901 0201 09       		.byte	9
 4902 0202 02       		.byte	2
 4903 0203 18       		.byte	24
 4904 0204 A4       		.byte	-92
 4905 0205 A4       		.byte	-92
 4906 0206 9C       		.byte	-100
 4907 0207 78       		.byte	120
 4908 0208 7F       		.byte	127
 4909 0209 08       		.byte	8
 4910 020a 04       		.byte	4
 4911 020b 04       		.byte	4
 4912 020c 78       		.byte	120
 4913 020d 00       		.byte	0
 4914 020e 44       		.byte	68
 4915 020f 7D       		.byte	125
 4916 0210 40       		.byte	64
 4917 0211 00       		.byte	0
 4918 0212 20       		.byte	32
 4919 0213 40       		.byte	64
 4920 0214 40       		.byte	64
 4921 0215 3D       		.byte	61
ARM GAS  /tmp/ccEto00Y.s 			page 111


 4922 0216 00       		.byte	0
 4923 0217 7F       		.byte	127
 4924 0218 10       		.byte	16
 4925 0219 28       		.byte	40
 4926 021a 44       		.byte	68
 4927 021b 00       		.byte	0
 4928 021c 00       		.byte	0
 4929 021d 41       		.byte	65
 4930 021e 7F       		.byte	127
 4931 021f 40       		.byte	64
 4932 0220 00       		.byte	0
 4933 0221 7C       		.byte	124
 4934 0222 04       		.byte	4
 4935 0223 78       		.byte	120
 4936 0224 04       		.byte	4
 4937 0225 78       		.byte	120
 4938 0226 7C       		.byte	124
 4939 0227 08       		.byte	8
 4940 0228 04       		.byte	4
 4941 0229 04       		.byte	4
 4942 022a 78       		.byte	120
 4943 022b 38       		.byte	56
 4944 022c 44       		.byte	68
 4945 022d 44       		.byte	68
 4946 022e 44       		.byte	68
 4947 022f 38       		.byte	56
 4948 0230 FC       		.byte	-4
 4949 0231 18       		.byte	24
 4950 0232 24       		.byte	36
 4951 0233 24       		.byte	36
 4952 0234 18       		.byte	24
 4953 0235 18       		.byte	24
 4954 0236 24       		.byte	36
 4955 0237 24       		.byte	36
 4956 0238 18       		.byte	24
 4957 0239 FC       		.byte	-4
 4958 023a 7C       		.byte	124
 4959 023b 08       		.byte	8
 4960 023c 04       		.byte	4
 4961 023d 04       		.byte	4
 4962 023e 08       		.byte	8
 4963 023f 48       		.byte	72
 4964 0240 54       		.byte	84
 4965 0241 54       		.byte	84
 4966 0242 54       		.byte	84
 4967 0243 24       		.byte	36
 4968 0244 04       		.byte	4
 4969 0245 04       		.byte	4
 4970 0246 3F       		.byte	63
 4971 0247 44       		.byte	68
 4972 0248 24       		.byte	36
 4973 0249 3C       		.byte	60
 4974 024a 40       		.byte	64
 4975 024b 40       		.byte	64
 4976 024c 20       		.byte	32
 4977 024d 7C       		.byte	124
 4978 024e 1C       		.byte	28
ARM GAS  /tmp/ccEto00Y.s 			page 112


 4979 024f 20       		.byte	32
 4980 0250 40       		.byte	64
 4981 0251 20       		.byte	32
 4982 0252 1C       		.byte	28
 4983 0253 3C       		.byte	60
 4984 0254 40       		.byte	64
 4985 0255 30       		.byte	48
 4986 0256 40       		.byte	64
 4987 0257 3C       		.byte	60
 4988 0258 44       		.byte	68
 4989 0259 28       		.byte	40
 4990 025a 10       		.byte	16
 4991 025b 28       		.byte	40
 4992 025c 44       		.byte	68
 4993 025d 4C       		.byte	76
 4994 025e 90       		.byte	-112
 4995 025f 90       		.byte	-112
 4996 0260 90       		.byte	-112
 4997 0261 7C       		.byte	124
 4998 0262 44       		.byte	68
 4999 0263 64       		.byte	100
 5000 0264 54       		.byte	84
 5001 0265 4C       		.byte	76
 5002 0266 44       		.byte	68
 5003 0267 00       		.byte	0
 5004 0268 08       		.byte	8
 5005 0269 36       		.byte	54
 5006 026a 41       		.byte	65
 5007 026b 00       		.byte	0
 5008 026c 00       		.byte	0
 5009 026d 00       		.byte	0
 5010 026e 77       		.byte	119
 5011 026f 00       		.byte	0
 5012 0270 00       		.byte	0
 5013 0271 00       		.byte	0
 5014 0272 41       		.byte	65
 5015 0273 36       		.byte	54
 5016 0274 08       		.byte	8
 5017 0275 00       		.byte	0
 5018 0276 02       		.byte	2
 5019 0277 01       		.byte	1
 5020 0278 02       		.byte	2
 5021 0279 04       		.byte	4
 5022 027a 02       		.byte	2
 5023 027b 3C       		.byte	60
 5024 027c 26       		.byte	38
 5025 027d 23       		.byte	35
 5026 027e 26       		.byte	38
 5027 027f 3C       		.byte	60
 5028 0280 1E       		.byte	30
 5029 0281 A1       		.byte	-95
 5030 0282 A1       		.byte	-95
 5031 0283 61       		.byte	97
 5032 0284 12       		.byte	18
 5033 0285 3A       		.byte	58
 5034 0286 40       		.byte	64
 5035 0287 40       		.byte	64
ARM GAS  /tmp/ccEto00Y.s 			page 113


 5036 0288 20       		.byte	32
 5037 0289 7A       		.byte	122
 5038 028a 38       		.byte	56
 5039 028b 54       		.byte	84
 5040 028c 54       		.byte	84
 5041 028d 55       		.byte	85
 5042 028e 59       		.byte	89
 5043 028f 21       		.byte	33
 5044 0290 55       		.byte	85
 5045 0291 55       		.byte	85
 5046 0292 79       		.byte	121
 5047 0293 41       		.byte	65
 5048 0294 22       		.byte	34
 5049 0295 54       		.byte	84
 5050 0296 54       		.byte	84
 5051 0297 78       		.byte	120
 5052 0298 42       		.byte	66
 5053 0299 21       		.byte	33
 5054 029a 55       		.byte	85
 5055 029b 54       		.byte	84
 5056 029c 78       		.byte	120
 5057 029d 40       		.byte	64
 5058 029e 20       		.byte	32
 5059 029f 54       		.byte	84
 5060 02a0 55       		.byte	85
 5061 02a1 79       		.byte	121
 5062 02a2 40       		.byte	64
 5063 02a3 0C       		.byte	12
 5064 02a4 1E       		.byte	30
 5065 02a5 52       		.byte	82
 5066 02a6 72       		.byte	114
 5067 02a7 12       		.byte	18
 5068 02a8 39       		.byte	57
 5069 02a9 55       		.byte	85
 5070 02aa 55       		.byte	85
 5071 02ab 55       		.byte	85
 5072 02ac 59       		.byte	89
 5073 02ad 39       		.byte	57
 5074 02ae 54       		.byte	84
 5075 02af 54       		.byte	84
 5076 02b0 54       		.byte	84
 5077 02b1 59       		.byte	89
 5078 02b2 39       		.byte	57
 5079 02b3 55       		.byte	85
 5080 02b4 54       		.byte	84
 5081 02b5 54       		.byte	84
 5082 02b6 58       		.byte	88
 5083 02b7 00       		.byte	0
 5084 02b8 00       		.byte	0
 5085 02b9 45       		.byte	69
 5086 02ba 7C       		.byte	124
 5087 02bb 41       		.byte	65
 5088 02bc 00       		.byte	0
 5089 02bd 02       		.byte	2
 5090 02be 45       		.byte	69
 5091 02bf 7D       		.byte	125
 5092 02c0 42       		.byte	66
ARM GAS  /tmp/ccEto00Y.s 			page 114


 5093 02c1 00       		.byte	0
 5094 02c2 01       		.byte	1
 5095 02c3 45       		.byte	69
 5096 02c4 7C       		.byte	124
 5097 02c5 40       		.byte	64
 5098 02c6 7D       		.byte	125
 5099 02c7 12       		.byte	18
 5100 02c8 11       		.byte	17
 5101 02c9 12       		.byte	18
 5102 02ca 7D       		.byte	125
 5103 02cb F0       		.byte	-16
 5104 02cc 28       		.byte	40
 5105 02cd 25       		.byte	37
 5106 02ce 28       		.byte	40
 5107 02cf F0       		.byte	-16
 5108 02d0 7C       		.byte	124
 5109 02d1 54       		.byte	84
 5110 02d2 55       		.byte	85
 5111 02d3 45       		.byte	69
 5112 02d4 00       		.byte	0
 5113 02d5 20       		.byte	32
 5114 02d6 54       		.byte	84
 5115 02d7 54       		.byte	84
 5116 02d8 7C       		.byte	124
 5117 02d9 54       		.byte	84
 5118 02da 7C       		.byte	124
 5119 02db 0A       		.byte	10
 5120 02dc 09       		.byte	9
 5121 02dd 7F       		.byte	127
 5122 02de 49       		.byte	73
 5123 02df 32       		.byte	50
 5124 02e0 49       		.byte	73
 5125 02e1 49       		.byte	73
 5126 02e2 49       		.byte	73
 5127 02e3 32       		.byte	50
 5128 02e4 3A       		.byte	58
 5129 02e5 44       		.byte	68
 5130 02e6 44       		.byte	68
 5131 02e7 44       		.byte	68
 5132 02e8 3A       		.byte	58
 5133 02e9 32       		.byte	50
 5134 02ea 4A       		.byte	74
 5135 02eb 48       		.byte	72
 5136 02ec 48       		.byte	72
 5137 02ed 30       		.byte	48
 5138 02ee 3A       		.byte	58
 5139 02ef 41       		.byte	65
 5140 02f0 41       		.byte	65
 5141 02f1 21       		.byte	33
 5142 02f2 7A       		.byte	122
 5143 02f3 3A       		.byte	58
 5144 02f4 42       		.byte	66
 5145 02f5 40       		.byte	64
 5146 02f6 20       		.byte	32
 5147 02f7 78       		.byte	120
 5148 02f8 00       		.byte	0
 5149 02f9 9D       		.byte	-99
ARM GAS  /tmp/ccEto00Y.s 			page 115


 5150 02fa A0       		.byte	-96
 5151 02fb A0       		.byte	-96
 5152 02fc 7D       		.byte	125
 5153 02fd 3D       		.byte	61
 5154 02fe 42       		.byte	66
 5155 02ff 42       		.byte	66
 5156 0300 42       		.byte	66
 5157 0301 3D       		.byte	61
 5158 0302 3D       		.byte	61
 5159 0303 40       		.byte	64
 5160 0304 40       		.byte	64
 5161 0305 40       		.byte	64
 5162 0306 3D       		.byte	61
 5163 0307 3C       		.byte	60
 5164 0308 24       		.byte	36
 5165 0309 FF       		.byte	-1
 5166 030a 24       		.byte	36
 5167 030b 24       		.byte	36
 5168 030c 48       		.byte	72
 5169 030d 7E       		.byte	126
 5170 030e 49       		.byte	73
 5171 030f 43       		.byte	67
 5172 0310 66       		.byte	102
 5173 0311 2B       		.byte	43
 5174 0312 2F       		.byte	47
 5175 0313 FC       		.byte	-4
 5176 0314 2F       		.byte	47
 5177 0315 2B       		.byte	43
 5178 0316 FF       		.byte	-1
 5179 0317 09       		.byte	9
 5180 0318 29       		.byte	41
 5181 0319 F6       		.byte	-10
 5182 031a 20       		.byte	32
 5183 031b C0       		.byte	-64
 5184 031c 88       		.byte	-120
 5185 031d 7E       		.byte	126
 5186 031e 09       		.byte	9
 5187 031f 03       		.byte	3
 5188 0320 20       		.byte	32
 5189 0321 54       		.byte	84
 5190 0322 54       		.byte	84
 5191 0323 79       		.byte	121
 5192 0324 41       		.byte	65
 5193 0325 00       		.byte	0
 5194 0326 00       		.byte	0
 5195 0327 44       		.byte	68
 5196 0328 7D       		.byte	125
 5197 0329 41       		.byte	65
 5198 032a 30       		.byte	48
 5199 032b 48       		.byte	72
 5200 032c 48       		.byte	72
 5201 032d 4A       		.byte	74
 5202 032e 32       		.byte	50
 5203 032f 38       		.byte	56
 5204 0330 40       		.byte	64
 5205 0331 40       		.byte	64
 5206 0332 22       		.byte	34
ARM GAS  /tmp/ccEto00Y.s 			page 116


 5207 0333 7A       		.byte	122
 5208 0334 00       		.byte	0
 5209 0335 7A       		.byte	122
 5210 0336 0A       		.byte	10
 5211 0337 0A       		.byte	10
 5212 0338 72       		.byte	114
 5213 0339 7D       		.byte	125
 5214 033a 0D       		.byte	13
 5215 033b 19       		.byte	25
 5216 033c 31       		.byte	49
 5217 033d 7D       		.byte	125
 5218 033e 26       		.byte	38
 5219 033f 29       		.byte	41
 5220 0340 29       		.byte	41
 5221 0341 2F       		.byte	47
 5222 0342 28       		.byte	40
 5223 0343 26       		.byte	38
 5224 0344 29       		.byte	41
 5225 0345 29       		.byte	41
 5226 0346 29       		.byte	41
 5227 0347 26       		.byte	38
 5228 0348 30       		.byte	48
 5229 0349 48       		.byte	72
 5230 034a 4D       		.byte	77
 5231 034b 40       		.byte	64
 5232 034c 20       		.byte	32
 5233 034d 38       		.byte	56
 5234 034e 08       		.byte	8
 5235 034f 08       		.byte	8
 5236 0350 08       		.byte	8
 5237 0351 08       		.byte	8
 5238 0352 08       		.byte	8
 5239 0353 08       		.byte	8
 5240 0354 08       		.byte	8
 5241 0355 08       		.byte	8
 5242 0356 38       		.byte	56
 5243 0357 2F       		.byte	47
 5244 0358 10       		.byte	16
 5245 0359 C8       		.byte	-56
 5246 035a AC       		.byte	-84
 5247 035b BA       		.byte	-70
 5248 035c 2F       		.byte	47
 5249 035d 10       		.byte	16
 5250 035e 28       		.byte	40
 5251 035f 34       		.byte	52
 5252 0360 FA       		.byte	-6
 5253 0361 00       		.byte	0
 5254 0362 00       		.byte	0
 5255 0363 7B       		.byte	123
 5256 0364 00       		.byte	0
 5257 0365 00       		.byte	0
 5258 0366 08       		.byte	8
 5259 0367 14       		.byte	20
 5260 0368 2A       		.byte	42
 5261 0369 14       		.byte	20
 5262 036a 22       		.byte	34
 5263 036b 22       		.byte	34
ARM GAS  /tmp/ccEto00Y.s 			page 117


 5264 036c 14       		.byte	20
 5265 036d 2A       		.byte	42
 5266 036e 14       		.byte	20
 5267 036f 08       		.byte	8
 5268 0370 AA       		.byte	-86
 5269 0371 00       		.byte	0
 5270 0372 55       		.byte	85
 5271 0373 00       		.byte	0
 5272 0374 AA       		.byte	-86
 5273 0375 AA       		.byte	-86
 5274 0376 55       		.byte	85
 5275 0377 AA       		.byte	-86
 5276 0378 55       		.byte	85
 5277 0379 AA       		.byte	-86
 5278 037a 00       		.byte	0
 5279 037b 00       		.byte	0
 5280 037c 00       		.byte	0
 5281 037d FF       		.byte	-1
 5282 037e 00       		.byte	0
 5283 037f 10       		.byte	16
 5284 0380 10       		.byte	16
 5285 0381 10       		.byte	16
 5286 0382 FF       		.byte	-1
 5287 0383 00       		.byte	0
 5288 0384 14       		.byte	20
 5289 0385 14       		.byte	20
 5290 0386 14       		.byte	20
 5291 0387 FF       		.byte	-1
 5292 0388 00       		.byte	0
 5293 0389 10       		.byte	16
 5294 038a 10       		.byte	16
 5295 038b FF       		.byte	-1
 5296 038c 00       		.byte	0
 5297 038d FF       		.byte	-1
 5298 038e 10       		.byte	16
 5299 038f 10       		.byte	16
 5300 0390 F0       		.byte	-16
 5301 0391 10       		.byte	16
 5302 0392 F0       		.byte	-16
 5303 0393 14       		.byte	20
 5304 0394 14       		.byte	20
 5305 0395 14       		.byte	20
 5306 0396 FC       		.byte	-4
 5307 0397 00       		.byte	0
 5308 0398 14       		.byte	20
 5309 0399 14       		.byte	20
 5310 039a F7       		.byte	-9
 5311 039b 00       		.byte	0
 5312 039c FF       		.byte	-1
 5313 039d 00       		.byte	0
 5314 039e 00       		.byte	0
 5315 039f FF       		.byte	-1
 5316 03a0 00       		.byte	0
 5317 03a1 FF       		.byte	-1
 5318 03a2 14       		.byte	20
 5319 03a3 14       		.byte	20
 5320 03a4 F4       		.byte	-12
ARM GAS  /tmp/ccEto00Y.s 			page 118


 5321 03a5 04       		.byte	4
 5322 03a6 FC       		.byte	-4
 5323 03a7 14       		.byte	20
 5324 03a8 14       		.byte	20
 5325 03a9 17       		.byte	23
 5326 03aa 10       		.byte	16
 5327 03ab 1F       		.byte	31
 5328 03ac 10       		.byte	16
 5329 03ad 10       		.byte	16
 5330 03ae 1F       		.byte	31
 5331 03af 10       		.byte	16
 5332 03b0 1F       		.byte	31
 5333 03b1 14       		.byte	20
 5334 03b2 14       		.byte	20
 5335 03b3 14       		.byte	20
 5336 03b4 1F       		.byte	31
 5337 03b5 00       		.byte	0
 5338 03b6 10       		.byte	16
 5339 03b7 10       		.byte	16
 5340 03b8 10       		.byte	16
 5341 03b9 F0       		.byte	-16
 5342 03ba 00       		.byte	0
 5343 03bb 00       		.byte	0
 5344 03bc 00       		.byte	0
 5345 03bd 00       		.byte	0
 5346 03be 1F       		.byte	31
 5347 03bf 10       		.byte	16
 5348 03c0 10       		.byte	16
 5349 03c1 10       		.byte	16
 5350 03c2 10       		.byte	16
 5351 03c3 1F       		.byte	31
 5352 03c4 10       		.byte	16
 5353 03c5 10       		.byte	16
 5354 03c6 10       		.byte	16
 5355 03c7 10       		.byte	16
 5356 03c8 F0       		.byte	-16
 5357 03c9 10       		.byte	16
 5358 03ca 00       		.byte	0
 5359 03cb 00       		.byte	0
 5360 03cc 00       		.byte	0
 5361 03cd FF       		.byte	-1
 5362 03ce 10       		.byte	16
 5363 03cf 10       		.byte	16
 5364 03d0 10       		.byte	16
 5365 03d1 10       		.byte	16
 5366 03d2 10       		.byte	16
 5367 03d3 10       		.byte	16
 5368 03d4 10       		.byte	16
 5369 03d5 10       		.byte	16
 5370 03d6 10       		.byte	16
 5371 03d7 FF       		.byte	-1
 5372 03d8 10       		.byte	16
 5373 03d9 00       		.byte	0
 5374 03da 00       		.byte	0
 5375 03db 00       		.byte	0
 5376 03dc FF       		.byte	-1
 5377 03dd 14       		.byte	20
ARM GAS  /tmp/ccEto00Y.s 			page 119


 5378 03de 00       		.byte	0
 5379 03df 00       		.byte	0
 5380 03e0 FF       		.byte	-1
 5381 03e1 00       		.byte	0
 5382 03e2 FF       		.byte	-1
 5383 03e3 00       		.byte	0
 5384 03e4 00       		.byte	0
 5385 03e5 1F       		.byte	31
 5386 03e6 10       		.byte	16
 5387 03e7 17       		.byte	23
 5388 03e8 00       		.byte	0
 5389 03e9 00       		.byte	0
 5390 03ea FC       		.byte	-4
 5391 03eb 04       		.byte	4
 5392 03ec F4       		.byte	-12
 5393 03ed 14       		.byte	20
 5394 03ee 14       		.byte	20
 5395 03ef 17       		.byte	23
 5396 03f0 10       		.byte	16
 5397 03f1 17       		.byte	23
 5398 03f2 14       		.byte	20
 5399 03f3 14       		.byte	20
 5400 03f4 F4       		.byte	-12
 5401 03f5 04       		.byte	4
 5402 03f6 F4       		.byte	-12
 5403 03f7 00       		.byte	0
 5404 03f8 00       		.byte	0
 5405 03f9 FF       		.byte	-1
 5406 03fa 00       		.byte	0
 5407 03fb F7       		.byte	-9
 5408 03fc 14       		.byte	20
 5409 03fd 14       		.byte	20
 5410 03fe 14       		.byte	20
 5411 03ff 14       		.byte	20
 5412 0400 14       		.byte	20
 5413 0401 14       		.byte	20
 5414 0402 14       		.byte	20
 5415 0403 F7       		.byte	-9
 5416 0404 00       		.byte	0
 5417 0405 F7       		.byte	-9
 5418 0406 14       		.byte	20
 5419 0407 14       		.byte	20
 5420 0408 14       		.byte	20
 5421 0409 17       		.byte	23
 5422 040a 14       		.byte	20
 5423 040b 10       		.byte	16
 5424 040c 10       		.byte	16
 5425 040d 1F       		.byte	31
 5426 040e 10       		.byte	16
 5427 040f 1F       		.byte	31
 5428 0410 14       		.byte	20
 5429 0411 14       		.byte	20
 5430 0412 14       		.byte	20
 5431 0413 F4       		.byte	-12
 5432 0414 14       		.byte	20
 5433 0415 10       		.byte	16
 5434 0416 10       		.byte	16
ARM GAS  /tmp/ccEto00Y.s 			page 120


 5435 0417 F0       		.byte	-16
 5436 0418 10       		.byte	16
 5437 0419 F0       		.byte	-16
 5438 041a 00       		.byte	0
 5439 041b 00       		.byte	0
 5440 041c 1F       		.byte	31
 5441 041d 10       		.byte	16
 5442 041e 1F       		.byte	31
 5443 041f 00       		.byte	0
 5444 0420 00       		.byte	0
 5445 0421 00       		.byte	0
 5446 0422 1F       		.byte	31
 5447 0423 14       		.byte	20
 5448 0424 00       		.byte	0
 5449 0425 00       		.byte	0
 5450 0426 00       		.byte	0
 5451 0427 FC       		.byte	-4
 5452 0428 14       		.byte	20
 5453 0429 00       		.byte	0
 5454 042a 00       		.byte	0
 5455 042b F0       		.byte	-16
 5456 042c 10       		.byte	16
 5457 042d F0       		.byte	-16
 5458 042e 10       		.byte	16
 5459 042f 10       		.byte	16
 5460 0430 FF       		.byte	-1
 5461 0431 10       		.byte	16
 5462 0432 FF       		.byte	-1
 5463 0433 14       		.byte	20
 5464 0434 14       		.byte	20
 5465 0435 14       		.byte	20
 5466 0436 FF       		.byte	-1
 5467 0437 14       		.byte	20
 5468 0438 10       		.byte	16
 5469 0439 10       		.byte	16
 5470 043a 10       		.byte	16
 5471 043b 1F       		.byte	31
 5472 043c 00       		.byte	0
 5473 043d 00       		.byte	0
 5474 043e 00       		.byte	0
 5475 043f 00       		.byte	0
 5476 0440 F0       		.byte	-16
 5477 0441 10       		.byte	16
 5478 0442 FF       		.byte	-1
 5479 0443 FF       		.byte	-1
 5480 0444 FF       		.byte	-1
 5481 0445 FF       		.byte	-1
 5482 0446 FF       		.byte	-1
 5483 0447 F0       		.byte	-16
 5484 0448 F0       		.byte	-16
 5485 0449 F0       		.byte	-16
 5486 044a F0       		.byte	-16
 5487 044b F0       		.byte	-16
 5488 044c FF       		.byte	-1
 5489 044d FF       		.byte	-1
 5490 044e FF       		.byte	-1
 5491 044f 00       		.byte	0
ARM GAS  /tmp/ccEto00Y.s 			page 121


 5492 0450 00       		.byte	0
 5493 0451 00       		.byte	0
 5494 0452 00       		.byte	0
 5495 0453 00       		.byte	0
 5496 0454 FF       		.byte	-1
 5497 0455 FF       		.byte	-1
 5498 0456 0F       		.byte	15
 5499 0457 0F       		.byte	15
 5500 0458 0F       		.byte	15
 5501 0459 0F       		.byte	15
 5502 045a 0F       		.byte	15
 5503 045b 38       		.byte	56
 5504 045c 44       		.byte	68
 5505 045d 44       		.byte	68
 5506 045e 38       		.byte	56
 5507 045f 44       		.byte	68
 5508 0460 FC       		.byte	-4
 5509 0461 4A       		.byte	74
 5510 0462 4A       		.byte	74
 5511 0463 4A       		.byte	74
 5512 0464 34       		.byte	52
 5513 0465 7E       		.byte	126
 5514 0466 02       		.byte	2
 5515 0467 02       		.byte	2
 5516 0468 06       		.byte	6
 5517 0469 06       		.byte	6
 5518 046a 02       		.byte	2
 5519 046b 7E       		.byte	126
 5520 046c 02       		.byte	2
 5521 046d 7E       		.byte	126
 5522 046e 02       		.byte	2
 5523 046f 63       		.byte	99
 5524 0470 55       		.byte	85
 5525 0471 49       		.byte	73
 5526 0472 41       		.byte	65
 5527 0473 63       		.byte	99
 5528 0474 38       		.byte	56
 5529 0475 44       		.byte	68
 5530 0476 44       		.byte	68
 5531 0477 3C       		.byte	60
 5532 0478 04       		.byte	4
 5533 0479 40       		.byte	64
 5534 047a 7E       		.byte	126
 5535 047b 20       		.byte	32
 5536 047c 1E       		.byte	30
 5537 047d 20       		.byte	32
 5538 047e 06       		.byte	6
 5539 047f 02       		.byte	2
 5540 0480 7E       		.byte	126
 5541 0481 02       		.byte	2
 5542 0482 02       		.byte	2
 5543 0483 99       		.byte	-103
 5544 0484 A5       		.byte	-91
 5545 0485 E7       		.byte	-25
 5546 0486 A5       		.byte	-91
 5547 0487 99       		.byte	-103
 5548 0488 1C       		.byte	28
ARM GAS  /tmp/ccEto00Y.s 			page 122


 5549 0489 2A       		.byte	42
 5550 048a 49       		.byte	73
 5551 048b 2A       		.byte	42
 5552 048c 1C       		.byte	28
 5553 048d 4C       		.byte	76
 5554 048e 72       		.byte	114
 5555 048f 01       		.byte	1
 5556 0490 72       		.byte	114
 5557 0491 4C       		.byte	76
 5558 0492 30       		.byte	48
 5559 0493 4A       		.byte	74
 5560 0494 4D       		.byte	77
 5561 0495 4D       		.byte	77
 5562 0496 30       		.byte	48
 5563 0497 30       		.byte	48
 5564 0498 48       		.byte	72
 5565 0499 78       		.byte	120
 5566 049a 48       		.byte	72
 5567 049b 30       		.byte	48
 5568 049c BC       		.byte	-68
 5569 049d 62       		.byte	98
 5570 049e 5A       		.byte	90
 5571 049f 46       		.byte	70
 5572 04a0 3D       		.byte	61
 5573 04a1 3E       		.byte	62
 5574 04a2 49       		.byte	73
 5575 04a3 49       		.byte	73
 5576 04a4 49       		.byte	73
 5577 04a5 00       		.byte	0
 5578 04a6 7E       		.byte	126
 5579 04a7 01       		.byte	1
 5580 04a8 01       		.byte	1
 5581 04a9 01       		.byte	1
 5582 04aa 7E       		.byte	126
 5583 04ab 2A       		.byte	42
 5584 04ac 2A       		.byte	42
 5585 04ad 2A       		.byte	42
 5586 04ae 2A       		.byte	42
 5587 04af 2A       		.byte	42
 5588 04b0 44       		.byte	68
 5589 04b1 44       		.byte	68
 5590 04b2 5F       		.byte	95
 5591 04b3 44       		.byte	68
 5592 04b4 44       		.byte	68
 5593 04b5 40       		.byte	64
 5594 04b6 51       		.byte	81
 5595 04b7 4A       		.byte	74
 5596 04b8 44       		.byte	68
 5597 04b9 40       		.byte	64
 5598 04ba 40       		.byte	64
 5599 04bb 44       		.byte	68
 5600 04bc 4A       		.byte	74
 5601 04bd 51       		.byte	81
 5602 04be 40       		.byte	64
 5603 04bf 00       		.byte	0
 5604 04c0 00       		.byte	0
 5605 04c1 FF       		.byte	-1
ARM GAS  /tmp/ccEto00Y.s 			page 123


 5606 04c2 01       		.byte	1
 5607 04c3 03       		.byte	3
 5608 04c4 E0       		.byte	-32
 5609 04c5 80       		.byte	-128
 5610 04c6 FF       		.byte	-1
 5611 04c7 00       		.byte	0
 5612 04c8 00       		.byte	0
 5613 04c9 08       		.byte	8
 5614 04ca 08       		.byte	8
 5615 04cb 6B       		.byte	107
 5616 04cc 6B       		.byte	107
 5617 04cd 08       		.byte	8
 5618 04ce 36       		.byte	54
 5619 04cf 12       		.byte	18
 5620 04d0 36       		.byte	54
 5621 04d1 24       		.byte	36
 5622 04d2 36       		.byte	54
 5623 04d3 06       		.byte	6
 5624 04d4 0F       		.byte	15
 5625 04d5 09       		.byte	9
 5626 04d6 0F       		.byte	15
 5627 04d7 06       		.byte	6
 5628 04d8 00       		.byte	0
 5629 04d9 00       		.byte	0
 5630 04da 18       		.byte	24
 5631 04db 18       		.byte	24
 5632 04dc 00       		.byte	0
 5633 04dd 00       		.byte	0
 5634 04de 00       		.byte	0
 5635 04df 10       		.byte	16
 5636 04e0 10       		.byte	16
 5637 04e1 00       		.byte	0
 5638 04e2 30       		.byte	48
 5639 04e3 40       		.byte	64
 5640 04e4 FF       		.byte	-1
 5641 04e5 01       		.byte	1
 5642 04e6 01       		.byte	1
 5643 04e7 00       		.byte	0
 5644 04e8 1F       		.byte	31
 5645 04e9 01       		.byte	1
 5646 04ea 01       		.byte	1
 5647 04eb 1E       		.byte	30
 5648 04ec 00       		.byte	0
 5649 04ed 19       		.byte	25
 5650 04ee 1D       		.byte	29
 5651 04ef 17       		.byte	23
 5652 04f0 12       		.byte	18
 5653 04f1 00       		.byte	0
 5654 04f2 3C       		.byte	60
 5655 04f3 3C       		.byte	60
 5656 04f4 3C       		.byte	60
 5657 04f5 3C       		.byte	60
 5658 04f6 00       		.byte	0
 5659 04f7 00       		.byte	0
 5660 04f8 00       		.byte	0
 5661 04f9 00       		.byte	0
 5662 04fa 00       		.byte	0
ARM GAS  /tmp/ccEto00Y.s 			page 124


 5663              		.section	.rodata.ili9341_get_CTRL_display.str1.4,"aMS",%progbits,1
 5664              		.align	2
 5665              	.LC17:
 5666 0000 2D205072 		.ascii	"- Printing ILI9341 <CTRL Display> register value -\012"
 5666      696E7469 
 5666      6E672049 
 5666      4C493933 
 5666      3431203C 
 5667 0033 00       		.ascii	"\000"
 5668              	.LC18:
 5669 0034 42435452 		.ascii	"BCTRL (Brightness Control on/off): %d\012\000"
 5669      4C202842 
 5669      72696768 
 5669      746E6573 
 5669      7320436F 
 5670 005b 00       		.space	1
 5671              	.LC19:
 5672 005c 44442028 		.ascii	"DD (Display Dimming on/off): %d\012\000"
 5672      44697370 
 5672      6C617920 
 5672      44696D6D 
 5672      696E6720 
 5673 007d 000000   		.space	3
 5674              	.LC20:
 5675 0080 424C2028 		.ascii	"BL (Complete turn off backlight): %d\012\000"
 5675      436F6D70 
 5675      6C657465 
 5675      20747572 
 5675      6E206F66 
 5676              		.section	.rodata.ili9341_get_display_brightness.str1.4,"aMS",%progbits,1
 5677              		.align	2
 5678              	.LC15:
 5679 0000 2D205072 		.ascii	"- Printing ILI9341 <Display Brightness> register va"
 5679      696E7469 
 5679      6E672049 
 5679      4C493933 
 5679      3431203C 
 5680 0033 6C756520 		.ascii	"lue -\012\000"
 5680      2D0A00
 5681 003a 0000     		.space	2
 5682              	.LC16:
 5683 003c 42726967 		.ascii	"Brightness (0 ~ 255): %#02x\012\000"
 5683      68746E65 
 5683      73732028 
 5683      30207E20 
 5683      32353529 
 5684              		.section	.rodata.ili9341_get_display_pixel_format.str1.4,"aMS",%progbits,1
 5685              		.align	2
 5686              	.LC6:
 5687 0000 2D205072 		.ascii	"- Printing <Display Pixel Format> register value -\012"
 5687      696E7469 
 5687      6E67203C 
 5687      44697370 
 5687      6C617920 
 5688 0033 00       		.ascii	"\000"
 5689              	.LC7:
 5690 0034 44697370 		.ascii	"Display pixel format: RIM:%d DPI: %d DBI: %d \012\000"
ARM GAS  /tmp/ccEto00Y.s 			page 125


 5690      6C617920 
 5690      70697865 
 5690      6C20666F 
 5690      726D6174 
 5691              		.section	.rodata.ili9341_get_display_signal_mode.str1.4,"aMS",%progbits,1
 5692              		.align	2
 5693              	.LC9:
 5694 0000 54656172 		.ascii	"Tearing effect line: %d\012\000"
 5694      696E6720 
 5694      65666665 
 5694      6374206C 
 5694      696E653A 
 5695 0019 000000   		.space	3
 5696              	.LC10:
 5697 001c 54656172 		.ascii	"Tearing effect line mode: %d\012\000"
 5697      696E6720 
 5697      65666665 
 5697      6374206C 
 5697      696E6520 
 5698 003a 0000     		.space	2
 5699              	.LC11:
 5700 003c 486F7269 		.ascii	"Horizontal sync: %d\012\000"
 5700      7A6F6E74 
 5700      616C2073 
 5700      796E633A 
 5700      2025640A 
 5701 0051 000000   		.space	3
 5702              	.LC12:
 5703 0054 56657274 		.ascii	"Vertical sync: %d\012\000"
 5703      6963616C 
 5703      2073796E 
 5703      633A2025 
 5703      640A00
 5704 0067 00       		.space	1
 5705              	.LC13:
 5706 0068 50697865 		.ascii	"Pixel clock: %d\012\000"
 5706      6C20636C 
 5706      6F636B3A 
 5706      2025640A 
 5706      00
 5707 0079 000000   		.space	3
 5708              	.LC14:
 5709 007c 44617461 		.ascii	"Data enable: %d\012\000"
 5709      20656E61 
 5709      626C653A 
 5709      2025640A 
 5709      00
 5710 008d 000000   		.space	3
 5711              	.LC8:
 5712 0090 2D205072 		.ascii	"- Printing <RDDSM (Read Display Signal Mode)> regis"
 5712      696E7469 
 5712      6E67203C 
 5712      52444453 
 5712      4D202852 
 5713 00c3 74657220 		.ascii	"ter value -\012\000"
 5713      76616C75 
 5713      65202D0A 
ARM GAS  /tmp/ccEto00Y.s 			page 126


 5713      00
 5714              		.section	.rodata.ili9341_get_id1.str1.4,"aMS",%progbits,1
 5715              		.align	2
 5716              	.LC21:
 5717 0000 2D205072 		.ascii	"- Printing ILI9341 <id1> register value -\012\000"
 5717      696E7469 
 5717      6E672049 
 5717      4C493933 
 5717      3431203C 
 5718 002b 00       		.space	1
 5719              	.LC22:
 5720 002c 4944313A 		.ascii	"ID1: %#02x\012\000"
 5720      20252330 
 5720      32780A00 
 5721              		.section	.rodata.ili9341_get_id2.str1.4,"aMS",%progbits,1
 5722              		.align	2
 5723              	.LC23:
 5724 0000 2D205072 		.ascii	"- Printing ILI9341 <id2> register value -\012\000"
 5724      696E7469 
 5724      6E672049 
 5724      4C493933 
 5724      3431203C 
 5725 002b 00       		.space	1
 5726              	.LC24:
 5727 002c 4944323A 		.ascii	"ID2: %#02x\012\000"
 5727      20252330 
 5727      32780A00 
 5728              		.section	.rodata.ili9341_get_id3.str1.4,"aMS",%progbits,1
 5729              		.align	2
 5730              	.LC25:
 5731 0000 2D205072 		.ascii	"- Printing ILI9341 <id3> register value -\012\000"
 5731      696E7469 
 5731      6E672049 
 5731      4C493933 
 5731      3431203C 
 5732 002b 00       		.space	1
 5733              	.LC26:
 5734 002c 4944333A 		.ascii	"ID3: %#02x\012\000"
 5734      20252330 
 5734      32780A00 
 5735              		.section	.rodata.ili9341_get_id4.str1.4,"aMS",%progbits,1
 5736              		.align	2
 5737              	.LC27:
 5738 0000 2D205072 		.ascii	"- Printing id4 register value -\012\000"
 5738      696E7469 
 5738      6E672069 
 5738      64342072 
 5738      65676973 
 5739 0021 000000   		.space	3
 5740              	.LC28:
 5741 0024 696C6939 		.ascii	"ili9341 ic version: %d \012IC model: 0x%02x%02x\012"
 5741      33343120 
 5741      69632076 
 5741      65727369 
 5741      6F6E3A20 
 5742 0051 00       		.ascii	"\000"
 5743              		.text
ARM GAS  /tmp/ccEto00Y.s 			page 127


 5744              	.Letext0:
 5745              		.file 2 "/usr/include/newlib/machine/_default_types.h"
 5746              		.file 3 "/usr/include/newlib/sys/_stdint.h"
 5747              		.file 4 "Drivers/CMSIS/Include/core_cm4.h"
 5748              		.file 5 "Drivers/CMSIS/Device/ST/STM32F4xx/Include/system_stm32f4xx.h"
 5749              		.file 6 "Drivers/CMSIS/Device/ST/STM32F4xx/Include/stm32f401xe.h"
 5750              		.file 7 "Drivers/STM32F4xx_HAL_Driver/Inc/stm32f4xx_hal_def.h"
 5751              		.file 8 "Drivers/STM32F4xx_HAL_Driver/Inc/stm32f4xx_hal_gpio.h"
 5752              		.file 9 "Drivers/STM32F4xx_HAL_Driver/Inc/stm32f4xx_hal_dma.h"
 5753              		.file 10 "Drivers/STM32F4xx_HAL_Driver/Inc/stm32f4xx_hal_uart.h"
 5754              		.file 11 "Drivers/STM32F4xx_HAL_Driver/Inc/stm32f4xx_hal.h"
 5755              		.file 12 "/usr/include/newlib/sys/lock.h"
 5756              		.file 13 "/usr/include/newlib/sys/_types.h"
 5757              		.file 14 "/usr/lib/gcc/arm-none-eabi/6.3.1/include/stddef.h"
 5758              		.file 15 "/usr/include/newlib/sys/reent.h"
 5759              		.file 16 "application-library/ili9341-lcd/ili9341.h"
 5760              		.file 17 "/usr/include/newlib/string.h"
 5761              		.file 18 "/usr/include/newlib/stdio.h"
ARM GAS  /tmp/ccEto00Y.s 			page 128


DEFINED SYMBOLS
                            *ABS*:0000000000000000 ili9341.c
     /tmp/ccEto00Y.s:18     .text.LCD_RST_1:0000000000000000 $t
     /tmp/ccEto00Y.s:25     .text.LCD_RST_1:0000000000000000 LCD_RST_1
     /tmp/ccEto00Y.s:47     .text.LCD_RST_1:0000000000000010 $d
     /tmp/ccEto00Y.s:52     .text.LCD_RST_0:0000000000000000 $t
     /tmp/ccEto00Y.s:59     .text.LCD_RST_0:0000000000000000 LCD_RST_0
     /tmp/ccEto00Y.s:80     .text.LCD_RST_0:0000000000000010 $d
     /tmp/ccEto00Y.s:85     .text.LCD_CS_1:0000000000000000 $t
     /tmp/ccEto00Y.s:92     .text.LCD_CS_1:0000000000000000 LCD_CS_1
     /tmp/ccEto00Y.s:113    .text.LCD_CS_1:0000000000000010 $d
     /tmp/ccEto00Y.s:118    .text.LCD_CS_0:0000000000000000 $t
     /tmp/ccEto00Y.s:125    .text.LCD_CS_0:0000000000000000 LCD_CS_0
     /tmp/ccEto00Y.s:146    .text.LCD_CS_0:0000000000000010 $d
     /tmp/ccEto00Y.s:151    .text.LCD_RS_1:0000000000000000 $t
     /tmp/ccEto00Y.s:158    .text.LCD_RS_1:0000000000000000 LCD_RS_1
     /tmp/ccEto00Y.s:179    .text.LCD_RS_1:0000000000000010 $d
     /tmp/ccEto00Y.s:184    .text.LCD_RS_0:0000000000000000 $t
     /tmp/ccEto00Y.s:191    .text.LCD_RS_0:0000000000000000 LCD_RS_0
     /tmp/ccEto00Y.s:212    .text.LCD_RS_0:0000000000000010 $d
     /tmp/ccEto00Y.s:217    .text.LCD_WR_1:0000000000000000 $t
     /tmp/ccEto00Y.s:224    .text.LCD_WR_1:0000000000000000 LCD_WR_1
     /tmp/ccEto00Y.s:245    .text.LCD_WR_1:0000000000000010 $d
     /tmp/ccEto00Y.s:250    .text.LCD_WR_0:0000000000000000 $t
     /tmp/ccEto00Y.s:257    .text.LCD_WR_0:0000000000000000 LCD_WR_0
     /tmp/ccEto00Y.s:278    .text.LCD_WR_0:0000000000000010 $d
     /tmp/ccEto00Y.s:283    .text.LCD_WR_RISING_EDGE:0000000000000000 $t
     /tmp/ccEto00Y.s:290    .text.LCD_WR_RISING_EDGE:0000000000000000 LCD_WR_RISING_EDGE
     /tmp/ccEto00Y.s:318    .text.LCD_WR_RISING_EDGE:000000000000001c $d
     /tmp/ccEto00Y.s:323    .text.LCD_RD_1:0000000000000000 $t
     /tmp/ccEto00Y.s:330    .text.LCD_RD_1:0000000000000000 LCD_RD_1
     /tmp/ccEto00Y.s:351    .text.LCD_RD_1:0000000000000010 $d
     /tmp/ccEto00Y.s:356    .text.LCD_RD_0:0000000000000000 $t
     /tmp/ccEto00Y.s:363    .text.LCD_RD_0:0000000000000000 LCD_RD_0
     /tmp/ccEto00Y.s:384    .text.LCD_RD_0:0000000000000010 $d
     /tmp/ccEto00Y.s:389    .text.gpio_configure_8080_datapins_input_mode:0000000000000000 $t
     /tmp/ccEto00Y.s:396    .text.gpio_configure_8080_datapins_input_mode:0000000000000000 gpio_configure_8080_datapins_input_mode
     /tmp/ccEto00Y.s:458    .text.gpio_configure_8080_datapins_input_mode:0000000000000040 $d
     /tmp/ccEto00Y.s:465    .text.gpio_configure_8080_datapins_output_mode:0000000000000000 $t
     /tmp/ccEto00Y.s:472    .text.gpio_configure_8080_datapins_output_mode:0000000000000000 gpio_configure_8080_datapins_output_mode
     /tmp/ccEto00Y.s:534    .text.gpio_configure_8080_datapins_output_mode:0000000000000040 $d
     /tmp/ccEto00Y.s:541    .text.bus_8080_read_parallel_datapins:0000000000000000 $t
     /tmp/ccEto00Y.s:548    .text.bus_8080_read_parallel_datapins:0000000000000000 bus_8080_read_parallel_datapins
     /tmp/ccEto00Y.s:625    .text.bus_8080_read_parallel_datapins:000000000000007c $d
     /tmp/ccEto00Y.s:632    .text.bus_8080_write_parallel_datapins:0000000000000000 $t
     /tmp/ccEto00Y.s:639    .text.bus_8080_write_parallel_datapins:0000000000000000 bus_8080_write_parallel_datapins
     /tmp/ccEto00Y.s:709    .text.bus_8080_write_parallel_datapins:000000000000006c $d
     /tmp/ccEto00Y.s:716    .text.bus_8080_write_register:0000000000000000 $t
     /tmp/ccEto00Y.s:723    .text.bus_8080_write_register:0000000000000000 bus_8080_write_register
     /tmp/ccEto00Y.s:791    .text.bus_8080_read_register:0000000000000000 $t
     /tmp/ccEto00Y.s:798    .text.bus_8080_read_register:0000000000000000 bus_8080_read_register
     /tmp/ccEto00Y.s:875    .text.bus_8080_write_command:0000000000000000 $t
     /tmp/ccEto00Y.s:882    .text.bus_8080_write_command:0000000000000000 bus_8080_write_command
     /tmp/ccEto00Y.s:922    .text.bus_8080_write_data:0000000000000000 $t
     /tmp/ccEto00Y.s:929    .text.bus_8080_write_data:0000000000000000 bus_8080_write_data
     /tmp/ccEto00Y.s:969    .text.bus_8080_read_data:0000000000000000 $t
     /tmp/ccEto00Y.s:976    .text.bus_8080_read_data:0000000000000000 bus_8080_read_data
ARM GAS  /tmp/ccEto00Y.s 			page 129


     /tmp/ccEto00Y.s:1036   .text.ili9341_hard_reset:0000000000000000 $t
     /tmp/ccEto00Y.s:1043   .text.ili9341_hard_reset:0000000000000000 ili9341_hard_reset
     /tmp/ccEto00Y.s:1080   .text.ili9341_nop:0000000000000000 $t
     /tmp/ccEto00Y.s:1087   .text.ili9341_nop:0000000000000000 ili9341_nop
     /tmp/ccEto00Y.s:1109   .text.ili9341_soft_reset:0000000000000000 $t
     /tmp/ccEto00Y.s:1116   .text.ili9341_soft_reset:0000000000000000 ili9341_soft_reset
     /tmp/ccEto00Y.s:1138   .text.ili9341_get_display_identification:0000000000000000 $t
     /tmp/ccEto00Y.s:1145   .text.ili9341_get_display_identification:0000000000000000 ili9341_get_display_identification
     /tmp/ccEto00Y.s:1158   .text.ili9341_get_display_status:0000000000000000 $t
     /tmp/ccEto00Y.s:1165   .text.ili9341_get_display_status:0000000000000000 ili9341_get_display_status
     /tmp/ccEto00Y.s:1178   .text.ili9341_get_display_power_mode:0000000000000000 $t
     /tmp/ccEto00Y.s:1185   .text.ili9341_get_display_power_mode:0000000000000000 ili9341_get_display_power_mode
     /tmp/ccEto00Y.s:1198   .text.ili9341_get_display_MADCTL:0000000000000000 $t
     /tmp/ccEto00Y.s:1205   .text.ili9341_get_display_MADCTL:0000000000000000 ili9341_get_display_MADCTL
     /tmp/ccEto00Y.s:1218   .text.ili9341_get_display_pixel_format:0000000000000000 $t
     /tmp/ccEto00Y.s:1225   .text.ili9341_get_display_pixel_format:0000000000000000 ili9341_get_display_pixel_format
     /tmp/ccEto00Y.s:1290   .text.ili9341_get_display_pixel_format:000000000000004c $d
     /tmp/ccEto00Y.s:1296   .text.ili9341_get_display_image_format:0000000000000000 $t
     /tmp/ccEto00Y.s:1303   .text.ili9341_get_display_image_format:0000000000000000 ili9341_get_display_image_format
     /tmp/ccEto00Y.s:1316   .text.ili9341_get_display_signal_mode:0000000000000000 $t
     /tmp/ccEto00Y.s:1323   .text.ili9341_get_display_signal_mode:0000000000000000 ili9341_get_display_signal_mode
     /tmp/ccEto00Y.s:1439   .text.ili9341_get_display_signal_mode:00000000000000ac $d
     /tmp/ccEto00Y.s:1450   .text.ili9341_get_display_diagnostic_result:0000000000000000 $t
     /tmp/ccEto00Y.s:1457   .text.ili9341_get_display_diagnostic_result:0000000000000000 ili9341_get_display_diagnostic_result
     /tmp/ccEto00Y.s:1470   .text.ili9341_enter_sleep_mode:0000000000000000 $t
     /tmp/ccEto00Y.s:1477   .text.ili9341_enter_sleep_mode:0000000000000000 ili9341_enter_sleep_mode
     /tmp/ccEto00Y.s:1500   .text.ili9341_exit_sleep_mode:0000000000000000 $t
     /tmp/ccEto00Y.s:1507   .text.ili9341_exit_sleep_mode:0000000000000000 ili9341_exit_sleep_mode
     /tmp/ccEto00Y.s:1533   .text.ili9341_set_partial_mode_on:0000000000000000 $t
     /tmp/ccEto00Y.s:1540   .text.ili9341_set_partial_mode_on:0000000000000000 ili9341_set_partial_mode_on
     /tmp/ccEto00Y.s:1562   .text.ili9341_normal_mode_on:0000000000000000 $t
     /tmp/ccEto00Y.s:1569   .text.ili9341_normal_mode_on:0000000000000000 ili9341_normal_mode_on
     /tmp/ccEto00Y.s:1591   .text.ili9341_set_display_inversion_off:0000000000000000 $t
     /tmp/ccEto00Y.s:1598   .text.ili9341_set_display_inversion_off:0000000000000000 ili9341_set_display_inversion_off
     /tmp/ccEto00Y.s:1620   .text.ili9341_set_display_inversion_on:0000000000000000 $t
     /tmp/ccEto00Y.s:1627   .text.ili9341_set_display_inversion_on:0000000000000000 ili9341_set_display_inversion_on
     /tmp/ccEto00Y.s:1649   .text.ili9341_set_gamma:0000000000000000 $t
     /tmp/ccEto00Y.s:1656   .text.ili9341_set_gamma:0000000000000000 ili9341_set_gamma
     /tmp/ccEto00Y.s:1688   .text.ili9341_set_display_off:0000000000000000 $t
     /tmp/ccEto00Y.s:1695   .text.ili9341_set_display_off:0000000000000000 ili9341_set_display_off
     /tmp/ccEto00Y.s:1717   .text.ili9341_set_display_on:0000000000000000 $t
     /tmp/ccEto00Y.s:1724   .text.ili9341_set_display_on:0000000000000000 ili9341_set_display_on
     /tmp/ccEto00Y.s:1746   .text.ili9341_set_column_address:0000000000000000 $t
     /tmp/ccEto00Y.s:1753   .text.ili9341_set_column_address:0000000000000000 ili9341_set_column_address
     /tmp/ccEto00Y.s:1792   .text.ili9341_set_page_address:0000000000000000 $t
     /tmp/ccEto00Y.s:1799   .text.ili9341_set_page_address:0000000000000000 ili9341_set_page_address
     /tmp/ccEto00Y.s:1838   .text.ili9341_memory_write:0000000000000000 $t
     /tmp/ccEto00Y.s:1845   .text.ili9341_memory_write:0000000000000000 ili9341_memory_write
     /tmp/ccEto00Y.s:1867   .text.ili9341_set_color:0000000000000000 $t
     /tmp/ccEto00Y.s:1874   .text.ili9341_set_color:0000000000000000 ili9341_set_color
     /tmp/ccEto00Y.s:1886   .text.ili9341_memory_read:0000000000000000 $t
     /tmp/ccEto00Y.s:1893   .text.ili9341_memory_read:0000000000000000 ili9341_memory_read
     /tmp/ccEto00Y.s:1905   .text.ili9341_set_partial_area:0000000000000000 $t
     /tmp/ccEto00Y.s:1912   .text.ili9341_set_partial_area:0000000000000000 ili9341_set_partial_area
     /tmp/ccEto00Y.s:1924   .text.ili9341_set_vertical_scrolling_definition:0000000000000000 $t
     /tmp/ccEto00Y.s:1931   .text.ili9341_set_vertical_scrolling_definition:0000000000000000 ili9341_set_vertical_scrolling_definition
     /tmp/ccEto00Y.s:1975   .text.ili9341_set_tearing_effect_line_off:0000000000000000 $t
ARM GAS  /tmp/ccEto00Y.s 			page 130


     /tmp/ccEto00Y.s:1982   .text.ili9341_set_tearing_effect_line_off:0000000000000000 ili9341_set_tearing_effect_line_off
     /tmp/ccEto00Y.s:1994   .text.ili9341_set_tearing_effect_line_on:0000000000000000 $t
     /tmp/ccEto00Y.s:2001   .text.ili9341_set_tearing_effect_line_on:0000000000000000 ili9341_set_tearing_effect_line_on
     /tmp/ccEto00Y.s:2033   .text.ili9341_set_memory_access_control:0000000000000000 $t
     /tmp/ccEto00Y.s:2040   .text.ili9341_set_memory_access_control:0000000000000000 ili9341_set_memory_access_control
     /tmp/ccEto00Y.s:2073   .text.ili9341_vertical_scrolling_start_address:0000000000000000 $t
     /tmp/ccEto00Y.s:2080   .text.ili9341_vertical_scrolling_start_address:0000000000000000 ili9341_vertical_scrolling_start_address
     /tmp/ccEto00Y.s:2116   .text.ili9341_set_idle_mode_off:0000000000000000 $t
     /tmp/ccEto00Y.s:2123   .text.ili9341_set_idle_mode_off:0000000000000000 ili9341_set_idle_mode_off
     /tmp/ccEto00Y.s:2145   .text.ili9341_set_idle_mode_on:0000000000000000 $t
     /tmp/ccEto00Y.s:2152   .text.ili9341_set_idle_mode_on:0000000000000000 ili9341_set_idle_mode_on
     /tmp/ccEto00Y.s:2174   .text.ili9341_set_pixel_format_set:0000000000000000 $t
     /tmp/ccEto00Y.s:2181   .text.ili9341_set_pixel_format_set:0000000000000000 ili9341_set_pixel_format_set
     /tmp/ccEto00Y.s:2213   .text.ili9341_write_memory_continue:0000000000000000 $t
     /tmp/ccEto00Y.s:2220   .text.ili9341_write_memory_continue:0000000000000000 ili9341_write_memory_continue
     /tmp/ccEto00Y.s:2232   .text.ili9341_read_memory_continue:0000000000000000 $t
     /tmp/ccEto00Y.s:2239   .text.ili9341_read_memory_continue:0000000000000000 ili9341_read_memory_continue
     /tmp/ccEto00Y.s:2251   .text.ili9341_set_tear_scanline:0000000000000000 $t
     /tmp/ccEto00Y.s:2258   .text.ili9341_set_tear_scanline:0000000000000000 ili9341_set_tear_scanline
     /tmp/ccEto00Y.s:2270   .text.ili9341_get_scanline:0000000000000000 $t
     /tmp/ccEto00Y.s:2277   .text.ili9341_get_scanline:0000000000000000 ili9341_get_scanline
     /tmp/ccEto00Y.s:2289   .text.ili9341_set_display_brightness:0000000000000000 $t
     /tmp/ccEto00Y.s:2296   .text.ili9341_set_display_brightness:0000000000000000 ili9341_set_display_brightness
     /tmp/ccEto00Y.s:2329   .text.ili9341_get_display_brightness:0000000000000000 $t
     /tmp/ccEto00Y.s:2336   .text.ili9341_get_display_brightness:0000000000000000 ili9341_get_display_brightness
     /tmp/ccEto00Y.s:2397   .text.ili9341_get_display_brightness:0000000000000044 $d
     /tmp/ccEto00Y.s:2403   .text.ili9341_set_CTRL_display:0000000000000000 $t
     /tmp/ccEto00Y.s:2410   .text.ili9341_set_CTRL_display:0000000000000000 ili9341_set_CTRL_display
     /tmp/ccEto00Y.s:2442   .text.ili9341_get_CTRL_display:0000000000000000 $t
     /tmp/ccEto00Y.s:2449   .text.ili9341_get_CTRL_display:0000000000000000 ili9341_get_CTRL_display
     /tmp/ccEto00Y.s:2532   .text.ili9341_get_CTRL_display:000000000000006c $d
     /tmp/ccEto00Y.s:2540   .text.ili9341_set_content_adaptive_brightness_control:0000000000000000 $t
     /tmp/ccEto00Y.s:2547   .text.ili9341_set_content_adaptive_brightness_control:0000000000000000 ili9341_set_content_adaptive_brightness_control
     /tmp/ccEto00Y.s:2559   .text.ili9341_get_content_adaptive_brightness_control:0000000000000000 $t
     /tmp/ccEto00Y.s:2566   .text.ili9341_get_content_adaptive_brightness_control:0000000000000000 ili9341_get_content_adaptive_brightness_control
     /tmp/ccEto00Y.s:2578   .text.ili9341_set_CABC_minimum_brightness:0000000000000000 $t
     /tmp/ccEto00Y.s:2585   .text.ili9341_set_CABC_minimum_brightness:0000000000000000 ili9341_set_CABC_minimum_brightness
     /tmp/ccEto00Y.s:2597   .text.ili9341_get_CABC_minimum_brightness:0000000000000000 $t
     /tmp/ccEto00Y.s:2604   .text.ili9341_get_CABC_minimum_brightness:0000000000000000 ili9341_get_CABC_minimum_brightness
     /tmp/ccEto00Y.s:2616   .text.ili9341_get_id1:0000000000000000 $t
     /tmp/ccEto00Y.s:2623   .text.ili9341_get_id1:0000000000000000 ili9341_get_id1
     /tmp/ccEto00Y.s:2685   .text.ili9341_get_id1:0000000000000044 $d
     /tmp/ccEto00Y.s:2691   .text.ili9341_get_id2:0000000000000000 $t
     /tmp/ccEto00Y.s:2698   .text.ili9341_get_id2:0000000000000000 ili9341_get_id2
     /tmp/ccEto00Y.s:2759   .text.ili9341_get_id2:0000000000000044 $d
     /tmp/ccEto00Y.s:2765   .text.ili9341_get_id3:0000000000000000 $t
     /tmp/ccEto00Y.s:2772   .text.ili9341_get_id3:0000000000000000 ili9341_get_id3
     /tmp/ccEto00Y.s:2833   .text.ili9341_get_id3:0000000000000044 $d
     /tmp/ccEto00Y.s:2839   .text.ili9341_set_power_control1:0000000000000000 $t
     /tmp/ccEto00Y.s:2846   .text.ili9341_set_power_control1:0000000000000000 ili9341_set_power_control1
     /tmp/ccEto00Y.s:2878   .text.ili9341_set_power_control2:0000000000000000 $t
     /tmp/ccEto00Y.s:2885   .text.ili9341_set_power_control2:0000000000000000 ili9341_set_power_control2
     /tmp/ccEto00Y.s:2917   .text.ili9341_set_vcom_control1:0000000000000000 $t
     /tmp/ccEto00Y.s:2924   .text.ili9341_set_vcom_control1:0000000000000000 ili9341_set_vcom_control1
     /tmp/ccEto00Y.s:2956   .text.ili9341_set_vcom_control1:000000000000001c $d
     /tmp/ccEto00Y.s:2961   .text.ili9341_set_vcom_control2:0000000000000000 $t
     /tmp/ccEto00Y.s:2968   .text.ili9341_set_vcom_control2:0000000000000000 ili9341_set_vcom_control2
ARM GAS  /tmp/ccEto00Y.s 			page 131


     /tmp/ccEto00Y.s:3000   .text.ili9341_get_id4:0000000000000000 $t
     /tmp/ccEto00Y.s:3007   .text.ili9341_get_id4:0000000000000000 ili9341_get_id4
     /tmp/ccEto00Y.s:3068   .text.ili9341_get_id4:0000000000000040 $d
     /tmp/ccEto00Y.s:3074   .text.ili9341_set_power_control_a:0000000000000000 $t
     /tmp/ccEto00Y.s:3081   .text.ili9341_set_power_control_a:0000000000000000 ili9341_set_power_control_a
     /tmp/ccEto00Y.s:3114   .text.ili9341_set_power_control_a:0000000000000020 $d
     /tmp/ccEto00Y.s:3119   .text.ili9341_set_power_control_b:0000000000000000 $t
     /tmp/ccEto00Y.s:3126   .text.ili9341_set_power_control_b:0000000000000000 ili9341_set_power_control_b
     /tmp/ccEto00Y.s:3160   .text.ili9341_set_power_control_b:0000000000000024 $d
     /tmp/ccEto00Y.s:3165   .text.ili9341_set_driver_timing_control_a:0000000000000000 $t
     /tmp/ccEto00Y.s:3172   .text.ili9341_set_driver_timing_control_a:0000000000000000 ili9341_set_driver_timing_control_a
     /tmp/ccEto00Y.s:3206   .text.ili9341_set_driver_timing_control_a:0000000000000024 $d
     /tmp/ccEto00Y.s:3211   .text.ili9341_set_driver_timing_control_b:0000000000000000 $t
     /tmp/ccEto00Y.s:3218   .text.ili9341_set_driver_timing_control_b:0000000000000000 ili9341_set_driver_timing_control_b
     /tmp/ccEto00Y.s:3251   .text.ili9341_set_poweron_sequence_control:0000000000000000 $t
     /tmp/ccEto00Y.s:3258   .text.ili9341_set_poweron_sequence_control:0000000000000000 ili9341_set_poweron_sequence_control
     /tmp/ccEto00Y.s:3270   .text.ili9341_enable_3G:0000000000000000 $t
     /tmp/ccEto00Y.s:3277   .text.ili9341_enable_3G:0000000000000000 ili9341_enable_3G
     /tmp/ccEto00Y.s:3289   .text.ili9341_set_frame_rate_control:0000000000000000 $t
     /tmp/ccEto00Y.s:3296   .text.ili9341_set_frame_rate_control:0000000000000000 ili9341_set_frame_rate_control
     /tmp/ccEto00Y.s:3331   .text.ili9341_set_display_function_control:0000000000000000 $t
     /tmp/ccEto00Y.s:3338   .text.ili9341_set_display_function_control:0000000000000000 ili9341_set_display_function_control
     /tmp/ccEto00Y.s:3372   .text.ili9341_set_display_function_control:0000000000000024 $d
     /tmp/ccEto00Y.s:3377   .text.ili9341_set_poweron_sequence_control_b:0000000000000000 $t
     /tmp/ccEto00Y.s:3384   .text.ili9341_set_poweron_sequence_control_b:0000000000000000 ili9341_set_poweron_sequence_control_b
     /tmp/ccEto00Y.s:3416   .text.ili9341_set_poweron_sequence_control_b:000000000000001c $d
     /tmp/ccEto00Y.s:3421   .text.ili9341_set_pump_ratio_control:0000000000000000 $t
     /tmp/ccEto00Y.s:3428   .text.ili9341_set_pump_ratio_control:0000000000000000 ili9341_set_pump_ratio_control
     /tmp/ccEto00Y.s:3460   .text.ili9341_init:0000000000000000 $t
     /tmp/ccEto00Y.s:3467   .text.ili9341_init:0000000000000000 ili9341_init
     /tmp/ccEto00Y.s:3538   .text.ili9341_set_frame_address:0000000000000000 $t
     /tmp/ccEto00Y.s:3545   .text.ili9341_set_frame_address:0000000000000000 ili9341_set_frame_address
     /tmp/ccEto00Y.s:3579   .text.lcd_draw_horizontal_line:0000000000000000 $t
     /tmp/ccEto00Y.s:3586   .text.lcd_draw_horizontal_line:0000000000000000 lcd_draw_horizontal_line
     /tmp/ccEto00Y.s:3650   .text.lcd_draw_vertical_line:0000000000000000 $t
     /tmp/ccEto00Y.s:3657   .text.lcd_draw_vertical_line:0000000000000000 lcd_draw_vertical_line
     /tmp/ccEto00Y.s:3723   .text.lcd_draw_rectangle_unfilled:0000000000000000 $t
     /tmp/ccEto00Y.s:3730   .text.lcd_draw_rectangle_unfilled:0000000000000000 lcd_draw_rectangle_unfilled
     /tmp/ccEto00Y.s:3784   .text.lcd_draw_rectangle_filled:0000000000000000 $t
     /tmp/ccEto00Y.s:3791   .text.lcd_draw_rectangle_filled:0000000000000000 lcd_draw_rectangle_filled
     /tmp/ccEto00Y.s:3845   .text.lcd_clear_all:0000000000000000 $t
     /tmp/ccEto00Y.s:3852   .text.lcd_clear_all:0000000000000000 lcd_clear_all
     /tmp/ccEto00Y.s:3920   .text.lcd_draw_dot:0000000000000000 $t
     /tmp/ccEto00Y.s:3927   .text.lcd_draw_dot:0000000000000000 lcd_draw_dot
     /tmp/ccEto00Y.s:3964   .text.lcd_plot_char:0000000000000000 $t
     /tmp/ccEto00Y.s:3971   .text.lcd_plot_char:0000000000000000 lcd_plot_char
     /tmp/ccEto00Y.s:4098   .text.lcd_plot_char:0000000000000084 $d
     /tmp/ccEto00Y.s:4103   .text.lcd_set_rotation:0000000000000000 $t
     /tmp/ccEto00Y.s:4110   .text.lcd_set_rotation:0000000000000000 lcd_set_rotation
     /tmp/ccEto00Y.s:4136   .text.lcd_set_rotation:0000000000000014 $d
     /tmp/ccEto00Y.s:4140   .text.lcd_set_rotation:0000000000000018 $t
     /tmp/ccEto00Y.s:4201   .text.lcd_write_message:0000000000000000 $t
     /tmp/ccEto00Y.s:4208   .text.lcd_write_message:0000000000000000 lcd_write_message
     /tmp/ccEto00Y.s:4282   .text.lcd_enter_vertical_scroll_mode:0000000000000000 $t
     /tmp/ccEto00Y.s:4289   .text.lcd_enter_vertical_scroll_mode:0000000000000000 lcd_enter_vertical_scroll_mode
     /tmp/ccEto00Y.s:4309   .text.lcd_continuous_scroll:0000000000000000 $t
     /tmp/ccEto00Y.s:4316   .text.lcd_continuous_scroll:0000000000000000 lcd_continuous_scroll
ARM GAS  /tmp/ccEto00Y.s 			page 132


     /tmp/ccEto00Y.s:4349   .rodata:0000000000000000 $d
     /tmp/ccEto00Y.s:4383   .rodata.font:0000000000000000 $d
     /tmp/ccEto00Y.s:4387   .rodata.font:0000000000000000 font
     /tmp/ccEto00Y.s:5664   .rodata.ili9341_get_CTRL_display.str1.4:0000000000000000 $d
     /tmp/ccEto00Y.s:5677   .rodata.ili9341_get_display_brightness.str1.4:0000000000000000 $d
     /tmp/ccEto00Y.s:5685   .rodata.ili9341_get_display_pixel_format.str1.4:0000000000000000 $d
     /tmp/ccEto00Y.s:5692   .rodata.ili9341_get_display_signal_mode.str1.4:0000000000000000 $d
     /tmp/ccEto00Y.s:5715   .rodata.ili9341_get_id1.str1.4:0000000000000000 $d
     /tmp/ccEto00Y.s:5722   .rodata.ili9341_get_id2.str1.4:0000000000000000 $d
     /tmp/ccEto00Y.s:5729   .rodata.ili9341_get_id3.str1.4:0000000000000000 $d
     /tmp/ccEto00Y.s:5736   .rodata.ili9341_get_id4.str1.4:0000000000000000 $d
                     .debug_frame:0000000000000010 $d

UNDEFINED SYMBOLS
HAL_GPIO_WritePin
HAL_GPIO_Init
HAL_GPIO_ReadPin
HAL_Delay
serial_print
sprintf
strlen
