ARM GAS  /tmp/ccoB52Ks.s 			page 1


   1              		.cpu cortex-m4
   2              		.eabi_attribute 27, 1
   3              		.eabi_attribute 28, 1
   4              		.eabi_attribute 20, 1
   5              		.eabi_attribute 21, 1
   6              		.eabi_attribute 23, 3
   7              		.eabi_attribute 24, 1
   8              		.eabi_attribute 25, 1
   9              		.eabi_attribute 26, 1
  10              		.eabi_attribute 30, 1
  11              		.eabi_attribute 34, 1
  12              		.eabi_attribute 18, 4
  13              		.file	"ili9341.c"
  14              		.text
  15              	.Ltext0:
  16              		.cfi_sections	.debug_frame
  17              		.section	.text.LCD_RST_1,"ax",%progbits
  18              		.align	1
  19              		.global	LCD_RST_1
  20              		.syntax unified
  21              		.thumb
  22              		.thumb_func
  23              		.fpu fpv4-sp-d16
  25              	LCD_RST_1:
  26              	.LFB131:
  27              		.file 1 "application-library/ili9341-lcd/ili9341.c"
   1:application-library/ili9341-lcd/ili9341.c **** /**
   2:application-library/ili9341-lcd/ili9341.c ****   ******** ******** ******** ******** ******** ******** ******** ******** ******** ******** *******
   3:application-library/ili9341-lcd/ili9341.c ****   * @file      :     ili9341.c
   4:application-library/ili9341-lcd/ili9341.c ****   * @author    :     Luyao Han
   5:application-library/ili9341-lcd/ili9341.c ****   * @email     :     luyaohan1001@gmail.com
   6:application-library/ili9341-lcd/ili9341.c ****   * @brief     :     C library for ILITEK ili9341 TFTLCD Controller.
   7:application-library/ili9341-lcd/ili9341.c ****   * @date      :     05-07-2022
   8:application-library/ili9341-lcd/ili9341.c ****   * Copyright (C) 2022-2122 Luyao Han. The following code may be shared or modified for personal us
   9:application-library/ili9341-lcd/ili9341.c ****   ******** ******** ******** ******** ******** ******** ******** ******** ******** ******** *******
  10:application-library/ili9341-lcd/ili9341.c **** 
  11:application-library/ili9341-lcd/ili9341.c **** /* Includes ---------------------------------------------------------------------------------------
  12:application-library/ili9341-lcd/ili9341.c **** #include "ili9341.h"
  13:application-library/ili9341-lcd/ili9341.c **** 
  14:application-library/ili9341-lcd/ili9341.c **** /* Macros -----------------------------------------------------------------------------------------
  15:application-library/ili9341-lcd/ili9341.c **** #define ILI9341_DEBUG /* When defined, debug messages are logged through serial_print(). */
  16:application-library/ili9341-lcd/ili9341.c **** 
  17:application-library/ili9341-lcd/ili9341.c **** /* GPIO physical layer ----------------------------------------------------------------------------
  18:application-library/ili9341-lcd/ili9341.c **** /* GPIO Defined on STM32F401 */
  19:application-library/ili9341-lcd/ili9341.c **** /* Module Pin Name         Description                Assigned GPIO */
  20:application-library/ili9341-lcd/ili9341.c **** /* LCD_RST                 Reset                      PC1 */
  21:application-library/ili9341-lcd/ili9341.c **** /* LCD_CS                  8080 Chip Select           PB0 */
  22:application-library/ili9341-lcd/ili9341.c **** /* LCD_RS (D/CX)           Data / Command Select      PA4 */
  23:application-library/ili9341-lcd/ili9341.c **** /* LCD_WR                  Write Enable               PA1 */
  24:application-library/ili9341-lcd/ili9341.c **** /* LCD_RD                  Read Enable                PA0 */
  25:application-library/ili9341-lcd/ili9341.c **** /* LCD_D2                  8080 Data 2                PA10*/
  26:application-library/ili9341-lcd/ili9341.c **** /* LCD_D3                  8080 Data 3                PB3*/
  27:application-library/ili9341-lcd/ili9341.c **** /* LCD_D4                  8080 Data 4                PB5*/
  28:application-library/ili9341-lcd/ili9341.c **** /* LCD_D5                  8080 Data 5                PB4*/
  29:application-library/ili9341-lcd/ili9341.c **** /* LCD_D6                  8080 Data 6                PB10*/
  30:application-library/ili9341-lcd/ili9341.c **** /* LCD_D7                  8080 Data 7                PA8*/
  31:application-library/ili9341-lcd/ili9341.c **** /* LCD_D0                  8080 Data 0                PA9*/
ARM GAS  /tmp/ccoB52Ks.s 			page 2


  32:application-library/ili9341-lcd/ili9341.c **** /* LCD_D1                  8080 Data 1                PC7*/
  33:application-library/ili9341-lcd/ili9341.c **** 
  34:application-library/ili9341-lcd/ili9341.c **** /**
  35:application-library/ili9341-lcd/ili9341.c ****   * @brief   Set TFT LCD module RST (Reset) high.
  36:application-library/ili9341-lcd/ili9341.c ****   * @param   None.
  37:application-library/ili9341-lcd/ili9341.c ****   * @retval  None.
  38:application-library/ili9341-lcd/ili9341.c ****   */
  39:application-library/ili9341-lcd/ili9341.c **** void LCD_RST_1()
  40:application-library/ili9341-lcd/ili9341.c **** {
  28              		.loc 1 40 0
  29              		.cfi_startproc
  30              		@ args = 0, pretend = 0, frame = 0
  31              		@ frame_needed = 0, uses_anonymous_args = 0
  32 0000 08B5     		push	{r3, lr}
  33              	.LCFI0:
  34              		.cfi_def_cfa_offset 8
  35              		.cfi_offset 3, -8
  36              		.cfi_offset 14, -4
  41:application-library/ili9341-lcd/ili9341.c ****   HAL_GPIO_WritePin(GPIOC, GPIO_PIN_1, GPIO_PIN_SET);  
  37              		.loc 1 41 0
  38 0002 0122     		movs	r2, #1
  39 0004 0221     		movs	r1, #2
  40 0006 0248     		ldr	r0, .L3
  41 0008 FFF7FEFF 		bl	HAL_GPIO_WritePin
  42              	.LVL0:
  43 000c 08BD     		pop	{r3, pc}
  44              	.L4:
  45 000e 00BF     		.align	2
  46              	.L3:
  47 0010 00080240 		.word	1073874944
  48              		.cfi_endproc
  49              	.LFE131:
  51              		.section	.text.LCD_RST_0,"ax",%progbits
  52              		.align	1
  53              		.global	LCD_RST_0
  54              		.syntax unified
  55              		.thumb
  56              		.thumb_func
  57              		.fpu fpv4-sp-d16
  59              	LCD_RST_0:
  60              	.LFB132:
  42:application-library/ili9341-lcd/ili9341.c **** }
  43:application-library/ili9341-lcd/ili9341.c **** 
  44:application-library/ili9341-lcd/ili9341.c **** /**
  45:application-library/ili9341-lcd/ili9341.c ****   * @brief   Set TFT LCD module RST (Reset) low.
  46:application-library/ili9341-lcd/ili9341.c ****   * @param   None.
  47:application-library/ili9341-lcd/ili9341.c ****   * @retval  None.
  48:application-library/ili9341-lcd/ili9341.c ****   */
  49:application-library/ili9341-lcd/ili9341.c **** void LCD_RST_0()
  50:application-library/ili9341-lcd/ili9341.c **** {
  61              		.loc 1 50 0
  62              		.cfi_startproc
  63              		@ args = 0, pretend = 0, frame = 0
  64              		@ frame_needed = 0, uses_anonymous_args = 0
  65 0000 08B5     		push	{r3, lr}
  66              	.LCFI1:
  67              		.cfi_def_cfa_offset 8
ARM GAS  /tmp/ccoB52Ks.s 			page 3


  68              		.cfi_offset 3, -8
  69              		.cfi_offset 14, -4
  51:application-library/ili9341-lcd/ili9341.c ****   HAL_GPIO_WritePin(GPIOC, GPIO_PIN_1, GPIO_PIN_RESET);  
  70              		.loc 1 51 0
  71 0002 0022     		movs	r2, #0
  72 0004 0221     		movs	r1, #2
  73 0006 0248     		ldr	r0, .L7
  74 0008 FFF7FEFF 		bl	HAL_GPIO_WritePin
  75              	.LVL1:
  76 000c 08BD     		pop	{r3, pc}
  77              	.L8:
  78 000e 00BF     		.align	2
  79              	.L7:
  80 0010 00080240 		.word	1073874944
  81              		.cfi_endproc
  82              	.LFE132:
  84              		.section	.text.LCD_CS_1,"ax",%progbits
  85              		.align	1
  86              		.global	LCD_CS_1
  87              		.syntax unified
  88              		.thumb
  89              		.thumb_func
  90              		.fpu fpv4-sp-d16
  92              	LCD_CS_1:
  93              	.LFB133:
  52:application-library/ili9341-lcd/ili9341.c **** }
  53:application-library/ili9341-lcd/ili9341.c ****  
  54:application-library/ili9341-lcd/ili9341.c **** 
  55:application-library/ili9341-lcd/ili9341.c **** /**
  56:application-library/ili9341-lcd/ili9341.c ****   * @brief   Set TFT LCD module CS (Chip Select) high.
  57:application-library/ili9341-lcd/ili9341.c ****   * @param   None.
  58:application-library/ili9341-lcd/ili9341.c ****   * @retval  None.
  59:application-library/ili9341-lcd/ili9341.c ****   */
  60:application-library/ili9341-lcd/ili9341.c **** void LCD_CS_1()
  61:application-library/ili9341-lcd/ili9341.c **** {
  94              		.loc 1 61 0
  95              		.cfi_startproc
  96              		@ args = 0, pretend = 0, frame = 0
  97              		@ frame_needed = 0, uses_anonymous_args = 0
  98 0000 08B5     		push	{r3, lr}
  99              	.LCFI2:
 100              		.cfi_def_cfa_offset 8
 101              		.cfi_offset 3, -8
 102              		.cfi_offset 14, -4
  62:application-library/ili9341-lcd/ili9341.c ****   HAL_GPIO_WritePin(GPIOB, GPIO_PIN_0, GPIO_PIN_SET);  
 103              		.loc 1 62 0
 104 0002 0122     		movs	r2, #1
 105 0004 1146     		mov	r1, r2
 106 0006 0248     		ldr	r0, .L11
 107 0008 FFF7FEFF 		bl	HAL_GPIO_WritePin
 108              	.LVL2:
 109 000c 08BD     		pop	{r3, pc}
 110              	.L12:
 111 000e 00BF     		.align	2
 112              	.L11:
 113 0010 00040240 		.word	1073873920
 114              		.cfi_endproc
ARM GAS  /tmp/ccoB52Ks.s 			page 4


 115              	.LFE133:
 117              		.section	.text.LCD_CS_0,"ax",%progbits
 118              		.align	1
 119              		.global	LCD_CS_0
 120              		.syntax unified
 121              		.thumb
 122              		.thumb_func
 123              		.fpu fpv4-sp-d16
 125              	LCD_CS_0:
 126              	.LFB134:
  63:application-library/ili9341-lcd/ili9341.c **** }
  64:application-library/ili9341-lcd/ili9341.c **** 
  65:application-library/ili9341-lcd/ili9341.c **** /**
  66:application-library/ili9341-lcd/ili9341.c ****   * @brief   Set TFT LCD module CS (Chip Select) low.
  67:application-library/ili9341-lcd/ili9341.c ****   * @param   None.
  68:application-library/ili9341-lcd/ili9341.c ****   * @retval  None.
  69:application-library/ili9341-lcd/ili9341.c ****   */
  70:application-library/ili9341-lcd/ili9341.c **** void LCD_CS_0()
  71:application-library/ili9341-lcd/ili9341.c **** {
 127              		.loc 1 71 0
 128              		.cfi_startproc
 129              		@ args = 0, pretend = 0, frame = 0
 130              		@ frame_needed = 0, uses_anonymous_args = 0
 131 0000 08B5     		push	{r3, lr}
 132              	.LCFI3:
 133              		.cfi_def_cfa_offset 8
 134              		.cfi_offset 3, -8
 135              		.cfi_offset 14, -4
  72:application-library/ili9341-lcd/ili9341.c ****   HAL_GPIO_WritePin(GPIOB, GPIO_PIN_0, GPIO_PIN_RESET);  
 136              		.loc 1 72 0
 137 0002 0022     		movs	r2, #0
 138 0004 0121     		movs	r1, #1
 139 0006 0248     		ldr	r0, .L15
 140 0008 FFF7FEFF 		bl	HAL_GPIO_WritePin
 141              	.LVL3:
 142 000c 08BD     		pop	{r3, pc}
 143              	.L16:
 144 000e 00BF     		.align	2
 145              	.L15:
 146 0010 00040240 		.word	1073873920
 147              		.cfi_endproc
 148              	.LFE134:
 150              		.section	.text.LCD_RS_1,"ax",%progbits
 151              		.align	1
 152              		.global	LCD_RS_1
 153              		.syntax unified
 154              		.thumb
 155              		.thumb_func
 156              		.fpu fpv4-sp-d16
 158              	LCD_RS_1:
 159              	.LFB135:
  73:application-library/ili9341-lcd/ili9341.c **** }
  74:application-library/ili9341-lcd/ili9341.c **** 
  75:application-library/ili9341-lcd/ili9341.c ****  
  76:application-library/ili9341-lcd/ili9341.c **** /**
  77:application-library/ili9341-lcd/ili9341.c ****   * @brief   Set TFT LCD module RS (Register Select) high.
  78:application-library/ili9341-lcd/ili9341.c ****   * @param   None.
ARM GAS  /tmp/ccoB52Ks.s 			page 5


  79:application-library/ili9341-lcd/ili9341.c ****   * @retval  None.
  80:application-library/ili9341-lcd/ili9341.c ****   * @note    RS pin is equvilent to D/C or DCX pin. 
  81:application-library/ili9341-lcd/ili9341.c ****   *          RS = 1 indicates D7-D0 sends data.
  82:application-library/ili9341-lcd/ili9341.c ****   *          RS = 0 indicates D7-D0 sends command.
  83:application-library/ili9341-lcd/ili9341.c ****   */
  84:application-library/ili9341-lcd/ili9341.c **** void LCD_RS_1()
  85:application-library/ili9341-lcd/ili9341.c **** {
 160              		.loc 1 85 0
 161              		.cfi_startproc
 162              		@ args = 0, pretend = 0, frame = 0
 163              		@ frame_needed = 0, uses_anonymous_args = 0
 164 0000 08B5     		push	{r3, lr}
 165              	.LCFI4:
 166              		.cfi_def_cfa_offset 8
 167              		.cfi_offset 3, -8
 168              		.cfi_offset 14, -4
  86:application-library/ili9341-lcd/ili9341.c ****   HAL_GPIO_WritePin(GPIOA, GPIO_PIN_4, GPIO_PIN_SET);  
 169              		.loc 1 86 0
 170 0002 0122     		movs	r2, #1
 171 0004 1021     		movs	r1, #16
 172 0006 0248     		ldr	r0, .L19
 173 0008 FFF7FEFF 		bl	HAL_GPIO_WritePin
 174              	.LVL4:
 175 000c 08BD     		pop	{r3, pc}
 176              	.L20:
 177 000e 00BF     		.align	2
 178              	.L19:
 179 0010 00000240 		.word	1073872896
 180              		.cfi_endproc
 181              	.LFE135:
 183              		.section	.text.LCD_RS_0,"ax",%progbits
 184              		.align	1
 185              		.global	LCD_RS_0
 186              		.syntax unified
 187              		.thumb
 188              		.thumb_func
 189              		.fpu fpv4-sp-d16
 191              	LCD_RS_0:
 192              	.LFB136:
  87:application-library/ili9341-lcd/ili9341.c **** }
  88:application-library/ili9341-lcd/ili9341.c **** 
  89:application-library/ili9341-lcd/ili9341.c **** /**
  90:application-library/ili9341-lcd/ili9341.c ****   * @brief   Set TFT LCD module RS (Register Select) low.
  91:application-library/ili9341-lcd/ili9341.c ****   * @param   None.
  92:application-library/ili9341-lcd/ili9341.c ****   * @retval  None.
  93:application-library/ili9341-lcd/ili9341.c ****   * @note    RS pin is equvilent to D/C or DCX pin. 
  94:application-library/ili9341-lcd/ili9341.c ****   *          RS = 1 indicates D7-D0 sends data.
  95:application-library/ili9341-lcd/ili9341.c ****   *          RS = 0 indicates D7-D0 sends command.
  96:application-library/ili9341-lcd/ili9341.c ****   */
  97:application-library/ili9341-lcd/ili9341.c **** void LCD_RS_0()
  98:application-library/ili9341-lcd/ili9341.c **** {
 193              		.loc 1 98 0
 194              		.cfi_startproc
 195              		@ args = 0, pretend = 0, frame = 0
 196              		@ frame_needed = 0, uses_anonymous_args = 0
 197 0000 08B5     		push	{r3, lr}
 198              	.LCFI5:
ARM GAS  /tmp/ccoB52Ks.s 			page 6


 199              		.cfi_def_cfa_offset 8
 200              		.cfi_offset 3, -8
 201              		.cfi_offset 14, -4
  99:application-library/ili9341-lcd/ili9341.c ****   HAL_GPIO_WritePin(GPIOA, GPIO_PIN_4, GPIO_PIN_RESET);  
 202              		.loc 1 99 0
 203 0002 0022     		movs	r2, #0
 204 0004 1021     		movs	r1, #16
 205 0006 0248     		ldr	r0, .L23
 206 0008 FFF7FEFF 		bl	HAL_GPIO_WritePin
 207              	.LVL5:
 208 000c 08BD     		pop	{r3, pc}
 209              	.L24:
 210 000e 00BF     		.align	2
 211              	.L23:
 212 0010 00000240 		.word	1073872896
 213              		.cfi_endproc
 214              	.LFE136:
 216              		.section	.text.LCD_WR_1,"ax",%progbits
 217              		.align	1
 218              		.global	LCD_WR_1
 219              		.syntax unified
 220              		.thumb
 221              		.thumb_func
 222              		.fpu fpv4-sp-d16
 224              	LCD_WR_1:
 225              	.LFB137:
 100:application-library/ili9341-lcd/ili9341.c **** }
 101:application-library/ili9341-lcd/ili9341.c **** 
 102:application-library/ili9341-lcd/ili9341.c **** /**
 103:application-library/ili9341-lcd/ili9341.c ****   * @brief   Set TFT LCD module WR(Write) pin high.
 104:application-library/ili9341-lcd/ili9341.c ****   * @param   None.
 105:application-library/ili9341-lcd/ili9341.c ****   * @retval  None.
 106:application-library/ili9341-lcd/ili9341.c ****   */
 107:application-library/ili9341-lcd/ili9341.c **** void LCD_WR_1()
 108:application-library/ili9341-lcd/ili9341.c **** {
 226              		.loc 1 108 0
 227              		.cfi_startproc
 228              		@ args = 0, pretend = 0, frame = 0
 229              		@ frame_needed = 0, uses_anonymous_args = 0
 230 0000 08B5     		push	{r3, lr}
 231              	.LCFI6:
 232              		.cfi_def_cfa_offset 8
 233              		.cfi_offset 3, -8
 234              		.cfi_offset 14, -4
 109:application-library/ili9341-lcd/ili9341.c ****   HAL_GPIO_WritePin(GPIOA, GPIO_PIN_1, GPIO_PIN_SET);  
 235              		.loc 1 109 0
 236 0002 0122     		movs	r2, #1
 237 0004 0221     		movs	r1, #2
 238 0006 0248     		ldr	r0, .L27
 239 0008 FFF7FEFF 		bl	HAL_GPIO_WritePin
 240              	.LVL6:
 241 000c 08BD     		pop	{r3, pc}
 242              	.L28:
 243 000e 00BF     		.align	2
 244              	.L27:
 245 0010 00000240 		.word	1073872896
 246              		.cfi_endproc
ARM GAS  /tmp/ccoB52Ks.s 			page 7


 247              	.LFE137:
 249              		.section	.text.LCD_WR_0,"ax",%progbits
 250              		.align	1
 251              		.global	LCD_WR_0
 252              		.syntax unified
 253              		.thumb
 254              		.thumb_func
 255              		.fpu fpv4-sp-d16
 257              	LCD_WR_0:
 258              	.LFB138:
 110:application-library/ili9341-lcd/ili9341.c **** }
 111:application-library/ili9341-lcd/ili9341.c **** 
 112:application-library/ili9341-lcd/ili9341.c **** /**
 113:application-library/ili9341-lcd/ili9341.c ****   * @brief   Set TFT LCD module WR(Write) pin low.
 114:application-library/ili9341-lcd/ili9341.c ****   * @param   None.
 115:application-library/ili9341-lcd/ili9341.c ****   * @retval  None.
 116:application-library/ili9341-lcd/ili9341.c ****   */
 117:application-library/ili9341-lcd/ili9341.c **** void LCD_WR_0()
 118:application-library/ili9341-lcd/ili9341.c **** {
 259              		.loc 1 118 0
 260              		.cfi_startproc
 261              		@ args = 0, pretend = 0, frame = 0
 262              		@ frame_needed = 0, uses_anonymous_args = 0
 263 0000 08B5     		push	{r3, lr}
 264              	.LCFI7:
 265              		.cfi_def_cfa_offset 8
 266              		.cfi_offset 3, -8
 267              		.cfi_offset 14, -4
 119:application-library/ili9341-lcd/ili9341.c ****   HAL_GPIO_WritePin(GPIOA, GPIO_PIN_1, GPIO_PIN_RESET);  
 268              		.loc 1 119 0
 269 0002 0022     		movs	r2, #0
 270 0004 0221     		movs	r1, #2
 271 0006 0248     		ldr	r0, .L31
 272 0008 FFF7FEFF 		bl	HAL_GPIO_WritePin
 273              	.LVL7:
 274 000c 08BD     		pop	{r3, pc}
 275              	.L32:
 276 000e 00BF     		.align	2
 277              	.L31:
 278 0010 00000240 		.word	1073872896
 279              		.cfi_endproc
 280              	.LFE138:
 282              		.section	.text.LCD_WR_RISING_EDGE,"ax",%progbits
 283              		.align	1
 284              		.global	LCD_WR_RISING_EDGE
 285              		.syntax unified
 286              		.thumb
 287              		.thumb_func
 288              		.fpu fpv4-sp-d16
 290              	LCD_WR_RISING_EDGE:
 291              	.LFB139:
 120:application-library/ili9341-lcd/ili9341.c **** }
 121:application-library/ili9341-lcd/ili9341.c **** 
 122:application-library/ili9341-lcd/ili9341.c **** /**
 123:application-library/ili9341-lcd/ili9341.c ****   * @brief   Set rising edge on TFT LCD module WR(Write) pin.
 124:application-library/ili9341-lcd/ili9341.c ****   * @param   None.
 125:application-library/ili9341-lcd/ili9341.c ****   * @retval  None.
ARM GAS  /tmp/ccoB52Ks.s 			page 8


 126:application-library/ili9341-lcd/ili9341.c ****   */
 127:application-library/ili9341-lcd/ili9341.c **** void LCD_WR_RISING_EDGE()
 128:application-library/ili9341-lcd/ili9341.c **** {
 292              		.loc 1 128 0
 293              		.cfi_startproc
 294              		@ args = 0, pretend = 0, frame = 0
 295              		@ frame_needed = 0, uses_anonymous_args = 0
 296 0000 10B5     		push	{r4, lr}
 297              	.LCFI8:
 298              		.cfi_def_cfa_offset 8
 299              		.cfi_offset 4, -8
 300              		.cfi_offset 14, -4
 129:application-library/ili9341-lcd/ili9341.c ****   HAL_GPIO_WritePin(GPIOA, GPIO_PIN_1, GPIO_PIN_RESET);  
 301              		.loc 1 129 0
 302 0002 064C     		ldr	r4, .L35
 303 0004 0022     		movs	r2, #0
 304 0006 0221     		movs	r1, #2
 305 0008 2046     		mov	r0, r4
 306 000a FFF7FEFF 		bl	HAL_GPIO_WritePin
 307              	.LVL8:
 130:application-library/ili9341-lcd/ili9341.c ****   HAL_GPIO_WritePin(GPIOA, GPIO_PIN_1, GPIO_PIN_SET);  
 308              		.loc 1 130 0
 309 000e 0122     		movs	r2, #1
 310 0010 0221     		movs	r1, #2
 311 0012 2046     		mov	r0, r4
 312 0014 FFF7FEFF 		bl	HAL_GPIO_WritePin
 313              	.LVL9:
 314 0018 10BD     		pop	{r4, pc}
 315              	.L36:
 316 001a 00BF     		.align	2
 317              	.L35:
 318 001c 00000240 		.word	1073872896
 319              		.cfi_endproc
 320              	.LFE139:
 322              		.section	.text.LCD_RD_1,"ax",%progbits
 323              		.align	1
 324              		.global	LCD_RD_1
 325              		.syntax unified
 326              		.thumb
 327              		.thumb_func
 328              		.fpu fpv4-sp-d16
 330              	LCD_RD_1:
 331              	.LFB140:
 131:application-library/ili9341-lcd/ili9341.c **** }
 132:application-library/ili9341-lcd/ili9341.c **** 
 133:application-library/ili9341-lcd/ili9341.c **** 
 134:application-library/ili9341-lcd/ili9341.c **** /**
 135:application-library/ili9341-lcd/ili9341.c ****   * @brief   Set TFT LCD module RD (Read) high.
 136:application-library/ili9341-lcd/ili9341.c ****   * @param   None.
 137:application-library/ili9341-lcd/ili9341.c ****   * @retval  None.
 138:application-library/ili9341-lcd/ili9341.c ****   */
 139:application-library/ili9341-lcd/ili9341.c **** void LCD_RD_1()
 140:application-library/ili9341-lcd/ili9341.c **** {
 332              		.loc 1 140 0
 333              		.cfi_startproc
 334              		@ args = 0, pretend = 0, frame = 0
 335              		@ frame_needed = 0, uses_anonymous_args = 0
ARM GAS  /tmp/ccoB52Ks.s 			page 9


 336 0000 08B5     		push	{r3, lr}
 337              	.LCFI9:
 338              		.cfi_def_cfa_offset 8
 339              		.cfi_offset 3, -8
 340              		.cfi_offset 14, -4
 141:application-library/ili9341-lcd/ili9341.c ****   HAL_GPIO_WritePin(GPIOA, GPIO_PIN_0, GPIO_PIN_SET);  
 341              		.loc 1 141 0
 342 0002 0122     		movs	r2, #1
 343 0004 1146     		mov	r1, r2
 344 0006 0248     		ldr	r0, .L39
 345 0008 FFF7FEFF 		bl	HAL_GPIO_WritePin
 346              	.LVL10:
 347 000c 08BD     		pop	{r3, pc}
 348              	.L40:
 349 000e 00BF     		.align	2
 350              	.L39:
 351 0010 00000240 		.word	1073872896
 352              		.cfi_endproc
 353              	.LFE140:
 355              		.section	.text.LCD_RD_0,"ax",%progbits
 356              		.align	1
 357              		.global	LCD_RD_0
 358              		.syntax unified
 359              		.thumb
 360              		.thumb_func
 361              		.fpu fpv4-sp-d16
 363              	LCD_RD_0:
 364              	.LFB141:
 142:application-library/ili9341-lcd/ili9341.c **** }
 143:application-library/ili9341-lcd/ili9341.c **** 
 144:application-library/ili9341-lcd/ili9341.c **** /**
 145:application-library/ili9341-lcd/ili9341.c ****   * @brief   Set TFT LCD module RD (Read) low.
 146:application-library/ili9341-lcd/ili9341.c ****   * @param   None.
 147:application-library/ili9341-lcd/ili9341.c ****   * @retval  None.
 148:application-library/ili9341-lcd/ili9341.c ****   */
 149:application-library/ili9341-lcd/ili9341.c **** void LCD_RD_0()
 150:application-library/ili9341-lcd/ili9341.c **** {
 365              		.loc 1 150 0
 366              		.cfi_startproc
 367              		@ args = 0, pretend = 0, frame = 0
 368              		@ frame_needed = 0, uses_anonymous_args = 0
 369 0000 08B5     		push	{r3, lr}
 370              	.LCFI10:
 371              		.cfi_def_cfa_offset 8
 372              		.cfi_offset 3, -8
 373              		.cfi_offset 14, -4
 151:application-library/ili9341-lcd/ili9341.c ****   HAL_GPIO_WritePin(GPIOA, GPIO_PIN_0, GPIO_PIN_RESET);  
 374              		.loc 1 151 0
 375 0002 0022     		movs	r2, #0
 376 0004 0121     		movs	r1, #1
 377 0006 0248     		ldr	r0, .L43
 378 0008 FFF7FEFF 		bl	HAL_GPIO_WritePin
 379              	.LVL11:
 380 000c 08BD     		pop	{r3, pc}
 381              	.L44:
 382 000e 00BF     		.align	2
 383              	.L43:
ARM GAS  /tmp/ccoB52Ks.s 			page 10


 384 0010 00000240 		.word	1073872896
 385              		.cfi_endproc
 386              	.LFE141:
 388              		.section	.text.gpio_configure_8080_datapins_input_mode,"ax",%progbits
 389              		.align	1
 390              		.global	gpio_configure_8080_datapins_input_mode
 391              		.syntax unified
 392              		.thumb
 393              		.thumb_func
 394              		.fpu fpv4-sp-d16
 396              	gpio_configure_8080_datapins_input_mode:
 397              	.LFB142:
 152:application-library/ili9341-lcd/ili9341.c **** }
 153:application-library/ili9341-lcd/ili9341.c **** 
 154:application-library/ili9341-lcd/ili9341.c **** /**
 155:application-library/ili9341-lcd/ili9341.c ****   * @brief   Configure GPIO input mode for reading 8080 data pins D7-D0.
 156:application-library/ili9341-lcd/ili9341.c ****   * @param   None.
 157:application-library/ili9341-lcd/ili9341.c ****   * @retval  None.
 158:application-library/ili9341-lcd/ili9341.c ****   */
 159:application-library/ili9341-lcd/ili9341.c **** void gpio_configure_8080_datapins_input_mode()
 160:application-library/ili9341-lcd/ili9341.c **** {
 398              		.loc 1 160 0
 399              		.cfi_startproc
 400              		@ args = 0, pretend = 0, frame = 24
 401              		@ frame_needed = 0, uses_anonymous_args = 0
 402 0000 30B5     		push	{r4, r5, lr}
 403              	.LCFI11:
 404              		.cfi_def_cfa_offset 12
 405              		.cfi_offset 4, -12
 406              		.cfi_offset 5, -8
 407              		.cfi_offset 14, -4
 408 0002 87B0     		sub	sp, sp, #28
 409              	.LCFI12:
 410              		.cfi_def_cfa_offset 40
 161:application-library/ili9341-lcd/ili9341.c ****   GPIO_InitTypeDef GPIO_InitStruct;
 162:application-library/ili9341-lcd/ili9341.c ****   GPIO_InitStruct.Pin = GPIO_PIN_8 | GPIO_PIN_9 | GPIO_PIN_10;
 411              		.loc 1 162 0
 412 0004 4FF4E063 		mov	r3, #1792
 413 0008 0193     		str	r3, [sp, #4]
 163:application-library/ili9341-lcd/ili9341.c ****   GPIO_InitStruct.Mode = GPIO_MODE_INPUT;
 414              		.loc 1 163 0
 415 000a 0025     		movs	r5, #0
 416 000c 0295     		str	r5, [sp, #8]
 164:application-library/ili9341-lcd/ili9341.c ****   GPIO_InitStruct.Pull = GPIO_PULLDOWN;
 417              		.loc 1 164 0
 418 000e 0224     		movs	r4, #2
 419 0010 0394     		str	r4, [sp, #12]
 165:application-library/ili9341-lcd/ili9341.c ****   HAL_GPIO_Init(GPIOA, &GPIO_InitStruct);
 420              		.loc 1 165 0
 421 0012 01A9     		add	r1, sp, #4
 422 0014 0A48     		ldr	r0, .L47
 423 0016 FFF7FEFF 		bl	HAL_GPIO_Init
 424              	.LVL12:
 166:application-library/ili9341-lcd/ili9341.c **** 
 167:application-library/ili9341-lcd/ili9341.c ****   GPIO_InitStruct.Pin = GPIO_PIN_3 | GPIO_PIN_4 | GPIO_PIN_5 | GPIO_PIN_10;
 425              		.loc 1 167 0
 426 001a 4FF48763 		mov	r3, #1080
ARM GAS  /tmp/ccoB52Ks.s 			page 11


 427 001e 0193     		str	r3, [sp, #4]
 168:application-library/ili9341-lcd/ili9341.c ****   GPIO_InitStruct.Mode = GPIO_MODE_INPUT;
 428              		.loc 1 168 0
 429 0020 0295     		str	r5, [sp, #8]
 169:application-library/ili9341-lcd/ili9341.c ****   GPIO_InitStruct.Pull = GPIO_PULLDOWN;
 430              		.loc 1 169 0
 431 0022 0394     		str	r4, [sp, #12]
 170:application-library/ili9341-lcd/ili9341.c ****   HAL_GPIO_Init(GPIOB, &GPIO_InitStruct);
 432              		.loc 1 170 0
 433 0024 01A9     		add	r1, sp, #4
 434 0026 0748     		ldr	r0, .L47+4
 435 0028 FFF7FEFF 		bl	HAL_GPIO_Init
 436              	.LVL13:
 171:application-library/ili9341-lcd/ili9341.c **** 
 172:application-library/ili9341-lcd/ili9341.c ****   GPIO_InitStruct.Pin = GPIO_PIN_7;
 437              		.loc 1 172 0
 438 002c 8023     		movs	r3, #128
 439 002e 0193     		str	r3, [sp, #4]
 173:application-library/ili9341-lcd/ili9341.c ****   GPIO_InitStruct.Mode = GPIO_MODE_INPUT;
 440              		.loc 1 173 0
 441 0030 0295     		str	r5, [sp, #8]
 174:application-library/ili9341-lcd/ili9341.c ****   GPIO_InitStruct.Pull = GPIO_PULLDOWN;
 442              		.loc 1 174 0
 443 0032 0394     		str	r4, [sp, #12]
 175:application-library/ili9341-lcd/ili9341.c ****   HAL_GPIO_Init(GPIOC, &GPIO_InitStruct);
 444              		.loc 1 175 0
 445 0034 01A9     		add	r1, sp, #4
 446 0036 0448     		ldr	r0, .L47+8
 447 0038 FFF7FEFF 		bl	HAL_GPIO_Init
 448              	.LVL14:
 176:application-library/ili9341-lcd/ili9341.c **** }
 449              		.loc 1 176 0
 450 003c 07B0     		add	sp, sp, #28
 451              	.LCFI13:
 452              		.cfi_def_cfa_offset 12
 453              		@ sp needed
 454 003e 30BD     		pop	{r4, r5, pc}
 455              	.L48:
 456              		.align	2
 457              	.L47:
 458 0040 00000240 		.word	1073872896
 459 0044 00040240 		.word	1073873920
 460 0048 00080240 		.word	1073874944
 461              		.cfi_endproc
 462              	.LFE142:
 464              		.section	.text.gpio_configure_8080_datapins_output_mode,"ax",%progbits
 465              		.align	1
 466              		.global	gpio_configure_8080_datapins_output_mode
 467              		.syntax unified
 468              		.thumb
 469              		.thumb_func
 470              		.fpu fpv4-sp-d16
 472              	gpio_configure_8080_datapins_output_mode:
 473              	.LFB143:
 177:application-library/ili9341-lcd/ili9341.c **** 
 178:application-library/ili9341-lcd/ili9341.c **** /**
 179:application-library/ili9341-lcd/ili9341.c ****   * @brief   Configure GPIO output mode for reading 8080 data pins D7-D0.
ARM GAS  /tmp/ccoB52Ks.s 			page 12


 180:application-library/ili9341-lcd/ili9341.c ****   * @param   None.
 181:application-library/ili9341-lcd/ili9341.c ****   * @retval  None.
 182:application-library/ili9341-lcd/ili9341.c ****   */
 183:application-library/ili9341-lcd/ili9341.c **** void gpio_configure_8080_datapins_output_mode()
 184:application-library/ili9341-lcd/ili9341.c **** {
 474              		.loc 1 184 0
 475              		.cfi_startproc
 476              		@ args = 0, pretend = 0, frame = 24
 477              		@ frame_needed = 0, uses_anonymous_args = 0
 478 0000 30B5     		push	{r4, r5, lr}
 479              	.LCFI14:
 480              		.cfi_def_cfa_offset 12
 481              		.cfi_offset 4, -12
 482              		.cfi_offset 5, -8
 483              		.cfi_offset 14, -4
 484 0002 87B0     		sub	sp, sp, #28
 485              	.LCFI15:
 486              		.cfi_def_cfa_offset 40
 185:application-library/ili9341-lcd/ili9341.c ****   GPIO_InitTypeDef GPIO_InitStruct;
 186:application-library/ili9341-lcd/ili9341.c ****   GPIO_InitStruct.Pin = GPIO_PIN_8 | GPIO_PIN_9 | GPIO_PIN_10;
 487              		.loc 1 186 0
 488 0004 4FF4E063 		mov	r3, #1792
 489 0008 0193     		str	r3, [sp, #4]
 187:application-library/ili9341-lcd/ili9341.c ****   GPIO_InitStruct.Mode = GPIO_MODE_OUTPUT_PP;
 490              		.loc 1 187 0
 491 000a 0125     		movs	r5, #1
 492 000c 0295     		str	r5, [sp, #8]
 188:application-library/ili9341-lcd/ili9341.c ****   GPIO_InitStruct.Pull = GPIO_NOPULL;
 493              		.loc 1 188 0
 494 000e 0024     		movs	r4, #0
 495 0010 0394     		str	r4, [sp, #12]
 189:application-library/ili9341-lcd/ili9341.c ****   HAL_GPIO_Init(GPIOA, &GPIO_InitStruct);
 496              		.loc 1 189 0
 497 0012 01A9     		add	r1, sp, #4
 498 0014 0A48     		ldr	r0, .L51
 499 0016 FFF7FEFF 		bl	HAL_GPIO_Init
 500              	.LVL15:
 190:application-library/ili9341-lcd/ili9341.c **** 
 191:application-library/ili9341-lcd/ili9341.c **** 
 192:application-library/ili9341-lcd/ili9341.c ****   GPIO_InitStruct.Pin = GPIO_PIN_3 | GPIO_PIN_4 | GPIO_PIN_5 | GPIO_PIN_10;
 501              		.loc 1 192 0
 502 001a 4FF48763 		mov	r3, #1080
 503 001e 0193     		str	r3, [sp, #4]
 193:application-library/ili9341-lcd/ili9341.c ****   GPIO_InitStruct.Mode = GPIO_MODE_OUTPUT_PP;
 504              		.loc 1 193 0
 505 0020 0295     		str	r5, [sp, #8]
 194:application-library/ili9341-lcd/ili9341.c ****   GPIO_InitStruct.Pull = GPIO_NOPULL;
 506              		.loc 1 194 0
 507 0022 0394     		str	r4, [sp, #12]
 195:application-library/ili9341-lcd/ili9341.c ****   HAL_GPIO_Init(GPIOB, &GPIO_InitStruct);
 508              		.loc 1 195 0
 509 0024 01A9     		add	r1, sp, #4
 510 0026 0748     		ldr	r0, .L51+4
 511 0028 FFF7FEFF 		bl	HAL_GPIO_Init
 512              	.LVL16:
 196:application-library/ili9341-lcd/ili9341.c **** 
 197:application-library/ili9341-lcd/ili9341.c ****   GPIO_InitStruct.Pin = GPIO_PIN_7;
ARM GAS  /tmp/ccoB52Ks.s 			page 13


 513              		.loc 1 197 0
 514 002c 8023     		movs	r3, #128
 515 002e 0193     		str	r3, [sp, #4]
 198:application-library/ili9341-lcd/ili9341.c ****   GPIO_InitStruct.Mode = GPIO_MODE_OUTPUT_PP;
 516              		.loc 1 198 0
 517 0030 0295     		str	r5, [sp, #8]
 199:application-library/ili9341-lcd/ili9341.c ****   GPIO_InitStruct.Pull = GPIO_NOPULL;
 518              		.loc 1 199 0
 519 0032 0394     		str	r4, [sp, #12]
 200:application-library/ili9341-lcd/ili9341.c ****   HAL_GPIO_Init(GPIOC, &GPIO_InitStruct);
 520              		.loc 1 200 0
 521 0034 01A9     		add	r1, sp, #4
 522 0036 0448     		ldr	r0, .L51+8
 523 0038 FFF7FEFF 		bl	HAL_GPIO_Init
 524              	.LVL17:
 201:application-library/ili9341-lcd/ili9341.c **** }
 525              		.loc 1 201 0
 526 003c 07B0     		add	sp, sp, #28
 527              	.LCFI16:
 528              		.cfi_def_cfa_offset 12
 529              		@ sp needed
 530 003e 30BD     		pop	{r4, r5, pc}
 531              	.L52:
 532              		.align	2
 533              	.L51:
 534 0040 00000240 		.word	1073872896
 535 0044 00040240 		.word	1073873920
 536 0048 00080240 		.word	1073874944
 537              		.cfi_endproc
 538              	.LFE143:
 540              		.section	.text.bus_8080_read_parallel_datapins,"ax",%progbits
 541              		.align	1
 542              		.global	bus_8080_read_parallel_datapins
 543              		.syntax unified
 544              		.thumb
 545              		.thumb_func
 546              		.fpu fpv4-sp-d16
 548              	bus_8080_read_parallel_datapins:
 549              	.LFB144:
 202:application-library/ili9341-lcd/ili9341.c **** 
 203:application-library/ili9341-lcd/ili9341.c **** /**
 204:application-library/ili9341-lcd/ili9341.c ****   * @brief   Read 8080 data pins D7-D0 pins on GPIO.
 205:application-library/ili9341-lcd/ili9341.c ****   * @param   None.
 206:application-library/ili9341-lcd/ili9341.c ****   * @retval  Single byte concatenating pin level from D7-D0.
 207:application-library/ili9341-lcd/ili9341.c ****   */
 208:application-library/ili9341-lcd/ili9341.c **** uint8_t bus_8080_read_parallel_datapins() 
 209:application-library/ili9341-lcd/ili9341.c **** {
 550              		.loc 1 209 0
 551              		.cfi_startproc
 552              		@ args = 0, pretend = 0, frame = 0
 553              		@ frame_needed = 0, uses_anonymous_args = 0
 554 0000 70B5     		push	{r4, r5, r6, lr}
 555              	.LCFI17:
 556              		.cfi_def_cfa_offset 16
 557              		.cfi_offset 4, -16
 558              		.cfi_offset 5, -12
 559              		.cfi_offset 6, -8
ARM GAS  /tmp/ccoB52Ks.s 			page 14


 560              		.cfi_offset 14, -4
 210:application-library/ili9341-lcd/ili9341.c ****   uint8_t read_data;
 211:application-library/ili9341-lcd/ili9341.c ****   read_data = \
 212:application-library/ili9341-lcd/ili9341.c ****                 HAL_GPIO_ReadPin(GPIOA, GPIO_PIN_8)  << 7   \
 561              		.loc 1 212 0
 562 0002 1E4D     		ldr	r5, .L55
 563 0004 4FF48071 		mov	r1, #256
 564 0008 2846     		mov	r0, r5
 565 000a FFF7FEFF 		bl	HAL_GPIO_ReadPin
 566              	.LVL18:
 567 000e C401     		lsls	r4, r0, #7
 213:application-library/ili9341-lcd/ili9341.c ****               | HAL_GPIO_ReadPin(GPIOB, GPIO_PIN_10) << 6   \
 568              		.loc 1 213 0
 569 0010 1B4E     		ldr	r6, .L55+4
 570 0012 4FF48061 		mov	r1, #1024
 571 0016 3046     		mov	r0, r6
 572 0018 FFF7FEFF 		bl	HAL_GPIO_ReadPin
 573              	.LVL19:
 574 001c 44EA8014 		orr	r4, r4, r0, lsl #6
 575 0020 64B2     		sxtb	r4, r4
 214:application-library/ili9341-lcd/ili9341.c ****               | HAL_GPIO_ReadPin(GPIOB, GPIO_PIN_4)  << 5   \
 576              		.loc 1 214 0
 577 0022 1021     		movs	r1, #16
 578 0024 3046     		mov	r0, r6
 579 0026 FFF7FEFF 		bl	HAL_GPIO_ReadPin
 580              	.LVL20:
 581 002a 44EA4014 		orr	r4, r4, r0, lsl #5
 582 002e 64B2     		sxtb	r4, r4
 215:application-library/ili9341-lcd/ili9341.c ****               | HAL_GPIO_ReadPin(GPIOB, GPIO_PIN_5)  << 4   \
 583              		.loc 1 215 0
 584 0030 2021     		movs	r1, #32
 585 0032 3046     		mov	r0, r6
 586 0034 FFF7FEFF 		bl	HAL_GPIO_ReadPin
 587              	.LVL21:
 588 0038 44EA0014 		orr	r4, r4, r0, lsl #4
 589 003c 64B2     		sxtb	r4, r4
 216:application-library/ili9341-lcd/ili9341.c ****               | HAL_GPIO_ReadPin(GPIOB, GPIO_PIN_3)  << 3   \
 590              		.loc 1 216 0
 591 003e 0821     		movs	r1, #8
 592 0040 3046     		mov	r0, r6
 593 0042 FFF7FEFF 		bl	HAL_GPIO_ReadPin
 594              	.LVL22:
 595 0046 44EAC004 		orr	r4, r4, r0, lsl #3
 596 004a 64B2     		sxtb	r4, r4
 217:application-library/ili9341-lcd/ili9341.c ****               | HAL_GPIO_ReadPin(GPIOA, GPIO_PIN_10) << 2   \
 597              		.loc 1 217 0
 598 004c 4FF48061 		mov	r1, #1024
 599 0050 2846     		mov	r0, r5
 600 0052 FFF7FEFF 		bl	HAL_GPIO_ReadPin
 601              	.LVL23:
 602 0056 44EA8004 		orr	r4, r4, r0, lsl #2
 603 005a 64B2     		sxtb	r4, r4
 218:application-library/ili9341-lcd/ili9341.c ****               | HAL_GPIO_ReadPin(GPIOC, GPIO_PIN_7)  << 1   \
 604              		.loc 1 218 0
 605 005c 8021     		movs	r1, #128
 606 005e 0948     		ldr	r0, .L55+8
 607 0060 FFF7FEFF 		bl	HAL_GPIO_ReadPin
ARM GAS  /tmp/ccoB52Ks.s 			page 15


 608              	.LVL24:
 609 0064 44EA4004 		orr	r4, r4, r0, lsl #1
 610 0068 64B2     		sxtb	r4, r4
 219:application-library/ili9341-lcd/ili9341.c ****               | HAL_GPIO_ReadPin(GPIOA, GPIO_PIN_9);
 611              		.loc 1 219 0
 612 006a 4FF40071 		mov	r1, #512
 613 006e 2846     		mov	r0, r5
 614 0070 FFF7FEFF 		bl	HAL_GPIO_ReadPin
 615              	.LVL25:
 616 0074 40B2     		sxtb	r0, r0
 617 0076 2043     		orrs	r0, r0, r4
 618              	.LVL26:
 220:application-library/ili9341-lcd/ili9341.c ****   return read_data;
 221:application-library/ili9341-lcd/ili9341.c **** }
 619              		.loc 1 221 0
 620 0078 C0B2     		uxtb	r0, r0
 621 007a 70BD     		pop	{r4, r5, r6, pc}
 622              	.L56:
 623              		.align	2
 624              	.L55:
 625 007c 00000240 		.word	1073872896
 626 0080 00040240 		.word	1073873920
 627 0084 00080240 		.word	1073874944
 628              		.cfi_endproc
 629              	.LFE144:
 631              		.section	.text.bus_8080_write_parallel_datapins,"ax",%progbits
 632              		.align	1
 633              		.global	bus_8080_write_parallel_datapins
 634              		.syntax unified
 635              		.thumb
 636              		.thumb_func
 637              		.fpu fpv4-sp-d16
 639              	bus_8080_write_parallel_datapins:
 640              	.LFB145:
 222:application-library/ili9341-lcd/ili9341.c **** 
 223:application-library/ili9341-lcd/ili9341.c **** 
 224:application-library/ili9341-lcd/ili9341.c **** /**
 225:application-library/ili9341-lcd/ili9341.c ****   * @brief   Reading 8080 data D7-D0 pins on GPIO.
 226:application-library/ili9341-lcd/ili9341.c ****   * @param   write_data Data written to 8080 bus D7-D0.
 227:application-library/ili9341-lcd/ili9341.c ****   * @retval  None.
 228:application-library/ili9341-lcd/ili9341.c ****   */
 229:application-library/ili9341-lcd/ili9341.c **** void bus_8080_write_parallel_datapins(uint8_t write_data) 
 230:application-library/ili9341-lcd/ili9341.c **** {
 641              		.loc 1 230 0
 642              		.cfi_startproc
 643              		@ args = 0, pretend = 0, frame = 0
 644              		@ frame_needed = 0, uses_anonymous_args = 0
 645              		@ link register save eliminated.
 646              	.LVL27:
 647 0000 30B4     		push	{r4, r5}
 648              	.LCFI18:
 649              		.cfi_def_cfa_offset 8
 650              		.cfi_offset 4, -8
 651              		.cfi_offset 5, -4
 231:application-library/ili9341-lcd/ili9341.c ****   // HAL_GPIO_WritePin(GPIOA, GPIO_PIN_8,  (write_data & 0x80) ? GPIO_PIN_SET : GPIO_PIN_RESET);
 232:application-library/ili9341-lcd/ili9341.c ****   // HAL_GPIO_WritePin(GPIOB, GPIO_PIN_10, (write_data & 0x40) ? GPIO_PIN_SET : GPIO_PIN_RESET); 
 233:application-library/ili9341-lcd/ili9341.c ****   // HAL_GPIO_WritePin(GPIOB, GPIO_PIN_4,  (write_data & 0x20) ? GPIO_PIN_SET : GPIO_PIN_RESET);  
ARM GAS  /tmp/ccoB52Ks.s 			page 16


 234:application-library/ili9341-lcd/ili9341.c ****   // HAL_GPIO_WritePin(GPIOB, GPIO_PIN_5,  (write_data & 0x10) ? GPIO_PIN_SET : GPIO_PIN_RESET); 
 235:application-library/ili9341-lcd/ili9341.c ****   // HAL_GPIO_WritePin(GPIOB, GPIO_PIN_3,  (write_data & 0x08) ? GPIO_PIN_SET : GPIO_PIN_RESET); 
 236:application-library/ili9341-lcd/ili9341.c ****   // HAL_GPIO_WritePin(GPIOA, GPIO_PIN_10, (write_data & 0x04) ? GPIO_PIN_SET : GPIO_PIN_RESET);
 237:application-library/ili9341-lcd/ili9341.c ****   // HAL_GPIO_WritePin(GPIOC, GPIO_PIN_7,  (write_data & 0x02) ? GPIO_PIN_SET : GPIO_PIN_RESET);
 238:application-library/ili9341-lcd/ili9341.c ****   // HAL_GPIO_WritePin(GPIOA, GPIO_PIN_9,  (write_data & 0x01) ? GPIO_PIN_SET : GPIO_PIN_RESET);
 239:application-library/ili9341-lcd/ili9341.c ****   GPIOA->ODR &= ~((1 << 8) | (1 << 10) | (1 << 9));
 652              		.loc 1 239 0
 653 0002 1A4B     		ldr	r3, .L59
 654 0004 5A69     		ldr	r2, [r3, #20]
 655 0006 22F4E062 		bic	r2, r2, #1792
 656 000a 5A61     		str	r2, [r3, #20]
 240:application-library/ili9341-lcd/ili9341.c ****   GPIOA->ODR |= ( ((write_data & 0x80) << 1) | ((write_data & 0x04) << 8) | ( (write_data & 0x01) <
 657              		.loc 1 240 0
 658 000c 5C69     		ldr	r4, [r3, #20]
 659 000e 4100     		lsls	r1, r0, #1
 660 0010 01F48072 		and	r2, r1, #256
 661 0014 0502     		lsls	r5, r0, #8
 662 0016 05F48065 		and	r5, r5, #1024
 663 001a 2A43     		orrs	r2, r2, r5
 664 001c 4502     		lsls	r5, r0, #9
 665 001e 05F40075 		and	r5, r5, #512
 666 0022 2A43     		orrs	r2, r2, r5
 667 0024 2243     		orrs	r2, r2, r4
 668 0026 5A61     		str	r2, [r3, #20]
 241:application-library/ili9341-lcd/ili9341.c **** 
 242:application-library/ili9341-lcd/ili9341.c ****   GPIOB->ODR &= ~((1 << 10) | (1 << 4) | (1 << 5) | (1 << 3));
 669              		.loc 1 242 0
 670 0028 114A     		ldr	r2, .L59+4
 671 002a 5369     		ldr	r3, [r2, #20]
 672 002c 23F48763 		bic	r3, r3, #1080
 673 0030 5361     		str	r3, [r2, #20]
 243:application-library/ili9341-lcd/ili9341.c ****   GPIOB->ODR |= ( ((write_data & 0x40) << 4) | ((write_data & 0x20) >> 1) | ( (write_data & 0x10) <
 674              		.loc 1 243 0
 675 0032 5469     		ldr	r4, [r2, #20]
 676 0034 0301     		lsls	r3, r0, #4
 677 0036 03F48063 		and	r3, r3, #1024
 678 003a 4510     		asrs	r5, r0, #1
 679 003c 05F01005 		and	r5, r5, #16
 680 0040 2B43     		orrs	r3, r3, r5
 681 0042 01F02001 		and	r1, r1, #32
 682 0046 0B43     		orrs	r3, r3, r1
 683 0048 00F00801 		and	r1, r0, #8
 684 004c 0B43     		orrs	r3, r3, r1
 685 004e 2343     		orrs	r3, r3, r4
 686 0050 5361     		str	r3, [r2, #20]
 244:application-library/ili9341-lcd/ili9341.c **** 
 245:application-library/ili9341-lcd/ili9341.c ****   GPIOC->ODR &= ~(1 << 7);
 687              		.loc 1 245 0
 688 0052 084B     		ldr	r3, .L59+8
 689 0054 5A69     		ldr	r2, [r3, #20]
 690 0056 22F08002 		bic	r2, r2, #128
 691 005a 5A61     		str	r2, [r3, #20]
 246:application-library/ili9341-lcd/ili9341.c ****   GPIOC->ODR |= ((write_data & 0x02) << 6);
 692              		.loc 1 246 0
 693 005c 5A69     		ldr	r2, [r3, #20]
 694 005e 8001     		lsls	r0, r0, #6
 695              	.LVL28:
ARM GAS  /tmp/ccoB52Ks.s 			page 17


 696 0060 00F08000 		and	r0, r0, #128
 697 0064 1043     		orrs	r0, r0, r2
 698 0066 5861     		str	r0, [r3, #20]
 247:application-library/ili9341-lcd/ili9341.c **** }
 699              		.loc 1 247 0
 700 0068 30BC     		pop	{r4, r5}
 701              	.LCFI19:
 702              		.cfi_restore 5
 703              		.cfi_restore 4
 704              		.cfi_def_cfa_offset 0
 705 006a 7047     		bx	lr
 706              	.L60:
 707              		.align	2
 708              	.L59:
 709 006c 00000240 		.word	1073872896
 710 0070 00040240 		.word	1073873920
 711 0074 00080240 		.word	1073874944
 712              		.cfi_endproc
 713              	.LFE145:
 715              		.section	.text.bus_8080_write_register,"ax",%progbits
 716              		.align	1
 717              		.global	bus_8080_write_register
 718              		.syntax unified
 719              		.thumb
 720              		.thumb_func
 721              		.fpu fpv4-sp-d16
 723              	bus_8080_write_register:
 724              	.LFB146:
 248:application-library/ili9341-lcd/ili9341.c **** 
 249:application-library/ili9341-lcd/ili9341.c **** 
 250:application-library/ili9341-lcd/ili9341.c **** /**
 251:application-library/ili9341-lcd/ili9341.c ****   * @brief  Write to devie register through 8080 bus. 
 252:application-library/ili9341-lcd/ili9341.c ****   * @param  target_register Command byte. Essentially the target register to write.
 253:application-library/ili9341-lcd/ili9341.c ****   * @param  p_param Pointer to an array containing parameters to write to the targert register.
 254:application-library/ili9341-lcd/ili9341.c ****   * @param  length Number of parameters in bytes.
 255:application-library/ili9341-lcd/ili9341.c ****   * @retval None.
 256:application-library/ili9341-lcd/ili9341.c ****   * @note   Parallel 8080 Bus Time Write Sequence:
 257:application-library/ili9341-lcd/ili9341.c ****   *         CS  ````\_________________________________________________________________/````
 258:application-library/ili9341-lcd/ili9341.c ****   *         RS  ``````\_______________/````````````````````````````````````````````````````
 259:application-library/ili9341-lcd/ili9341.c ****   *         WR  ____________________/_________________/________________/______________/````
 260:application-library/ili9341-lcd/ili9341.c ****   *         RD  ```````````````````````````````````````````````````````````````````````````
 261:application-library/ili9341-lcd/ili9341.c ****   *         D[7:0]       | COMMAND |    | PARAMETER |    | PARAMETER |   | PARAMETER |
 262:application-library/ili9341-lcd/ili9341.c ****   *         ILI9341                 read              read              read          read 
 263:application-library/ili9341-lcd/ili9341.c ****   *         MCU             write            write           write           write
 264:application-library/ili9341-lcd/ili9341.c ****   *        
 265:application-library/ili9341-lcd/ili9341.c ****   *         RS Stands for Register Select. It is equvilent to D/C (DCX) pin in ili9341 datasheet.
 266:application-library/ili9341-lcd/ili9341.c ****   *           When RS = 0, ili9341 interpret D[7:0] as command.
 267:application-library/ili9341-lcd/ili9341.c ****   *           When RS = 1, ili9341 interpret D[7:0] as data. 
 268:application-library/ili9341-lcd/ili9341.c ****   *         RD Read Line always high indicating read is inactive. 
 269:application-library/ili9341-lcd/ili9341.c ****   *         WR Write Line needs to show rising edge every time data is already sent on D[7:0],
 270:application-library/ili9341-lcd/ili9341.c ****   *           ILI9341 will read data on the WR rising edge. 
 271:application-library/ili9341-lcd/ili9341.c ****   */
 272:application-library/ili9341-lcd/ili9341.c ****   
 273:application-library/ili9341-lcd/ili9341.c **** void bus_8080_write_register(uint8_t target_register, uint8_t length, uint8_t* p_param)
 274:application-library/ili9341-lcd/ili9341.c **** {
 725              		.loc 1 274 0
 726              		.cfi_startproc
ARM GAS  /tmp/ccoB52Ks.s 			page 18


 727              		@ args = 0, pretend = 0, frame = 0
 728              		@ frame_needed = 0, uses_anonymous_args = 0
 729              	.LVL29:
 730 0000 70B5     		push	{r4, r5, r6, lr}
 731              	.LCFI20:
 732              		.cfi_def_cfa_offset 16
 733              		.cfi_offset 4, -16
 734              		.cfi_offset 5, -12
 735              		.cfi_offset 6, -8
 736              		.cfi_offset 14, -4
 737 0002 0446     		mov	r4, r0
 738 0004 0D46     		mov	r5, r1
 739 0006 1646     		mov	r6, r2
 275:application-library/ili9341-lcd/ili9341.c ****   /* Write command byte (target register) */
 276:application-library/ili9341-lcd/ili9341.c ****   LCD_CS_0();  /* Chip Select */
 740              		.loc 1 276 0
 741 0008 FFF7FEFF 		bl	LCD_CS_0
 742              	.LVL30:
 277:application-library/ili9341-lcd/ili9341.c ****   LCD_RS_0();  /* RS (Data / Command) = 0, selecting command*/
 743              		.loc 1 277 0
 744 000c FFF7FEFF 		bl	LCD_RS_0
 745              	.LVL31:
 278:application-library/ili9341-lcd/ili9341.c ****   LCD_RD_1();  /* READ = 1. Read line inactive. */
 746              		.loc 1 278 0
 747 0010 FFF7FEFF 		bl	LCD_RD_1
 748              	.LVL32:
 279:application-library/ili9341-lcd/ili9341.c ****   gpio_configure_8080_datapins_output_mode(); /* Configure D7-D0 GPIO output mode */
 749              		.loc 1 279 0
 750 0014 FFF7FEFF 		bl	gpio_configure_8080_datapins_output_mode
 751              	.LVL33:
 280:application-library/ili9341-lcd/ili9341.c ****   bus_8080_write_parallel_datapins(target_register); /* Write target register on D7-D0. */
 752              		.loc 1 280 0
 753 0018 2046     		mov	r0, r4
 754 001a FFF7FEFF 		bl	bus_8080_write_parallel_datapins
 755              	.LVL34:
 281:application-library/ili9341-lcd/ili9341.c ****   LCD_WR_RISING_EDGE(); /* Validate the byte on WRITE rising edge. */
 756              		.loc 1 281 0
 757 001e FFF7FEFF 		bl	LCD_WR_RISING_EDGE
 758              	.LVL35:
 282:application-library/ili9341-lcd/ili9341.c **** 
 283:application-library/ili9341-lcd/ili9341.c ****   LCD_RS_1();   /* RS (Data / Command Selection) = 1, selecting data. */
 759              		.loc 1 283 0
 760 0022 FFF7FEFF 		bl	LCD_RS_1
 761              	.LVL36:
 762              	.LBB2:
 284:application-library/ili9341-lcd/ili9341.c ****   /* Iterate through each parameters. */ 
 285:application-library/ili9341-lcd/ili9341.c ****   for (int i = 0; i < length; ++i)
 763              		.loc 1 285 0
 764 0026 0024     		movs	r4, #0
 765 0028 05E0     		b	.L62
 766              	.LVL37:
 767              	.L63:
 286:application-library/ili9341-lcd/ili9341.c ****   {
 287:application-library/ili9341-lcd/ili9341.c ****     // LCD_RD_1(); /* already set above */
 288:application-library/ili9341-lcd/ili9341.c ****     // gpio_configure_8080_datapins_output_mode();  /* already set above */
 289:application-library/ili9341-lcd/ili9341.c ****     bus_8080_write_parallel_datapins(p_param[i]);
 768              		.loc 1 289 0 discriminator 3
ARM GAS  /tmp/ccoB52Ks.s 			page 19


 769 002a 305D     		ldrb	r0, [r6, r4]	@ zero_extendqisi2
 770 002c FFF7FEFF 		bl	bus_8080_write_parallel_datapins
 771              	.LVL38:
 290:application-library/ili9341-lcd/ili9341.c ****     LCD_WR_RISING_EDGE(); /* Validate the byte on WRITE rising edge. */
 772              		.loc 1 290 0 discriminator 3
 773 0030 FFF7FEFF 		bl	LCD_WR_RISING_EDGE
 774              	.LVL39:
 285:application-library/ili9341-lcd/ili9341.c ****   {
 775              		.loc 1 285 0 discriminator 3
 776 0034 0134     		adds	r4, r4, #1
 777              	.LVL40:
 778              	.L62:
 285:application-library/ili9341-lcd/ili9341.c ****   {
 779              		.loc 1 285 0 is_stmt 0 discriminator 1
 780 0036 AC42     		cmp	r4, r5
 781 0038 F7DB     		blt	.L63
 782              	.LBE2:
 291:application-library/ili9341-lcd/ili9341.c ****   }
 292:application-library/ili9341-lcd/ili9341.c ****   LCD_CS_1(); /* De-select Chip. */
 783              		.loc 1 292 0 is_stmt 1
 784 003a FFF7FEFF 		bl	LCD_CS_1
 785              	.LVL41:
 786 003e 70BD     		pop	{r4, r5, r6, pc}
 787              		.cfi_endproc
 788              	.LFE146:
 790              		.section	.text.bus_8080_read_register,"ax",%progbits
 791              		.align	1
 792              		.global	bus_8080_read_register
 793              		.syntax unified
 794              		.thumb
 795              		.thumb_func
 796              		.fpu fpv4-sp-d16
 798              	bus_8080_read_register:
 799              	.LFB147:
 293:application-library/ili9341-lcd/ili9341.c **** }
 294:application-library/ili9341-lcd/ili9341.c **** 
 295:application-library/ili9341-lcd/ili9341.c **** 
 296:application-library/ili9341-lcd/ili9341.c **** /**
 297:application-library/ili9341-lcd/ili9341.c ****   * @brief  Read device register value from 8080 bus. 
 298:application-library/ili9341-lcd/ili9341.c ****   * @param  target_register Command byte. Essentially the target register to write.
 299:application-library/ili9341-lcd/ili9341.c ****   * @param  length Number of parameters in bytes.
 300:application-library/ili9341-lcd/ili9341.c ****   * @param  p_param Pointer to an array containing read data from target device.
 301:application-library/ili9341-lcd/ili9341.c ****   * @retval None.
 302:application-library/ili9341-lcd/ili9341.c ****   * @note   Parallel 8080 Bus Time Write Sequence:
 303:application-library/ili9341-lcd/ili9341.c ****   *         CS  ````\_________________________________________________________________/````
 304:application-library/ili9341-lcd/ili9341.c ****   *         RS  ``````\_______________/````````````````````````````````````````````````````
 305:application-library/ili9341-lcd/ili9341.c ****   *         WR  ____________________/``````````````````````````````````````````````````````
 306:application-library/ili9341-lcd/ili9341.c ****   *         RD  ``````````````````````````___________/````````````````__/``````````````_/``
 307:application-library/ili9341-lcd/ili9341.c ****   *         D[7:0]       | COMMAND |    | PARAMETER |    | PARAMETER |   | PARAMETER |
 308:application-library/ili9341-lcd/ili9341.c ****   *         ILI9341                 read  write            write           write
 309:application-library/ili9341-lcd/ili9341.c ****   *         MCU             write                read               read           read
 310:application-library/ili9341-lcd/ili9341.c ****   *         
 311:application-library/ili9341-lcd/ili9341.c ****   *         RS Stands for Register Select. It is equvilent to D/C (DCX) pin in ili9341 datasheet.
 312:application-library/ili9341-lcd/ili9341.c ****   *           When RS = 0, ili9341 interpret D[7:0] as command.
 313:application-library/ili9341-lcd/ili9341.c ****   *           When RS = 1, ili9341 interpret D[7:0] as data. 
 314:application-library/ili9341-lcd/ili9341.c ****   *         RD Read Line needs to pull rising edge by the MCU every time data prepared by ili9341
 315:application-library/ili9341-lcd/ili9341.c ****   *           has been consumed by the MCU.
ARM GAS  /tmp/ccoB52Ks.s 			page 20


 316:application-library/ili9341-lcd/ili9341.c ****   *         WR Write Line turns high once the MCU has written the command byte. 
 317:application-library/ili9341-lcd/ili9341.c ****   *           The MCU enters read mode and consumes data prepared by ili9341 on D[7:0].
 318:application-library/ili9341-lcd/ili9341.c ****   */
 319:application-library/ili9341-lcd/ili9341.c **** void bus_8080_read_register(uint8_t target_register, uint8_t length, uint8_t* p_read_data)
 320:application-library/ili9341-lcd/ili9341.c **** {
 800              		.loc 1 320 0
 801              		.cfi_startproc
 802              		@ args = 0, pretend = 0, frame = 0
 803              		@ frame_needed = 0, uses_anonymous_args = 0
 804              	.LVL42:
 805 0000 70B5     		push	{r4, r5, r6, lr}
 806              	.LCFI21:
 807              		.cfi_def_cfa_offset 16
 808              		.cfi_offset 4, -16
 809              		.cfi_offset 5, -12
 810              		.cfi_offset 6, -8
 811              		.cfi_offset 14, -4
 812 0002 0446     		mov	r4, r0
 813 0004 0D46     		mov	r5, r1
 814 0006 1646     		mov	r6, r2
 321:application-library/ili9341-lcd/ili9341.c ****   
 322:application-library/ili9341-lcd/ili9341.c ****   /* Write command byte (target register) */
 323:application-library/ili9341-lcd/ili9341.c ****   LCD_CS_0(); /* Chip Select */
 815              		.loc 1 323 0
 816 0008 FFF7FEFF 		bl	LCD_CS_0
 817              	.LVL43:
 324:application-library/ili9341-lcd/ili9341.c ****   LCD_RS_0();  
 818              		.loc 1 324 0
 819 000c FFF7FEFF 		bl	LCD_RS_0
 820              	.LVL44:
 325:application-library/ili9341-lcd/ili9341.c ****   LCD_RD_1();
 821              		.loc 1 325 0
 822 0010 FFF7FEFF 		bl	LCD_RD_1
 823              	.LVL45:
 326:application-library/ili9341-lcd/ili9341.c ****   
 327:application-library/ili9341-lcd/ili9341.c ****   gpio_configure_8080_datapins_output_mode();
 824              		.loc 1 327 0
 825 0014 FFF7FEFF 		bl	gpio_configure_8080_datapins_output_mode
 826              	.LVL46:
 328:application-library/ili9341-lcd/ili9341.c ****   bus_8080_write_parallel_datapins(target_register); /* Write data to data bus D7-D0. */  
 827              		.loc 1 328 0
 828 0018 2046     		mov	r0, r4
 829 001a FFF7FEFF 		bl	bus_8080_write_parallel_datapins
 830              	.LVL47:
 329:application-library/ili9341-lcd/ili9341.c ****   LCD_WR_RISING_EDGE();
 831              		.loc 1 329 0
 832 001e FFF7FEFF 		bl	LCD_WR_RISING_EDGE
 833              	.LVL48:
 330:application-library/ili9341-lcd/ili9341.c **** 
 331:application-library/ili9341-lcd/ili9341.c ****   /* MCU Enter read mode. */
 332:application-library/ili9341-lcd/ili9341.c ****   LCD_RS_1();  
 834              		.loc 1 332 0
 835 0022 FFF7FEFF 		bl	LCD_RS_1
 836              	.LVL49:
 333:application-library/ili9341-lcd/ili9341.c ****   LCD_WR_1();
 837              		.loc 1 333 0
 838 0026 FFF7FEFF 		bl	LCD_WR_1
ARM GAS  /tmp/ccoB52Ks.s 			page 21


 839              	.LVL50:
 334:application-library/ili9341-lcd/ili9341.c ****   gpio_configure_8080_datapins_input_mode();
 840              		.loc 1 334 0
 841 002a FFF7FEFF 		bl	gpio_configure_8080_datapins_input_mode
 842              	.LVL51:
 843              	.LBB3:
 335:application-library/ili9341-lcd/ili9341.c ****   /* Iterate through each data. */ 
 336:application-library/ili9341-lcd/ili9341.c ****   for (int i = 0; i < length; ++i)
 844              		.loc 1 336 0
 845 002e 0024     		movs	r4, #0
 846 0030 07E0     		b	.L66
 847              	.LVL52:
 848              	.L67:
 337:application-library/ili9341-lcd/ili9341.c ****   {
 338:application-library/ili9341-lcd/ili9341.c ****     LCD_RD_0();
 849              		.loc 1 338 0 discriminator 3
 850 0032 FFF7FEFF 		bl	LCD_RD_0
 851              	.LVL53:
 339:application-library/ili9341-lcd/ili9341.c ****     p_read_data[i] = bus_8080_read_parallel_datapins();
 852              		.loc 1 339 0 discriminator 3
 853 0036 FFF7FEFF 		bl	bus_8080_read_parallel_datapins
 854              	.LVL54:
 855 003a 3055     		strb	r0, [r6, r4]
 340:application-library/ili9341-lcd/ili9341.c ****     LCD_RD_1();
 856              		.loc 1 340 0 discriminator 3
 857 003c FFF7FEFF 		bl	LCD_RD_1
 858              	.LVL55:
 336:application-library/ili9341-lcd/ili9341.c ****   {
 859              		.loc 1 336 0 discriminator 3
 860 0040 0134     		adds	r4, r4, #1
 861              	.LVL56:
 862              	.L66:
 336:application-library/ili9341-lcd/ili9341.c ****   {
 863              		.loc 1 336 0 is_stmt 0 discriminator 1
 864 0042 AC42     		cmp	r4, r5
 865 0044 F5DB     		blt	.L67
 866              	.LBE3:
 341:application-library/ili9341-lcd/ili9341.c ****   }
 342:application-library/ili9341-lcd/ili9341.c ****   LCD_CS_1();
 867              		.loc 1 342 0 is_stmt 1
 868 0046 FFF7FEFF 		bl	LCD_CS_1
 869              	.LVL57:
 870 004a 70BD     		pop	{r4, r5, r6, pc}
 871              		.cfi_endproc
 872              	.LFE147:
 874              		.section	.text.bus_8080_write_command,"ax",%progbits
 875              		.align	1
 876              		.global	bus_8080_write_command
 877              		.syntax unified
 878              		.thumb
 879              		.thumb_func
 880              		.fpu fpv4-sp-d16
 882              	bus_8080_write_command:
 883              	.LFB148:
 343:application-library/ili9341-lcd/ili9341.c **** }
 344:application-library/ili9341-lcd/ili9341.c **** 
 345:application-library/ili9341-lcd/ili9341.c **** void bus_8080_write_command(uint8_t cmd)
ARM GAS  /tmp/ccoB52Ks.s 			page 22


 346:application-library/ili9341-lcd/ili9341.c **** {
 884              		.loc 1 346 0
 885              		.cfi_startproc
 886              		@ args = 0, pretend = 0, frame = 0
 887              		@ frame_needed = 0, uses_anonymous_args = 0
 888              	.LVL58:
 889 0000 10B5     		push	{r4, lr}
 890              	.LCFI22:
 891              		.cfi_def_cfa_offset 8
 892              		.cfi_offset 4, -8
 893              		.cfi_offset 14, -4
 894 0002 0446     		mov	r4, r0
 347:application-library/ili9341-lcd/ili9341.c ****   /* Chip Select */
 348:application-library/ili9341-lcd/ili9341.c ****   LCD_CS_0();
 895              		.loc 1 348 0
 896 0004 FFF7FEFF 		bl	LCD_CS_0
 897              	.LVL59:
 349:application-library/ili9341-lcd/ili9341.c ****   LCD_RS_0();  
 898              		.loc 1 349 0
 899 0008 FFF7FEFF 		bl	LCD_RS_0
 900              	.LVL60:
 350:application-library/ili9341-lcd/ili9341.c ****   LCD_RD_1();
 901              		.loc 1 350 0
 902 000c FFF7FEFF 		bl	LCD_RD_1
 903              	.LVL61:
 351:application-library/ili9341-lcd/ili9341.c **** 
 352:application-library/ili9341-lcd/ili9341.c ****   /* Write data to data bus D7-D0. */  
 353:application-library/ili9341-lcd/ili9341.c ****   gpio_configure_8080_datapins_output_mode();
 904              		.loc 1 353 0
 905 0010 FFF7FEFF 		bl	gpio_configure_8080_datapins_output_mode
 906              	.LVL62:
 354:application-library/ili9341-lcd/ili9341.c ****   bus_8080_write_parallel_datapins(cmd);
 907              		.loc 1 354 0
 908 0014 2046     		mov	r0, r4
 909 0016 FFF7FEFF 		bl	bus_8080_write_parallel_datapins
 910              	.LVL63:
 355:application-library/ili9341-lcd/ili9341.c ****   LCD_WR_RISING_EDGE();
 911              		.loc 1 355 0
 912 001a FFF7FEFF 		bl	LCD_WR_RISING_EDGE
 913              	.LVL64:
 356:application-library/ili9341-lcd/ili9341.c ****   /* De-select Chip. */
 357:application-library/ili9341-lcd/ili9341.c ****   LCD_CS_1();
 914              		.loc 1 357 0
 915 001e FFF7FEFF 		bl	LCD_CS_1
 916              	.LVL65:
 917 0022 10BD     		pop	{r4, pc}
 918              		.cfi_endproc
 919              	.LFE148:
 921              		.section	.text.bus_8080_write_data,"ax",%progbits
 922              		.align	1
 923              		.global	bus_8080_write_data
 924              		.syntax unified
 925              		.thumb
 926              		.thumb_func
 927              		.fpu fpv4-sp-d16
 929              	bus_8080_write_data:
 930              	.LFB149:
ARM GAS  /tmp/ccoB52Ks.s 			page 23


 358:application-library/ili9341-lcd/ili9341.c **** }
 359:application-library/ili9341-lcd/ili9341.c **** 
 360:application-library/ili9341-lcd/ili9341.c **** void bus_8080_write_data(uint8_t data) 
 361:application-library/ili9341-lcd/ili9341.c **** {
 931              		.loc 1 361 0
 932              		.cfi_startproc
 933              		@ args = 0, pretend = 0, frame = 0
 934              		@ frame_needed = 0, uses_anonymous_args = 0
 935              	.LVL66:
 936 0000 10B5     		push	{r4, lr}
 937              	.LCFI23:
 938              		.cfi_def_cfa_offset 8
 939              		.cfi_offset 4, -8
 940              		.cfi_offset 14, -4
 941 0002 0446     		mov	r4, r0
 362:application-library/ili9341-lcd/ili9341.c ****   LCD_CS_0();
 942              		.loc 1 362 0
 943 0004 FFF7FEFF 		bl	LCD_CS_0
 944              	.LVL67:
 363:application-library/ili9341-lcd/ili9341.c ****   LCD_RS_1();  
 945              		.loc 1 363 0
 946 0008 FFF7FEFF 		bl	LCD_RS_1
 947              	.LVL68:
 364:application-library/ili9341-lcd/ili9341.c ****   LCD_RD_1();
 948              		.loc 1 364 0
 949 000c FFF7FEFF 		bl	LCD_RD_1
 950              	.LVL69:
 365:application-library/ili9341-lcd/ili9341.c **** 
 366:application-library/ili9341-lcd/ili9341.c ****   gpio_configure_8080_datapins_output_mode();
 951              		.loc 1 366 0
 952 0010 FFF7FEFF 		bl	gpio_configure_8080_datapins_output_mode
 953              	.LVL70:
 367:application-library/ili9341-lcd/ili9341.c ****   bus_8080_write_parallel_datapins(data);
 954              		.loc 1 367 0
 955 0014 2046     		mov	r0, r4
 956 0016 FFF7FEFF 		bl	bus_8080_write_parallel_datapins
 957              	.LVL71:
 368:application-library/ili9341-lcd/ili9341.c ****   LCD_WR_RISING_EDGE();
 958              		.loc 1 368 0
 959 001a FFF7FEFF 		bl	LCD_WR_RISING_EDGE
 960              	.LVL72:
 369:application-library/ili9341-lcd/ili9341.c ****   LCD_CS_1();
 961              		.loc 1 369 0
 962 001e FFF7FEFF 		bl	LCD_CS_1
 963              	.LVL73:
 964 0022 10BD     		pop	{r4, pc}
 965              		.cfi_endproc
 966              	.LFE149:
 968              		.section	.text.bus_8080_read_data,"ax",%progbits
 969              		.align	1
 970              		.global	bus_8080_read_data
 971              		.syntax unified
 972              		.thumb
 973              		.thumb_func
 974              		.fpu fpv4-sp-d16
 976              	bus_8080_read_data:
 977              	.LFB150:
ARM GAS  /tmp/ccoB52Ks.s 			page 24


 370:application-library/ili9341-lcd/ili9341.c **** }
 371:application-library/ili9341-lcd/ili9341.c **** 
 372:application-library/ili9341-lcd/ili9341.c **** /**
 373:application-library/ili9341-lcd/ili9341.c ****   * @brief   8080 Bus Read Data.
 374:application-library/ili9341-lcd/ili9341.c ****   * @param   None.
 375:application-library/ili9341-lcd/ili9341.c ****   * @retval  None.
 376:application-library/ili9341-lcd/ili9341.c ****   */
 377:application-library/ili9341-lcd/ili9341.c **** void bus_8080_read_data(uint8_t* p_read_data, uint8_t length) 
 378:application-library/ili9341-lcd/ili9341.c **** {
 978              		.loc 1 378 0
 979              		.cfi_startproc
 980              		@ args = 0, pretend = 0, frame = 0
 981              		@ frame_needed = 0, uses_anonymous_args = 0
 982              	.LVL74:
 983 0000 70B5     		push	{r4, r5, r6, lr}
 984              	.LCFI24:
 985              		.cfi_def_cfa_offset 16
 986              		.cfi_offset 4, -16
 987              		.cfi_offset 5, -12
 988              		.cfi_offset 6, -8
 989              		.cfi_offset 14, -4
 990 0002 0646     		mov	r6, r0
 991 0004 0D46     		mov	r5, r1
 379:application-library/ili9341-lcd/ili9341.c ****   LCD_CS_0();
 992              		.loc 1 379 0
 993 0006 FFF7FEFF 		bl	LCD_CS_0
 994              	.LVL75:
 380:application-library/ili9341-lcd/ili9341.c ****   LCD_RS_1();  
 995              		.loc 1 380 0
 996 000a FFF7FEFF 		bl	LCD_RS_1
 997              	.LVL76:
 381:application-library/ili9341-lcd/ili9341.c ****   LCD_WR_1();
 998              		.loc 1 381 0
 999 000e FFF7FEFF 		bl	LCD_WR_1
 1000              	.LVL77:
 382:application-library/ili9341-lcd/ili9341.c **** 
 383:application-library/ili9341-lcd/ili9341.c ****   gpio_configure_8080_datapins_input_mode();
 1001              		.loc 1 383 0
 1002 0012 FFF7FEFF 		bl	gpio_configure_8080_datapins_input_mode
 1003              	.LVL78:
 1004              	.LBB4:
 384:application-library/ili9341-lcd/ili9341.c ****   for (int i = 0; i < length; ++i)
 1005              		.loc 1 384 0
 1006 0016 0024     		movs	r4, #0
 1007 0018 07E0     		b	.L74
 1008              	.LVL79:
 1009              	.L75:
 385:application-library/ili9341-lcd/ili9341.c ****   {
 386:application-library/ili9341-lcd/ili9341.c ****     LCD_RD_0();
 1010              		.loc 1 386 0 discriminator 3
 1011 001a FFF7FEFF 		bl	LCD_RD_0
 1012              	.LVL80:
 387:application-library/ili9341-lcd/ili9341.c ****     p_read_data[i] = bus_8080_read_parallel_datapins();
 1013              		.loc 1 387 0 discriminator 3
 1014 001e FFF7FEFF 		bl	bus_8080_read_parallel_datapins
 1015              	.LVL81:
 1016 0022 3055     		strb	r0, [r6, r4]
ARM GAS  /tmp/ccoB52Ks.s 			page 25


 388:application-library/ili9341-lcd/ili9341.c ****     LCD_RD_1();
 1017              		.loc 1 388 0 discriminator 3
 1018 0024 FFF7FEFF 		bl	LCD_RD_1
 1019              	.LVL82:
 384:application-library/ili9341-lcd/ili9341.c ****   {
 1020              		.loc 1 384 0 discriminator 3
 1021 0028 0134     		adds	r4, r4, #1
 1022              	.LVL83:
 1023              	.L74:
 384:application-library/ili9341-lcd/ili9341.c ****   {
 1024              		.loc 1 384 0 is_stmt 0 discriminator 1
 1025 002a AC42     		cmp	r4, r5
 1026 002c F5DB     		blt	.L75
 1027              	.LBE4:
 389:application-library/ili9341-lcd/ili9341.c ****   }
 390:application-library/ili9341-lcd/ili9341.c ****   LCD_CS_1();
 1028              		.loc 1 390 0 is_stmt 1
 1029 002e FFF7FEFF 		bl	LCD_CS_1
 1030              	.LVL84:
 1031 0032 70BD     		pop	{r4, r5, r6, pc}
 1032              		.cfi_endproc
 1033              	.LFE150:
 1035              		.section	.text.ili9341_hard_reset,"ax",%progbits
 1036              		.align	1
 1037              		.global	ili9341_hard_reset
 1038              		.syntax unified
 1039              		.thumb
 1040              		.thumb_func
 1041              		.fpu fpv4-sp-d16
 1043              	ili9341_hard_reset:
 1044              	.LFB151:
 391:application-library/ili9341-lcd/ili9341.c **** }
 392:application-library/ili9341-lcd/ili9341.c **** 
 393:application-library/ili9341-lcd/ili9341.c **** /**
 394:application-library/ili9341-lcd/ili9341.c ****   * @brief  Reset ili9341 through RESET pin.
 395:application-library/ili9341-lcd/ili9341.c ****   * @param  None.
 396:application-library/ili9341-lcd/ili9341.c ****   * @retval None.
 397:application-library/ili9341-lcd/ili9341.c ****   * @note   RST pin is active low. ili9341 is reset state at low level.
 398:application-library/ili9341-lcd/ili9341.c ****   */
 399:application-library/ili9341-lcd/ili9341.c **** void ili9341_hard_reset() 
 400:application-library/ili9341-lcd/ili9341.c **** {
 1045              		.loc 1 400 0
 1046              		.cfi_startproc
 1047              		@ args = 0, pretend = 0, frame = 0
 1048              		@ frame_needed = 0, uses_anonymous_args = 0
 1049 0000 08B5     		push	{r3, lr}
 1050              	.LCFI25:
 1051              		.cfi_def_cfa_offset 8
 1052              		.cfi_offset 3, -8
 1053              		.cfi_offset 14, -4
 401:application-library/ili9341-lcd/ili9341.c ****   LCD_RST_1();
 1054              		.loc 1 401 0
 1055 0002 FFF7FEFF 		bl	LCD_RST_1
 1056              	.LVL85:
 402:application-library/ili9341-lcd/ili9341.c ****   HAL_Delay(1);
 1057              		.loc 1 402 0
 1058 0006 0120     		movs	r0, #1
ARM GAS  /tmp/ccoB52Ks.s 			page 26


 1059 0008 FFF7FEFF 		bl	HAL_Delay
 1060              	.LVL86:
 403:application-library/ili9341-lcd/ili9341.c ****   LCD_RST_0();
 1061              		.loc 1 403 0
 1062 000c FFF7FEFF 		bl	LCD_RST_0
 1063              	.LVL87:
 404:application-library/ili9341-lcd/ili9341.c ****   HAL_Delay(1);
 1064              		.loc 1 404 0
 1065 0010 0120     		movs	r0, #1
 1066 0012 FFF7FEFF 		bl	HAL_Delay
 1067              	.LVL88:
 405:application-library/ili9341-lcd/ili9341.c ****   LCD_RST_1();
 1068              		.loc 1 405 0
 1069 0016 FFF7FEFF 		bl	LCD_RST_1
 1070              	.LVL89:
 406:application-library/ili9341-lcd/ili9341.c ****   HAL_Delay(1);
 1071              		.loc 1 406 0
 1072 001a 0120     		movs	r0, #1
 1073 001c FFF7FEFF 		bl	HAL_Delay
 1074              	.LVL90:
 1075 0020 08BD     		pop	{r3, pc}
 1076              		.cfi_endproc
 1077              	.LFE151:
 1079              		.section	.text.ili9341_nop,"ax",%progbits
 1080              		.align	1
 1081              		.global	ili9341_nop
 1082              		.syntax unified
 1083              		.thumb
 1084              		.thumb_func
 1085              		.fpu fpv4-sp-d16
 1087              	ili9341_nop:
 1088              	.LFB152:
 407:application-library/ili9341-lcd/ili9341.c **** }
 408:application-library/ili9341-lcd/ili9341.c **** 
 409:application-library/ili9341-lcd/ili9341.c **** 
 410:application-library/ili9341-lcd/ili9341.c **** /* ILI9341 Regulative Registers Access ------------------------------------------------------------
 411:application-library/ili9341-lcd/ili9341.c **** 
 412:application-library/ili9341-lcd/ili9341.c **** /**
 413:application-library/ili9341-lcd/ili9341.c ****   * @brief 8.2.1. NOP (00h) 
 414:application-library/ili9341-lcd/ili9341.c ****   * @param  None.
 415:application-library/ili9341-lcd/ili9341.c ****   * @retval None.
 416:application-library/ili9341-lcd/ili9341.c ****   */
 417:application-library/ili9341-lcd/ili9341.c **** void ili9341_nop()
 418:application-library/ili9341-lcd/ili9341.c **** {
 1089              		.loc 1 418 0
 1090              		.cfi_startproc
 1091              		@ args = 0, pretend = 0, frame = 0
 1092              		@ frame_needed = 0, uses_anonymous_args = 0
 1093 0000 08B5     		push	{r3, lr}
 1094              	.LCFI26:
 1095              		.cfi_def_cfa_offset 8
 1096              		.cfi_offset 3, -8
 1097              		.cfi_offset 14, -4
 419:application-library/ili9341-lcd/ili9341.c ****   bus_8080_write_register(0x00, 0, NULL);
 1098              		.loc 1 419 0
 1099 0002 0022     		movs	r2, #0
 1100 0004 1146     		mov	r1, r2
ARM GAS  /tmp/ccoB52Ks.s 			page 27


 1101 0006 1046     		mov	r0, r2
 1102 0008 FFF7FEFF 		bl	bus_8080_write_register
 1103              	.LVL91:
 1104 000c 08BD     		pop	{r3, pc}
 1105              		.cfi_endproc
 1106              	.LFE152:
 1108              		.section	.text.ili9341_soft_reset,"ax",%progbits
 1109              		.align	1
 1110              		.global	ili9341_soft_reset
 1111              		.syntax unified
 1112              		.thumb
 1113              		.thumb_func
 1114              		.fpu fpv4-sp-d16
 1116              	ili9341_soft_reset:
 1117              	.LFB153:
 420:application-library/ili9341-lcd/ili9341.c **** }
 421:application-library/ili9341-lcd/ili9341.c **** 
 422:application-library/ili9341-lcd/ili9341.c **** /**
 423:application-library/ili9341-lcd/ili9341.c ****   * @brief  8.2.2. Software Reset (01h) 
 424:application-library/ili9341-lcd/ili9341.c ****   * @param  None.
 425:application-library/ili9341-lcd/ili9341.c ****   * @retval None.
 426:application-library/ili9341-lcd/ili9341.c ****   */
 427:application-library/ili9341-lcd/ili9341.c **** void ili9341_soft_reset()
 428:application-library/ili9341-lcd/ili9341.c **** {
 1118              		.loc 1 428 0
 1119              		.cfi_startproc
 1120              		@ args = 0, pretend = 0, frame = 0
 1121              		@ frame_needed = 0, uses_anonymous_args = 0
 1122 0000 08B5     		push	{r3, lr}
 1123              	.LCFI27:
 1124              		.cfi_def_cfa_offset 8
 1125              		.cfi_offset 3, -8
 1126              		.cfi_offset 14, -4
 429:application-library/ili9341-lcd/ili9341.c ****   bus_8080_write_register(0x01, 0, NULL);
 1127              		.loc 1 429 0
 1128 0002 0022     		movs	r2, #0
 1129 0004 1146     		mov	r1, r2
 1130 0006 0120     		movs	r0, #1
 1131 0008 FFF7FEFF 		bl	bus_8080_write_register
 1132              	.LVL92:
 1133 000c 08BD     		pop	{r3, pc}
 1134              		.cfi_endproc
 1135              	.LFE153:
 1137              		.section	.text.ili9341_get_display_identification,"ax",%progbits
 1138              		.align	1
 1139              		.global	ili9341_get_display_identification
 1140              		.syntax unified
 1141              		.thumb
 1142              		.thumb_func
 1143              		.fpu fpv4-sp-d16
 1145              	ili9341_get_display_identification:
 1146              	.LFB154:
 430:application-library/ili9341-lcd/ili9341.c **** }
 431:application-library/ili9341-lcd/ili9341.c **** 
 432:application-library/ili9341-lcd/ili9341.c **** 
 433:application-library/ili9341-lcd/ili9341.c **** /** 
 434:application-library/ili9341-lcd/ili9341.c ****   * @brief  TODO 8.2.3. Read display identification information (04h) 
ARM GAS  /tmp/ccoB52Ks.s 			page 28


 435:application-library/ili9341-lcd/ili9341.c ****   * @param  p_read_data Pointer to display identification data.
 436:application-library/ili9341-lcd/ili9341.c ****   * @retval None.
 437:application-library/ili9341-lcd/ili9341.c ****   */
 438:application-library/ili9341-lcd/ili9341.c **** void ili9341_get_display_identification(uint8_t* p_read_data)
 439:application-library/ili9341-lcd/ili9341.c **** {
 1147              		.loc 1 439 0
 1148              		.cfi_startproc
 1149              		@ args = 0, pretend = 0, frame = 0
 1150              		@ frame_needed = 0, uses_anonymous_args = 0
 1151              		@ link register save eliminated.
 1152              	.LVL93:
 1153 0000 7047     		bx	lr
 1154              		.cfi_endproc
 1155              	.LFE154:
 1157              		.section	.text.ili9341_get_display_status,"ax",%progbits
 1158              		.align	1
 1159              		.global	ili9341_get_display_status
 1160              		.syntax unified
 1161              		.thumb
 1162              		.thumb_func
 1163              		.fpu fpv4-sp-d16
 1165              	ili9341_get_display_status:
 1166              	.LFB155:
 440:application-library/ili9341-lcd/ili9341.c **** 
 441:application-library/ili9341-lcd/ili9341.c **** }
 442:application-library/ili9341-lcd/ili9341.c **** 
 443:application-library/ili9341-lcd/ili9341.c **** /** 
 444:application-library/ili9341-lcd/ili9341.c ****   * @brief  TODO 8.2.4. Read Display Status (09h) 
 445:application-library/ili9341-lcd/ili9341.c ****   * @param  p_read_data Pointer to display status data.
 446:application-library/ili9341-lcd/ili9341.c ****   * @retval None.
 447:application-library/ili9341-lcd/ili9341.c ****   */
 448:application-library/ili9341-lcd/ili9341.c **** void ili9341_get_display_status(uint8_t* p_read_data)
 449:application-library/ili9341-lcd/ili9341.c **** {
 1167              		.loc 1 449 0
 1168              		.cfi_startproc
 1169              		@ args = 0, pretend = 0, frame = 0
 1170              		@ frame_needed = 0, uses_anonymous_args = 0
 1171              		@ link register save eliminated.
 1172              	.LVL94:
 1173 0000 7047     		bx	lr
 1174              		.cfi_endproc
 1175              	.LFE155:
 1177              		.section	.text.ili9341_get_display_power_mode,"ax",%progbits
 1178              		.align	1
 1179              		.global	ili9341_get_display_power_mode
 1180              		.syntax unified
 1181              		.thumb
 1182              		.thumb_func
 1183              		.fpu fpv4-sp-d16
 1185              	ili9341_get_display_power_mode:
 1186              	.LFB156:
 450:application-library/ili9341-lcd/ili9341.c **** 
 451:application-library/ili9341-lcd/ili9341.c **** }
 452:application-library/ili9341-lcd/ili9341.c **** 
 453:application-library/ili9341-lcd/ili9341.c **** /** 
 454:application-library/ili9341-lcd/ili9341.c ****   * @brief  TODO 8.2.5. Read Display Power Mode (0Ah) 
 455:application-library/ili9341-lcd/ili9341.c ****   * @param  p_read_data Pointer to display power mode.
ARM GAS  /tmp/ccoB52Ks.s 			page 29


 456:application-library/ili9341-lcd/ili9341.c ****   * @retval None.
 457:application-library/ili9341-lcd/ili9341.c ****   */
 458:application-library/ili9341-lcd/ili9341.c **** void ili9341_get_display_power_mode(uint8_t* p_read_data)
 459:application-library/ili9341-lcd/ili9341.c **** {
 1187              		.loc 1 459 0
 1188              		.cfi_startproc
 1189              		@ args = 0, pretend = 0, frame = 0
 1190              		@ frame_needed = 0, uses_anonymous_args = 0
 1191              		@ link register save eliminated.
 1192              	.LVL95:
 1193 0000 7047     		bx	lr
 1194              		.cfi_endproc
 1195              	.LFE156:
 1197              		.section	.text.ili9341_get_display_MADCTL,"ax",%progbits
 1198              		.align	1
 1199              		.global	ili9341_get_display_MADCTL
 1200              		.syntax unified
 1201              		.thumb
 1202              		.thumb_func
 1203              		.fpu fpv4-sp-d16
 1205              	ili9341_get_display_MADCTL:
 1206              	.LFB157:
 460:application-library/ili9341-lcd/ili9341.c **** 
 461:application-library/ili9341-lcd/ili9341.c **** }
 462:application-library/ili9341-lcd/ili9341.c **** 
 463:application-library/ili9341-lcd/ili9341.c **** 
 464:application-library/ili9341-lcd/ili9341.c **** /** 
 465:application-library/ili9341-lcd/ili9341.c ****   * @brief  TODO 8.2.6. Read Display MADCTL (0Bh) 
 466:application-library/ili9341-lcd/ili9341.c ****   * @param  p_read_data Pointer to display MADCTL
 467:application-library/ili9341-lcd/ili9341.c ****   * @retval None.
 468:application-library/ili9341-lcd/ili9341.c ****   */
 469:application-library/ili9341-lcd/ili9341.c **** void ili9341_get_display_MADCTL(uint8_t* p_read_data)
 470:application-library/ili9341-lcd/ili9341.c **** {
 1207              		.loc 1 470 0
 1208              		.cfi_startproc
 1209              		@ args = 0, pretend = 0, frame = 0
 1210              		@ frame_needed = 0, uses_anonymous_args = 0
 1211              		@ link register save eliminated.
 1212              	.LVL96:
 1213 0000 7047     		bx	lr
 1214              		.cfi_endproc
 1215              	.LFE157:
 1217              		.section	.text.ili9341_get_display_pixel_format,"ax",%progbits
 1218              		.align	1
 1219              		.global	ili9341_get_display_pixel_format
 1220              		.syntax unified
 1221              		.thumb
 1222              		.thumb_func
 1223              		.fpu fpv4-sp-d16
 1225              	ili9341_get_display_pixel_format:
 1226              	.LFB158:
 471:application-library/ili9341-lcd/ili9341.c **** 
 472:application-library/ili9341-lcd/ili9341.c **** }
 473:application-library/ili9341-lcd/ili9341.c **** 
 474:application-library/ili9341-lcd/ili9341.c **** /**
 475:application-library/ili9341-lcd/ili9341.c ****   * @brief       8.2.7. Read Display Pixel Format (0Ch) 
 476:application-library/ili9341-lcd/ili9341.c ****   * @param[OUT]  p_read_data Pointer to pixel format data read.
ARM GAS  /tmp/ccoB52Ks.s 			page 30


 477:application-library/ili9341-lcd/ili9341.c ****   * @retval      None.
 478:application-library/ili9341-lcd/ili9341.c ****   * @note        DBI[2:0]       #Bits/pixel      RGB Format 
 479:application-library/ili9341-lcd/ili9341.c ****   *              101            16 bits          RGB5-6-5 65K)    
 480:application-library/ili9341-lcd/ili9341.c ****   *              110            18 bits          RGB6-6-6 262K) 
 481:application-library/ili9341-lcd/ili9341.c ****   */
 482:application-library/ili9341-lcd/ili9341.c **** void ili9341_get_display_pixel_format(uint8_t* p_read_data)
 483:application-library/ili9341-lcd/ili9341.c **** {
 1227              		.loc 1 483 0
 1228              		.cfi_startproc
 1229              		@ args = 0, pretend = 0, frame = 64
 1230              		@ frame_needed = 0, uses_anonymous_args = 0
 1231              	.LVL97:
 1232              		.loc 1 483 0
 1233 0000 70B5     		push	{r4, r5, r6, lr}
 1234              	.LCFI28:
 1235              		.cfi_def_cfa_offset 16
 1236              		.cfi_offset 4, -16
 1237              		.cfi_offset 5, -12
 1238              		.cfi_offset 6, -8
 1239              		.cfi_offset 14, -4
 1240 0002 92B0     		sub	sp, sp, #72
 1241              	.LCFI29:
 1242              		.cfi_def_cfa_offset 88
 1243 0004 0646     		mov	r6, r0
 484:application-library/ili9341-lcd/ili9341.c ****   bus_8080_read_register(0x0C, 2, p_read_data);
 1244              		.loc 1 484 0
 1245 0006 0246     		mov	r2, r0
 1246 0008 0221     		movs	r1, #2
 1247 000a 0C20     		movs	r0, #12
 1248              	.LVL98:
 1249 000c FFF7FEFF 		bl	bus_8080_read_register
 1250              	.LVL99:
 485:application-library/ili9341-lcd/ili9341.c ****  
 486:application-library/ili9341-lcd/ili9341.c ****   #if defined ILI9341_DEBUG
 487:application-library/ili9341-lcd/ili9341.c ****   char msg[64];
 488:application-library/ili9341-lcd/ili9341.c ****   sprintf(msg, "- Printing <Display Pixel Format> register value -\n");
 1251              		.loc 1 488 0
 1252 0010 02AC     		add	r4, sp, #8
 1253 0012 0E4D     		ldr	r5, .L89
 1254 0014 0FCD     		ldmia	r5!, {r0, r1, r2, r3}
 1255 0016 0FC4     		stmia	r4!, {r0, r1, r2, r3}
 1256 0018 0FCD     		ldmia	r5!, {r0, r1, r2, r3}
 1257 001a 0FC4     		stmia	r4!, {r0, r1, r2, r3}
 1258 001c 0FCD     		ldmia	r5!, {r0, r1, r2, r3}
 1259 001e 0FC4     		stmia	r4!, {r0, r1, r2, r3}
 1260 0020 2B68     		ldr	r3, [r5]
 1261 0022 2360     		str	r3, [r4]
 489:application-library/ili9341-lcd/ili9341.c ****   serial_print(msg);
 1262              		.loc 1 489 0
 1263 0024 02A8     		add	r0, sp, #8
 1264 0026 FFF7FEFF 		bl	serial_print
 1265              	.LVL100:
 490:application-library/ili9341-lcd/ili9341.c ****   sprintf(msg, "Display pixel format: RIM:%d DPI: %d DBI: %d \n", p_read_data[1] & 0x80, p_read_dat
 1266              		.loc 1 490 0
 1267 002a 7278     		ldrb	r2, [r6, #1]	@ zero_extendqisi2
 1268 002c 02F00703 		and	r3, r2, #7
 1269 0030 0093     		str	r3, [sp]
ARM GAS  /tmp/ccoB52Ks.s 			page 31


 1270 0032 02F07003 		and	r3, r2, #112
 1271 0036 02F08002 		and	r2, r2, #128
 1272 003a 0549     		ldr	r1, .L89+4
 1273 003c 02A8     		add	r0, sp, #8
 1274 003e FFF7FEFF 		bl	sprintf
 1275              	.LVL101:
 491:application-library/ili9341-lcd/ili9341.c ****   serial_print(msg);
 1276              		.loc 1 491 0
 1277 0042 02A8     		add	r0, sp, #8
 1278 0044 FFF7FEFF 		bl	serial_print
 1279              	.LVL102:
 492:application-library/ili9341-lcd/ili9341.c ****   #endif
 493:application-library/ili9341-lcd/ili9341.c **** }
 1280              		.loc 1 493 0
 1281 0048 12B0     		add	sp, sp, #72
 1282              	.LCFI30:
 1283              		.cfi_def_cfa_offset 16
 1284              		@ sp needed
 1285 004a 70BD     		pop	{r4, r5, r6, pc}
 1286              	.LVL103:
 1287              	.L90:
 1288              		.align	2
 1289              	.L89:
 1290 004c 00000000 		.word	.LC6
 1291 0050 34000000 		.word	.LC7
 1292              		.cfi_endproc
 1293              	.LFE158:
 1295              		.section	.text.ili9341_get_display_image_format,"ax",%progbits
 1296              		.align	1
 1297              		.global	ili9341_get_display_image_format
 1298              		.syntax unified
 1299              		.thumb
 1300              		.thumb_func
 1301              		.fpu fpv4-sp-d16
 1303              	ili9341_get_display_image_format:
 1304              	.LFB159:
 494:application-library/ili9341-lcd/ili9341.c **** 
 495:application-library/ili9341-lcd/ili9341.c **** 
 496:application-library/ili9341-lcd/ili9341.c **** /** 
 497:application-library/ili9341-lcd/ili9341.c ****   * @brief  TODO 8.2.8. Read Display Image Format (0Dh)
 498:application-library/ili9341-lcd/ili9341.c ****   * @param  p_read_data Pointer to display format.
 499:application-library/ili9341-lcd/ili9341.c ****   * @retval None.
 500:application-library/ili9341-lcd/ili9341.c ****   */
 501:application-library/ili9341-lcd/ili9341.c **** void ili9341_get_display_image_format(uint8_t* p_read_data)
 502:application-library/ili9341-lcd/ili9341.c **** {
 1305              		.loc 1 502 0
 1306              		.cfi_startproc
 1307              		@ args = 0, pretend = 0, frame = 0
 1308              		@ frame_needed = 0, uses_anonymous_args = 0
 1309              		@ link register save eliminated.
 1310              	.LVL104:
 1311 0000 7047     		bx	lr
 1312              		.cfi_endproc
 1313              	.LFE159:
 1315              		.section	.text.ili9341_get_display_signal_mode,"ax",%progbits
 1316              		.align	1
 1317              		.global	ili9341_get_display_signal_mode
ARM GAS  /tmp/ccoB52Ks.s 			page 32


 1318              		.syntax unified
 1319              		.thumb
 1320              		.thumb_func
 1321              		.fpu fpv4-sp-d16
 1323              	ili9341_get_display_signal_mode:
 1324              	.LFB160:
 503:application-library/ili9341-lcd/ili9341.c **** 
 504:application-library/ili9341-lcd/ili9341.c **** }
 505:application-library/ili9341-lcd/ili9341.c **** 
 506:application-library/ili9341-lcd/ili9341.c **** /**
 507:application-library/ili9341-lcd/ili9341.c ****   * @brief  8.2.9. Read Display Signal Mode (0Eh) 
 508:application-library/ili9341-lcd/ili9341.c ****   * @param  p_read_data Pointer to data read from RDDSM (Read Display Signal Mode).
 509:application-library/ili9341-lcd/ili9341.c ****   * @retval None. 
 510:application-library/ili9341-lcd/ili9341.c ****   * @note   Bit               Description                   
 511:application-library/ili9341-lcd/ili9341.c ****   *         7                 0 Tearing effect line OFF
 512:application-library/ili9341-lcd/ili9341.c ****   *                           1 Tearing effect line ON
 513:application-library/ili9341-lcd/ili9341.c ****   *         6                 0 Tearing effect line mode 1
 514:application-library/ili9341-lcd/ili9341.c ****   *                           1 Tearing effect line mode 2
 515:application-library/ili9341-lcd/ili9341.c ****   *         5                 0 Horizontal sync. (RGB interface) OFF
 516:application-library/ili9341-lcd/ili9341.c ****   *                           1 Horizontal sync. (RGB interface) ON
 517:application-library/ili9341-lcd/ili9341.c ****   *         4                 0 Vertical sync. (RGB interface) OFF
 518:application-library/ili9341-lcd/ili9341.c ****   *                           1 Vertical sync. (RGB interface) ON
 519:application-library/ili9341-lcd/ili9341.c ****   *         3                 0 Pixel clock (DOTCLK, RGB interface) OFF
 520:application-library/ili9341-lcd/ili9341.c ****   *                           1 Pixel clock (DOTCLK, RGB interface) ON
 521:application-library/ili9341-lcd/ili9341.c ****   *         2                 0 Data enable (DE, RGB interface) OFF  
 522:application-library/ili9341-lcd/ili9341.c ****   *                           1 Data enable (DE, RGB interface) ON
 523:application-library/ili9341-lcd/ili9341.c ****   *         1                 Don't Care
 524:application-library/ili9341-lcd/ili9341.c ****   *         0                 Don't Care
 525:application-library/ili9341-lcd/ili9341.c ****   */
 526:application-library/ili9341-lcd/ili9341.c **** void ili9341_get_display_signal_mode(uint8_t* p_read_data)
 527:application-library/ili9341-lcd/ili9341.c **** {
 1325              		.loc 1 527 0
 1326              		.cfi_startproc
 1327              		@ args = 0, pretend = 0, frame = 64
 1328              		@ frame_needed = 0, uses_anonymous_args = 0
 1329              	.LVL105:
 1330              		.loc 1 527 0
 1331 0000 70B5     		push	{r4, r5, r6, lr}
 1332              	.LCFI31:
 1333              		.cfi_def_cfa_offset 16
 1334              		.cfi_offset 4, -16
 1335              		.cfi_offset 5, -12
 1336              		.cfi_offset 6, -8
 1337              		.cfi_offset 14, -4
 1338 0002 90B0     		sub	sp, sp, #64
 1339              	.LCFI32:
 1340              		.cfi_def_cfa_offset 80
 1341 0004 0646     		mov	r6, r0
 528:application-library/ili9341-lcd/ili9341.c ****   bus_8080_read_register(0x0E, 2, p_read_data);
 1342              		.loc 1 528 0
 1343 0006 0246     		mov	r2, r0
 1344 0008 0221     		movs	r1, #2
 1345 000a 0E20     		movs	r0, #14
 1346              	.LVL106:
 1347 000c FFF7FEFF 		bl	bus_8080_read_register
 1348              	.LVL107:
 529:application-library/ili9341-lcd/ili9341.c ****  
ARM GAS  /tmp/ccoB52Ks.s 			page 33


 530:application-library/ili9341-lcd/ili9341.c ****   #if defined ILI9341_DEBUG
 531:application-library/ili9341-lcd/ili9341.c **** 
 532:application-library/ili9341-lcd/ili9341.c ****   char msg[64];
 533:application-library/ili9341-lcd/ili9341.c ****   sprintf(msg, "- Printing <RDDSM (Read Display Signal Mode)> register value -\n"); serial_print(ms
 1349              		.loc 1 533 0
 1350 0010 6C46     		mov	r4, sp
 1351 0012 264D     		ldr	r5, .L94
 1352 0014 0FCD     		ldmia	r5!, {r0, r1, r2, r3}
 1353 0016 0FC4     		stmia	r4!, {r0, r1, r2, r3}
 1354 0018 0FCD     		ldmia	r5!, {r0, r1, r2, r3}
 1355 001a 0FC4     		stmia	r4!, {r0, r1, r2, r3}
 1356 001c 0FCD     		ldmia	r5!, {r0, r1, r2, r3}
 1357 001e 0FC4     		stmia	r4!, {r0, r1, r2, r3}
 1358 0020 95E80F00 		ldm	r5, {r0, r1, r2, r3}
 1359 0024 84E80F00 		stm	r4, {r0, r1, r2, r3}
 1360 0028 6846     		mov	r0, sp
 1361 002a FFF7FEFF 		bl	serial_print
 1362              	.LVL108:
 534:application-library/ili9341-lcd/ili9341.c ****   sprintf(msg, "Tearing effect line: %d\n", (p_read_data[1] & 0x80) ? 1 : 0); 
 1363              		.loc 1 534 0
 1364 002e 96F90120 		ldrsb	r2, [r6, #1]
 1365 0032 D20F     		lsrs	r2, r2, #31
 1366 0034 1E49     		ldr	r1, .L94+4
 1367 0036 6846     		mov	r0, sp
 1368 0038 FFF7FEFF 		bl	sprintf
 1369              	.LVL109:
 535:application-library/ili9341-lcd/ili9341.c ****   serial_print(msg);
 1370              		.loc 1 535 0
 1371 003c 6846     		mov	r0, sp
 1372 003e FFF7FEFF 		bl	serial_print
 1373              	.LVL110:
 536:application-library/ili9341-lcd/ili9341.c ****   sprintf(msg, "Tearing effect line mode: %d\n", (p_read_data[1] & 0x40) ? 1 : 0); 
 1374              		.loc 1 536 0
 1375 0042 7278     		ldrb	r2, [r6, #1]	@ zero_extendqisi2
 1376 0044 C2F38012 		ubfx	r2, r2, #6, #1
 1377 0048 1A49     		ldr	r1, .L94+8
 1378 004a 6846     		mov	r0, sp
 1379 004c FFF7FEFF 		bl	sprintf
 1380              	.LVL111:
 537:application-library/ili9341-lcd/ili9341.c ****   serial_print(msg);
 1381              		.loc 1 537 0
 1382 0050 6846     		mov	r0, sp
 1383 0052 FFF7FEFF 		bl	serial_print
 1384              	.LVL112:
 538:application-library/ili9341-lcd/ili9341.c ****   sprintf(msg, "Horizontal sync: %d\n", (p_read_data[1] & 0x20) ? 1 : 0); 
 1385              		.loc 1 538 0
 1386 0056 7278     		ldrb	r2, [r6, #1]	@ zero_extendqisi2
 1387 0058 C2F34012 		ubfx	r2, r2, #5, #1
 1388 005c 1649     		ldr	r1, .L94+12
 1389 005e 6846     		mov	r0, sp
 1390 0060 FFF7FEFF 		bl	sprintf
 1391              	.LVL113:
 539:application-library/ili9341-lcd/ili9341.c ****   serial_print(msg);
 1392              		.loc 1 539 0
 1393 0064 6846     		mov	r0, sp
 1394 0066 FFF7FEFF 		bl	serial_print
 1395              	.LVL114:
ARM GAS  /tmp/ccoB52Ks.s 			page 34


 540:application-library/ili9341-lcd/ili9341.c ****   sprintf(msg, "Vertical sync: %d\n", (p_read_data[1] & 0x10) ? 1 : 0); 
 1396              		.loc 1 540 0
 1397 006a 7278     		ldrb	r2, [r6, #1]	@ zero_extendqisi2
 1398 006c C2F30012 		ubfx	r2, r2, #4, #1
 1399 0070 1249     		ldr	r1, .L94+16
 1400 0072 6846     		mov	r0, sp
 1401 0074 FFF7FEFF 		bl	sprintf
 1402              	.LVL115:
 541:application-library/ili9341-lcd/ili9341.c ****   serial_print(msg);
 1403              		.loc 1 541 0
 1404 0078 6846     		mov	r0, sp
 1405 007a FFF7FEFF 		bl	serial_print
 1406              	.LVL116:
 542:application-library/ili9341-lcd/ili9341.c ****   sprintf(msg, "Pixel clock: %d\n", (p_read_data[1] & 0x08) ? 1 : 0); 
 1407              		.loc 1 542 0
 1408 007e 7278     		ldrb	r2, [r6, #1]	@ zero_extendqisi2
 1409 0080 C2F3C002 		ubfx	r2, r2, #3, #1
 1410 0084 0E49     		ldr	r1, .L94+20
 1411 0086 6846     		mov	r0, sp
 1412 0088 FFF7FEFF 		bl	sprintf
 1413              	.LVL117:
 543:application-library/ili9341-lcd/ili9341.c ****   serial_print(msg);
 1414              		.loc 1 543 0
 1415 008c 6846     		mov	r0, sp
 1416 008e FFF7FEFF 		bl	serial_print
 1417              	.LVL118:
 544:application-library/ili9341-lcd/ili9341.c ****   sprintf(msg, "Data enable: %d\n", (p_read_data[1] & 0x04) ? 1 : 0); 
 1418              		.loc 1 544 0
 1419 0092 7278     		ldrb	r2, [r6, #1]	@ zero_extendqisi2
 1420 0094 C2F38002 		ubfx	r2, r2, #2, #1
 1421 0098 0A49     		ldr	r1, .L94+24
 1422 009a 6846     		mov	r0, sp
 1423 009c FFF7FEFF 		bl	sprintf
 1424              	.LVL119:
 545:application-library/ili9341-lcd/ili9341.c ****   serial_print(msg);
 1425              		.loc 1 545 0
 1426 00a0 6846     		mov	r0, sp
 1427 00a2 FFF7FEFF 		bl	serial_print
 1428              	.LVL120:
 546:application-library/ili9341-lcd/ili9341.c ****   #endif
 547:application-library/ili9341-lcd/ili9341.c **** }
 1429              		.loc 1 547 0
 1430 00a6 10B0     		add	sp, sp, #64
 1431              	.LCFI33:
 1432              		.cfi_def_cfa_offset 16
 1433              		@ sp needed
 1434 00a8 70BD     		pop	{r4, r5, r6, pc}
 1435              	.LVL121:
 1436              	.L95:
 1437 00aa 00BF     		.align	2
 1438              	.L94:
 1439 00ac 90000000 		.word	.LC8
 1440 00b0 00000000 		.word	.LC9
 1441 00b4 1C000000 		.word	.LC10
 1442 00b8 3C000000 		.word	.LC11
 1443 00bc 54000000 		.word	.LC12
 1444 00c0 68000000 		.word	.LC13
ARM GAS  /tmp/ccoB52Ks.s 			page 35


 1445 00c4 7C000000 		.word	.LC14
 1446              		.cfi_endproc
 1447              	.LFE160:
 1449              		.section	.text.ili9341_get_display_diagnostic_result,"ax",%progbits
 1450              		.align	1
 1451              		.global	ili9341_get_display_diagnostic_result
 1452              		.syntax unified
 1453              		.thumb
 1454              		.thumb_func
 1455              		.fpu fpv4-sp-d16
 1457              	ili9341_get_display_diagnostic_result:
 1458              	.LFB161:
 548:application-library/ili9341-lcd/ili9341.c **** 
 549:application-library/ili9341-lcd/ili9341.c **** 
 550:application-library/ili9341-lcd/ili9341.c **** 
 551:application-library/ili9341-lcd/ili9341.c **** /** 
 552:application-library/ili9341-lcd/ili9341.c ****   * @brief  TODO 8.2.10. Read Display Self-Diagnostic Result (0Fh) 
 553:application-library/ili9341-lcd/ili9341.c ****   * @param  p_read_data Pointer to display self-diagnostic result.
 554:application-library/ili9341-lcd/ili9341.c ****   * @retval None.
 555:application-library/ili9341-lcd/ili9341.c ****   */
 556:application-library/ili9341-lcd/ili9341.c **** void ili9341_get_display_diagnostic_result(uint8_t* p_read_data)
 557:application-library/ili9341-lcd/ili9341.c **** {
 1459              		.loc 1 557 0
 1460              		.cfi_startproc
 1461              		@ args = 0, pretend = 0, frame = 0
 1462              		@ frame_needed = 0, uses_anonymous_args = 0
 1463              		@ link register save eliminated.
 1464              	.LVL122:
 1465 0000 7047     		bx	lr
 1466              		.cfi_endproc
 1467              	.LFE161:
 1469              		.section	.text.ili9341_enter_sleep_mode,"ax",%progbits
 1470              		.align	1
 1471              		.global	ili9341_enter_sleep_mode
 1472              		.syntax unified
 1473              		.thumb
 1474              		.thumb_func
 1475              		.fpu fpv4-sp-d16
 1477              	ili9341_enter_sleep_mode:
 1478              	.LFB162:
 558:application-library/ili9341-lcd/ili9341.c **** 
 559:application-library/ili9341-lcd/ili9341.c **** }
 560:application-library/ili9341-lcd/ili9341.c **** 
 561:application-library/ili9341-lcd/ili9341.c **** /** 
 562:application-library/ili9341-lcd/ili9341.c ****   * @brief  8.2.11. Enter Sleep Mode (10h) 
 563:application-library/ili9341-lcd/ili9341.c ****   * @param  None.
 564:application-library/ili9341-lcd/ili9341.c ****   * @retval None.
 565:application-library/ili9341-lcd/ili9341.c ****   */
 566:application-library/ili9341-lcd/ili9341.c **** void ili9341_enter_sleep_mode() 
 567:application-library/ili9341-lcd/ili9341.c **** {
 1479              		.loc 1 567 0
 1480              		.cfi_startproc
 1481              		@ args = 0, pretend = 0, frame = 0
 1482              		@ frame_needed = 0, uses_anonymous_args = 0
 1483              		.loc 1 567 0
 1484 0000 08B5     		push	{r3, lr}
 1485              	.LCFI34:
ARM GAS  /tmp/ccoB52Ks.s 			page 36


 1486              		.cfi_def_cfa_offset 8
 1487              		.cfi_offset 3, -8
 1488              		.cfi_offset 14, -4
 568:application-library/ili9341-lcd/ili9341.c ****   bus_8080_write_register(0x10, 0, NULL);
 1489              		.loc 1 568 0
 1490 0002 0022     		movs	r2, #0
 1491 0004 1146     		mov	r1, r2
 1492 0006 1020     		movs	r0, #16
 1493 0008 FFF7FEFF 		bl	bus_8080_write_register
 1494              	.LVL123:
 1495 000c 08BD     		pop	{r3, pc}
 1496              		.cfi_endproc
 1497              	.LFE162:
 1499              		.section	.text.ili9341_exit_sleep_mode,"ax",%progbits
 1500              		.align	1
 1501              		.global	ili9341_exit_sleep_mode
 1502              		.syntax unified
 1503              		.thumb
 1504              		.thumb_func
 1505              		.fpu fpv4-sp-d16
 1507              	ili9341_exit_sleep_mode:
 1508              	.LFB163:
 569:application-library/ili9341-lcd/ili9341.c **** }
 570:application-library/ili9341-lcd/ili9341.c **** 
 571:application-library/ili9341-lcd/ili9341.c **** 
 572:application-library/ili9341-lcd/ili9341.c **** /** 
 573:application-library/ili9341-lcd/ili9341.c ****   * @brief  8.2.12. Sleep Out (11h) 
 574:application-library/ili9341-lcd/ili9341.c ****   * @param  None.
 575:application-library/ili9341-lcd/ili9341.c ****   * @retval None.
 576:application-library/ili9341-lcd/ili9341.c ****   */
 577:application-library/ili9341-lcd/ili9341.c **** void ili9341_exit_sleep_mode()
 578:application-library/ili9341-lcd/ili9341.c **** {
 1509              		.loc 1 578 0
 1510              		.cfi_startproc
 1511              		@ args = 0, pretend = 0, frame = 0
 1512              		@ frame_needed = 0, uses_anonymous_args = 0
 1513 0000 08B5     		push	{r3, lr}
 1514              	.LCFI35:
 1515              		.cfi_def_cfa_offset 8
 1516              		.cfi_offset 3, -8
 1517              		.cfi_offset 14, -4
 579:application-library/ili9341-lcd/ili9341.c ****   bus_8080_write_register(0x11, 0, NULL);
 1518              		.loc 1 579 0
 1519 0002 0022     		movs	r2, #0
 1520 0004 1146     		mov	r1, r2
 1521 0006 1120     		movs	r0, #17
 1522 0008 FFF7FEFF 		bl	bus_8080_write_register
 1523              	.LVL124:
 580:application-library/ili9341-lcd/ili9341.c ****   HAL_Delay(120);             //120ms
 1524              		.loc 1 580 0
 1525 000c 7820     		movs	r0, #120
 1526 000e FFF7FEFF 		bl	HAL_Delay
 1527              	.LVL125:
 1528 0012 08BD     		pop	{r3, pc}
 1529              		.cfi_endproc
 1530              	.LFE163:
 1532              		.section	.text.ili9341_set_partial_mode_on,"ax",%progbits
ARM GAS  /tmp/ccoB52Ks.s 			page 37


 1533              		.align	1
 1534              		.global	ili9341_set_partial_mode_on
 1535              		.syntax unified
 1536              		.thumb
 1537              		.thumb_func
 1538              		.fpu fpv4-sp-d16
 1540              	ili9341_set_partial_mode_on:
 1541              	.LFB164:
 581:application-library/ili9341-lcd/ili9341.c **** }
 582:application-library/ili9341-lcd/ili9341.c **** 
 583:application-library/ili9341-lcd/ili9341.c **** /**
 584:application-library/ili9341-lcd/ili9341.c ****   * @brief  8.2.13. Partial Mode ON (12h)
 585:application-library/ili9341-lcd/ili9341.c ****   * @param  None.
 586:application-library/ili9341-lcd/ili9341.c ****   * @retval None. 
 587:application-library/ili9341-lcd/ili9341.c ****   * @note   This command turns on partial mode the partial mode window 
 588:application-library/ili9341-lcd/ili9341.c ****   *            is described by the Partial Area command (0x30). 
 589:application-library/ili9341-lcd/ili9341.c ****   *          To leave Partial mode, the Normal Display Mode On 
 590:application-library/ili9341-lcd/ili9341.c ****   *            command (0x13) should be written
 591:application-library/ili9341-lcd/ili9341.c ****   */ 
 592:application-library/ili9341-lcd/ili9341.c **** void ili9341_set_partial_mode_on()
 593:application-library/ili9341-lcd/ili9341.c **** {
 1542              		.loc 1 593 0
 1543              		.cfi_startproc
 1544              		@ args = 0, pretend = 0, frame = 0
 1545              		@ frame_needed = 0, uses_anonymous_args = 0
 1546 0000 08B5     		push	{r3, lr}
 1547              	.LCFI36:
 1548              		.cfi_def_cfa_offset 8
 1549              		.cfi_offset 3, -8
 1550              		.cfi_offset 14, -4
 594:application-library/ili9341-lcd/ili9341.c ****   bus_8080_write_register(0x12, 0, NULL);
 1551              		.loc 1 594 0
 1552 0002 0022     		movs	r2, #0
 1553 0004 1146     		mov	r1, r2
 1554 0006 1220     		movs	r0, #18
 1555 0008 FFF7FEFF 		bl	bus_8080_write_register
 1556              	.LVL126:
 1557 000c 08BD     		pop	{r3, pc}
 1558              		.cfi_endproc
 1559              	.LFE164:
 1561              		.section	.text.ili9341_normal_mode_on,"ax",%progbits
 1562              		.align	1
 1563              		.global	ili9341_normal_mode_on
 1564              		.syntax unified
 1565              		.thumb
 1566              		.thumb_func
 1567              		.fpu fpv4-sp-d16
 1569              	ili9341_normal_mode_on:
 1570              	.LFB165:
 595:application-library/ili9341-lcd/ili9341.c **** }
 596:application-library/ili9341-lcd/ili9341.c **** 
 597:application-library/ili9341-lcd/ili9341.c **** 
 598:application-library/ili9341-lcd/ili9341.c **** /** 
 599:application-library/ili9341-lcd/ili9341.c ****   * @brief  8.2.14. Normal Display Mode ON (13h)
 600:application-library/ili9341-lcd/ili9341.c ****   * @param  None.
 601:application-library/ili9341-lcd/ili9341.c ****   * @retval None.
 602:application-library/ili9341-lcd/ili9341.c ****   */
ARM GAS  /tmp/ccoB52Ks.s 			page 38


 603:application-library/ili9341-lcd/ili9341.c **** void ili9341_normal_mode_on()
 604:application-library/ili9341-lcd/ili9341.c **** {
 1571              		.loc 1 604 0
 1572              		.cfi_startproc
 1573              		@ args = 0, pretend = 0, frame = 0
 1574              		@ frame_needed = 0, uses_anonymous_args = 0
 1575 0000 08B5     		push	{r3, lr}
 1576              	.LCFI37:
 1577              		.cfi_def_cfa_offset 8
 1578              		.cfi_offset 3, -8
 1579              		.cfi_offset 14, -4
 605:application-library/ili9341-lcd/ili9341.c ****   bus_8080_write_register(0x13, 0, NULL);
 1580              		.loc 1 605 0
 1581 0002 0022     		movs	r2, #0
 1582 0004 1146     		mov	r1, r2
 1583 0006 1320     		movs	r0, #19
 1584 0008 FFF7FEFF 		bl	bus_8080_write_register
 1585              	.LVL127:
 1586 000c 08BD     		pop	{r3, pc}
 1587              		.cfi_endproc
 1588              	.LFE165:
 1590              		.section	.text.ili9341_set_display_inversion_off,"ax",%progbits
 1591              		.align	1
 1592              		.global	ili9341_set_display_inversion_off
 1593              		.syntax unified
 1594              		.thumb
 1595              		.thumb_func
 1596              		.fpu fpv4-sp-d16
 1598              	ili9341_set_display_inversion_off:
 1599              	.LFB166:
 606:application-library/ili9341-lcd/ili9341.c **** }
 607:application-library/ili9341-lcd/ili9341.c **** 
 608:application-library/ili9341-lcd/ili9341.c **** /** 
 609:application-library/ili9341-lcd/ili9341.c ****   * @brief  8.2.15. Display Inversion OFF (20h)
 610:application-library/ili9341-lcd/ili9341.c ****   * @param  None.
 611:application-library/ili9341-lcd/ili9341.c ****   * @retval None.
 612:application-library/ili9341-lcd/ili9341.c ****   */
 613:application-library/ili9341-lcd/ili9341.c **** void ili9341_set_display_inversion_off()
 614:application-library/ili9341-lcd/ili9341.c **** {
 1600              		.loc 1 614 0
 1601              		.cfi_startproc
 1602              		@ args = 0, pretend = 0, frame = 0
 1603              		@ frame_needed = 0, uses_anonymous_args = 0
 1604 0000 08B5     		push	{r3, lr}
 1605              	.LCFI38:
 1606              		.cfi_def_cfa_offset 8
 1607              		.cfi_offset 3, -8
 1608              		.cfi_offset 14, -4
 615:application-library/ili9341-lcd/ili9341.c ****   bus_8080_write_register(0x20, 0, NULL);
 1609              		.loc 1 615 0
 1610 0002 0022     		movs	r2, #0
 1611 0004 1146     		mov	r1, r2
 1612 0006 2020     		movs	r0, #32
 1613 0008 FFF7FEFF 		bl	bus_8080_write_register
 1614              	.LVL128:
 1615 000c 08BD     		pop	{r3, pc}
 1616              		.cfi_endproc
ARM GAS  /tmp/ccoB52Ks.s 			page 39


 1617              	.LFE166:
 1619              		.section	.text.ili9341_set_display_inversion_on,"ax",%progbits
 1620              		.align	1
 1621              		.global	ili9341_set_display_inversion_on
 1622              		.syntax unified
 1623              		.thumb
 1624              		.thumb_func
 1625              		.fpu fpv4-sp-d16
 1627              	ili9341_set_display_inversion_on:
 1628              	.LFB167:
 616:application-library/ili9341-lcd/ili9341.c **** }
 617:application-library/ili9341-lcd/ili9341.c **** 
 618:application-library/ili9341-lcd/ili9341.c **** /** 
 619:application-library/ili9341-lcd/ili9341.c ****   * @brief  8.2.16. Display Inversion ON (21h) 
 620:application-library/ili9341-lcd/ili9341.c ****   * @param  None.
 621:application-library/ili9341-lcd/ili9341.c ****   * @retval None.
 622:application-library/ili9341-lcd/ili9341.c ****   */
 623:application-library/ili9341-lcd/ili9341.c **** void ili9341_set_display_inversion_on()
 624:application-library/ili9341-lcd/ili9341.c **** {
 1629              		.loc 1 624 0
 1630              		.cfi_startproc
 1631              		@ args = 0, pretend = 0, frame = 0
 1632              		@ frame_needed = 0, uses_anonymous_args = 0
 1633 0000 08B5     		push	{r3, lr}
 1634              	.LCFI39:
 1635              		.cfi_def_cfa_offset 8
 1636              		.cfi_offset 3, -8
 1637              		.cfi_offset 14, -4
 625:application-library/ili9341-lcd/ili9341.c ****   bus_8080_write_register(0x21, 0, NULL);
 1638              		.loc 1 625 0
 1639 0002 0022     		movs	r2, #0
 1640 0004 1146     		mov	r1, r2
 1641 0006 2120     		movs	r0, #33
 1642 0008 FFF7FEFF 		bl	bus_8080_write_register
 1643              	.LVL129:
 1644 000c 08BD     		pop	{r3, pc}
 1645              		.cfi_endproc
 1646              	.LFE167:
 1648              		.section	.text.ili9341_set_gamma,"ax",%progbits
 1649              		.align	1
 1650              		.global	ili9341_set_gamma
 1651              		.syntax unified
 1652              		.thumb
 1653              		.thumb_func
 1654              		.fpu fpv4-sp-d16
 1656              	ili9341_set_gamma:
 1657              	.LFB168:
 626:application-library/ili9341-lcd/ili9341.c **** }
 627:application-library/ili9341-lcd/ili9341.c **** 
 628:application-library/ili9341-lcd/ili9341.c **** 
 629:application-library/ili9341-lcd/ili9341.c **** /** 
 630:application-library/ili9341-lcd/ili9341.c ****   * @brief  8.2.17. Gamma Set (26h) 
 631:application-library/ili9341-lcd/ili9341.c ****   * @param  None.
 632:application-library/ili9341-lcd/ili9341.c ****   * @retval None.
 633:application-library/ili9341-lcd/ili9341.c ****   */
 634:application-library/ili9341-lcd/ili9341.c **** void ili9341_set_gamma()
 635:application-library/ili9341-lcd/ili9341.c **** {
ARM GAS  /tmp/ccoB52Ks.s 			page 40


 1658              		.loc 1 635 0
 1659              		.cfi_startproc
 1660              		@ args = 0, pretend = 0, frame = 8
 1661              		@ frame_needed = 0, uses_anonymous_args = 0
 1662 0000 00B5     		push	{lr}
 1663              	.LCFI40:
 1664              		.cfi_def_cfa_offset 4
 1665              		.cfi_offset 14, -4
 1666 0002 83B0     		sub	sp, sp, #12
 1667              	.LCFI41:
 1668              		.cfi_def_cfa_offset 16
 636:application-library/ili9341-lcd/ili9341.c ****   uint8_t p_param[1] = {0x01};
 1669              		.loc 1 636 0
 1670 0004 02AA     		add	r2, sp, #8
 1671 0006 0123     		movs	r3, #1
 1672 0008 02F8043D 		strb	r3, [r2, #-4]!
 637:application-library/ili9341-lcd/ili9341.c ****   bus_8080_write_register(0x26, 4, p_param);
 1673              		.loc 1 637 0
 1674 000c 0421     		movs	r1, #4
 1675 000e 2620     		movs	r0, #38
 1676 0010 FFF7FEFF 		bl	bus_8080_write_register
 1677              	.LVL130:
 638:application-library/ili9341-lcd/ili9341.c **** }
 1678              		.loc 1 638 0
 1679 0014 03B0     		add	sp, sp, #12
 1680              	.LCFI42:
 1681              		.cfi_def_cfa_offset 4
 1682              		@ sp needed
 1683 0016 5DF804FB 		ldr	pc, [sp], #4
 1684              		.cfi_endproc
 1685              	.LFE168:
 1687              		.section	.text.ili9341_set_display_off,"ax",%progbits
 1688              		.align	1
 1689              		.global	ili9341_set_display_off
 1690              		.syntax unified
 1691              		.thumb
 1692              		.thumb_func
 1693              		.fpu fpv4-sp-d16
 1695              	ili9341_set_display_off:
 1696              	.LFB169:
 639:application-library/ili9341-lcd/ili9341.c **** 
 640:application-library/ili9341-lcd/ili9341.c **** 
 641:application-library/ili9341-lcd/ili9341.c **** /** 
 642:application-library/ili9341-lcd/ili9341.c ****   * @brief  8.2.18. Display OFF (28h) 
 643:application-library/ili9341-lcd/ili9341.c ****   *         Output of Frame Memory is disabled and blank paged is inserted. 
 644:application-library/ili9341-lcd/ili9341.c ****   * @param  None. 
 645:application-library/ili9341-lcd/ili9341.c ****   * @retval None.
 646:application-library/ili9341-lcd/ili9341.c ****   * @note   This command does not change current frame memory.
 647:application-library/ili9341-lcd/ili9341.c ****   */
 648:application-library/ili9341-lcd/ili9341.c **** void ili9341_set_display_off()
 649:application-library/ili9341-lcd/ili9341.c **** {
 1697              		.loc 1 649 0
 1698              		.cfi_startproc
 1699              		@ args = 0, pretend = 0, frame = 0
 1700              		@ frame_needed = 0, uses_anonymous_args = 0
 1701 0000 08B5     		push	{r3, lr}
 1702              	.LCFI43:
ARM GAS  /tmp/ccoB52Ks.s 			page 41


 1703              		.cfi_def_cfa_offset 8
 1704              		.cfi_offset 3, -8
 1705              		.cfi_offset 14, -4
 650:application-library/ili9341-lcd/ili9341.c ****   bus_8080_write_register(0x28, 0, NULL);
 1706              		.loc 1 650 0
 1707 0002 0022     		movs	r2, #0
 1708 0004 1146     		mov	r1, r2
 1709 0006 2820     		movs	r0, #40
 1710 0008 FFF7FEFF 		bl	bus_8080_write_register
 1711              	.LVL131:
 1712 000c 08BD     		pop	{r3, pc}
 1713              		.cfi_endproc
 1714              	.LFE169:
 1716              		.section	.text.ili9341_set_display_on,"ax",%progbits
 1717              		.align	1
 1718              		.global	ili9341_set_display_on
 1719              		.syntax unified
 1720              		.thumb
 1721              		.thumb_func
 1722              		.fpu fpv4-sp-d16
 1724              	ili9341_set_display_on:
 1725              	.LFB170:
 651:application-library/ili9341-lcd/ili9341.c **** }
 652:application-library/ili9341-lcd/ili9341.c **** 
 653:application-library/ili9341-lcd/ili9341.c **** 
 654:application-library/ili9341-lcd/ili9341.c **** /** 
 655:application-library/ili9341-lcd/ili9341.c ****   * @brief  8.2.19. Display ON (29h) 
 656:application-library/ili9341-lcd/ili9341.c ****   *         This command recovers the IC from DISPLAY OFF mode.
 657:application-library/ili9341-lcd/ili9341.c ****   *         Output from frame memory is enabled.
 658:application-library/ili9341-lcd/ili9341.c ****   * @param  None. 
 659:application-library/ili9341-lcd/ili9341.c ****   * @retval None.
 660:application-library/ili9341-lcd/ili9341.c ****   I @note   This command does not change current frame memory.
 661:application-library/ili9341-lcd/ili9341.c ****   */
 662:application-library/ili9341-lcd/ili9341.c **** void ili9341_set_display_on()
 663:application-library/ili9341-lcd/ili9341.c **** {
 1726              		.loc 1 663 0
 1727              		.cfi_startproc
 1728              		@ args = 0, pretend = 0, frame = 0
 1729              		@ frame_needed = 0, uses_anonymous_args = 0
 1730 0000 08B5     		push	{r3, lr}
 1731              	.LCFI44:
 1732              		.cfi_def_cfa_offset 8
 1733              		.cfi_offset 3, -8
 1734              		.cfi_offset 14, -4
 664:application-library/ili9341-lcd/ili9341.c ****   bus_8080_write_register(0x29, 0, NULL);
 1735              		.loc 1 664 0
 1736 0002 0022     		movs	r2, #0
 1737 0004 1146     		mov	r1, r2
 1738 0006 2920     		movs	r0, #41
 1739 0008 FFF7FEFF 		bl	bus_8080_write_register
 1740              	.LVL132:
 1741 000c 08BD     		pop	{r3, pc}
 1742              		.cfi_endproc
 1743              	.LFE170:
 1745              		.section	.text.ili9341_set_column_address,"ax",%progbits
 1746              		.align	1
 1747              		.global	ili9341_set_column_address
ARM GAS  /tmp/ccoB52Ks.s 			page 42


 1748              		.syntax unified
 1749              		.thumb
 1750              		.thumb_func
 1751              		.fpu fpv4-sp-d16
 1753              	ili9341_set_column_address:
 1754              	.LFB171:
 665:application-library/ili9341-lcd/ili9341.c **** }
 666:application-library/ili9341-lcd/ili9341.c **** 
 667:application-library/ili9341-lcd/ili9341.c **** 
 668:application-library/ili9341-lcd/ili9341.c **** /** 
 669:application-library/ili9341-lcd/ili9341.c ****   * @brief  8.2.20. Column Address Set (2Ah) 
 670:application-library/ili9341-lcd/ili9341.c ****   * @param  x1 Starting column 
 671:application-library/ili9341-lcd/ili9341.c ****   * @param  x2 Ending column
 672:application-library/ili9341-lcd/ili9341.c ****   * @retval None.
 673:application-library/ili9341-lcd/ili9341.c ****   * @note   Imagine vertical pointers as columns. Counterpart to page addresses.
 674:application-library/ili9341-lcd/ili9341.c ****   */
 675:application-library/ili9341-lcd/ili9341.c **** void ili9341_set_column_address(uint16_t x1, uint16_t x2)
 676:application-library/ili9341-lcd/ili9341.c **** {
 1755              		.loc 1 676 0
 1756              		.cfi_startproc
 1757              		@ args = 0, pretend = 0, frame = 8
 1758              		@ frame_needed = 0, uses_anonymous_args = 0
 1759              	.LVL133:
 1760 0000 00B5     		push	{lr}
 1761              	.LCFI45:
 1762              		.cfi_def_cfa_offset 4
 1763              		.cfi_offset 14, -4
 1764 0002 83B0     		sub	sp, sp, #12
 1765              	.LCFI46:
 1766              		.cfi_def_cfa_offset 16
 677:application-library/ili9341-lcd/ili9341.c ****   uint8_t p_param[4] = { (uint8_t)(x1 >> 8), (uint8_t)x1, (uint8_t)(x2 >> 8), (uint8_t)x2};
 1767              		.loc 1 677 0
 1768 0004 030A     		lsrs	r3, r0, #8
 1769 0006 8DF80430 		strb	r3, [sp, #4]
 1770 000a 8DF80500 		strb	r0, [sp, #5]
 1771 000e 0B0A     		lsrs	r3, r1, #8
 1772 0010 8DF80630 		strb	r3, [sp, #6]
 1773 0014 8DF80710 		strb	r1, [sp, #7]
 678:application-library/ili9341-lcd/ili9341.c ****   bus_8080_write_register(0x2A, 4, p_param);
 1774              		.loc 1 678 0
 1775 0018 01AA     		add	r2, sp, #4
 1776 001a 0421     		movs	r1, #4
 1777              	.LVL134:
 1778 001c 2A20     		movs	r0, #42
 1779              	.LVL135:
 1780 001e FFF7FEFF 		bl	bus_8080_write_register
 1781              	.LVL136:
 679:application-library/ili9341-lcd/ili9341.c **** }
 1782              		.loc 1 679 0
 1783 0022 03B0     		add	sp, sp, #12
 1784              	.LCFI47:
 1785              		.cfi_def_cfa_offset 4
 1786              		@ sp needed
 1787 0024 5DF804FB 		ldr	pc, [sp], #4
 1788              		.cfi_endproc
 1789              	.LFE171:
 1791              		.section	.text.ili9341_set_page_address,"ax",%progbits
ARM GAS  /tmp/ccoB52Ks.s 			page 43


 1792              		.align	1
 1793              		.global	ili9341_set_page_address
 1794              		.syntax unified
 1795              		.thumb
 1796              		.thumb_func
 1797              		.fpu fpv4-sp-d16
 1799              	ili9341_set_page_address:
 1800              	.LFB172:
 680:application-library/ili9341-lcd/ili9341.c **** 
 681:application-library/ili9341-lcd/ili9341.c **** 
 682:application-library/ili9341-lcd/ili9341.c **** /** 
 683:application-library/ili9341-lcd/ili9341.c ****   * @brief  8.2.21. Page Address Set (2Bh)
 684:application-library/ili9341-lcd/ili9341.c ****   * @param  y1 Starting page
 685:application-library/ili9341-lcd/ili9341.c ****   * @param  y2 Ending page
 686:application-library/ili9341-lcd/ili9341.c ****   * @retval None.
 687:application-library/ili9341-lcd/ili9341.c ****   * @note   Imagine horizontal pointers as columns. Counterpart to column addresses.
 688:application-library/ili9341-lcd/ili9341.c ****   */
 689:application-library/ili9341-lcd/ili9341.c **** void ili9341_set_page_address(uint16_t y1, uint16_t y2)
 690:application-library/ili9341-lcd/ili9341.c **** {
 1801              		.loc 1 690 0
 1802              		.cfi_startproc
 1803              		@ args = 0, pretend = 0, frame = 8
 1804              		@ frame_needed = 0, uses_anonymous_args = 0
 1805              	.LVL137:
 1806 0000 00B5     		push	{lr}
 1807              	.LCFI48:
 1808              		.cfi_def_cfa_offset 4
 1809              		.cfi_offset 14, -4
 1810 0002 83B0     		sub	sp, sp, #12
 1811              	.LCFI49:
 1812              		.cfi_def_cfa_offset 16
 691:application-library/ili9341-lcd/ili9341.c ****   uint8_t p_param[4] = { (uint8_t)(y1 >> 8), (uint8_t)y1, (uint8_t)(y2 >> 8), (uint8_t)y2};
 1813              		.loc 1 691 0
 1814 0004 030A     		lsrs	r3, r0, #8
 1815 0006 8DF80430 		strb	r3, [sp, #4]
 1816 000a 8DF80500 		strb	r0, [sp, #5]
 1817 000e 0B0A     		lsrs	r3, r1, #8
 1818 0010 8DF80630 		strb	r3, [sp, #6]
 1819 0014 8DF80710 		strb	r1, [sp, #7]
 692:application-library/ili9341-lcd/ili9341.c ****   bus_8080_write_register(0x2B, 4, p_param);
 1820              		.loc 1 692 0
 1821 0018 01AA     		add	r2, sp, #4
 1822 001a 0421     		movs	r1, #4
 1823              	.LVL138:
 1824 001c 2B20     		movs	r0, #43
 1825              	.LVL139:
 1826 001e FFF7FEFF 		bl	bus_8080_write_register
 1827              	.LVL140:
 693:application-library/ili9341-lcd/ili9341.c **** }
 1828              		.loc 1 693 0
 1829 0022 03B0     		add	sp, sp, #12
 1830              	.LCFI50:
 1831              		.cfi_def_cfa_offset 4
 1832              		@ sp needed
 1833 0024 5DF804FB 		ldr	pc, [sp], #4
 1834              		.cfi_endproc
 1835              	.LFE172:
ARM GAS  /tmp/ccoB52Ks.s 			page 44


 1837              		.section	.text.ili9341_memory_write,"ax",%progbits
 1838              		.align	1
 1839              		.global	ili9341_memory_write
 1840              		.syntax unified
 1841              		.thumb
 1842              		.thumb_func
 1843              		.fpu fpv4-sp-d16
 1845              	ili9341_memory_write:
 1846              	.LFB173:
 694:application-library/ili9341-lcd/ili9341.c **** 
 695:application-library/ili9341-lcd/ili9341.c **** 
 696:application-library/ili9341-lcd/ili9341.c **** /** 
 697:application-library/ili9341-lcd/ili9341.c ****   * @brief  TODO 8.2.22. Memory Write (2Ch) 
 698:application-library/ili9341-lcd/ili9341.c ****   * @param  None.
 699:application-library/ili9341-lcd/ili9341.c ****   * @retval None.
 700:application-library/ili9341-lcd/ili9341.c ****   */
 701:application-library/ili9341-lcd/ili9341.c **** void ili9341_memory_write()
 702:application-library/ili9341-lcd/ili9341.c **** {
 1847              		.loc 1 702 0
 1848              		.cfi_startproc
 1849              		@ args = 0, pretend = 0, frame = 0
 1850              		@ frame_needed = 0, uses_anonymous_args = 0
 1851 0000 08B5     		push	{r3, lr}
 1852              	.LCFI51:
 1853              		.cfi_def_cfa_offset 8
 1854              		.cfi_offset 3, -8
 1855              		.cfi_offset 14, -4
 703:application-library/ili9341-lcd/ili9341.c ****   bus_8080_write_register(0x2C, 0, NULL);
 1856              		.loc 1 703 0
 1857 0002 0022     		movs	r2, #0
 1858 0004 1146     		mov	r1, r2
 1859 0006 2C20     		movs	r0, #44
 1860 0008 FFF7FEFF 		bl	bus_8080_write_register
 1861              	.LVL141:
 1862 000c 08BD     		pop	{r3, pc}
 1863              		.cfi_endproc
 1864              	.LFE173:
 1866              		.section	.text.ili9341_set_color,"ax",%progbits
 1867              		.align	1
 1868              		.global	ili9341_set_color
 1869              		.syntax unified
 1870              		.thumb
 1871              		.thumb_func
 1872              		.fpu fpv4-sp-d16
 1874              	ili9341_set_color:
 1875              	.LFB174:
 704:application-library/ili9341-lcd/ili9341.c **** }
 705:application-library/ili9341-lcd/ili9341.c **** 
 706:application-library/ili9341-lcd/ili9341.c **** 
 707:application-library/ili9341-lcd/ili9341.c **** /** 
 708:application-library/ili9341-lcd/ili9341.c ****   * @brief  TODO 8.2.23. Color Set (2Dh) 
 709:application-library/ili9341-lcd/ili9341.c ****   * @param  None.
 710:application-library/ili9341-lcd/ili9341.c ****   * @retval None.
 711:application-library/ili9341-lcd/ili9341.c ****   */
 712:application-library/ili9341-lcd/ili9341.c **** void ili9341_set_color()
 713:application-library/ili9341-lcd/ili9341.c **** {
 1876              		.loc 1 713 0
ARM GAS  /tmp/ccoB52Ks.s 			page 45


 1877              		.cfi_startproc
 1878              		@ args = 0, pretend = 0, frame = 0
 1879              		@ frame_needed = 0, uses_anonymous_args = 0
 1880              		@ link register save eliminated.
 1881 0000 7047     		bx	lr
 1882              		.cfi_endproc
 1883              	.LFE174:
 1885              		.section	.text.ili9341_memory_read,"ax",%progbits
 1886              		.align	1
 1887              		.global	ili9341_memory_read
 1888              		.syntax unified
 1889              		.thumb
 1890              		.thumb_func
 1891              		.fpu fpv4-sp-d16
 1893              	ili9341_memory_read:
 1894              	.LFB175:
 714:application-library/ili9341-lcd/ili9341.c **** 
 715:application-library/ili9341-lcd/ili9341.c **** }
 716:application-library/ili9341-lcd/ili9341.c **** 
 717:application-library/ili9341-lcd/ili9341.c **** /** 
 718:application-library/ili9341-lcd/ili9341.c ****   * @brief  TODO 8.2.24. Memory Read (2Eh) 
 719:application-library/ili9341-lcd/ili9341.c ****   * @param  None.
 720:application-library/ili9341-lcd/ili9341.c ****   * @retval None.
 721:application-library/ili9341-lcd/ili9341.c ****   */
 722:application-library/ili9341-lcd/ili9341.c **** void ili9341_memory_read()
 723:application-library/ili9341-lcd/ili9341.c **** {
 1895              		.loc 1 723 0
 1896              		.cfi_startproc
 1897              		@ args = 0, pretend = 0, frame = 0
 1898              		@ frame_needed = 0, uses_anonymous_args = 0
 1899              		@ link register save eliminated.
 1900 0000 7047     		bx	lr
 1901              		.cfi_endproc
 1902              	.LFE175:
 1904              		.section	.text.ili9341_set_partial_area,"ax",%progbits
 1905              		.align	1
 1906              		.global	ili9341_set_partial_area
 1907              		.syntax unified
 1908              		.thumb
 1909              		.thumb_func
 1910              		.fpu fpv4-sp-d16
 1912              	ili9341_set_partial_area:
 1913              	.LFB176:
 724:application-library/ili9341-lcd/ili9341.c **** 
 725:application-library/ili9341-lcd/ili9341.c **** }
 726:application-library/ili9341-lcd/ili9341.c **** 
 727:application-library/ili9341-lcd/ili9341.c **** /** 
 728:application-library/ili9341-lcd/ili9341.c ****   * @brief  TODO 8.2.25. Partial Area (30h)
 729:application-library/ili9341-lcd/ili9341.c ****   * @param  None.
 730:application-library/ili9341-lcd/ili9341.c ****   * @retval None.
 731:application-library/ili9341-lcd/ili9341.c ****   */
 732:application-library/ili9341-lcd/ili9341.c **** void ili9341_set_partial_area()
 733:application-library/ili9341-lcd/ili9341.c **** {
 1914              		.loc 1 733 0
 1915              		.cfi_startproc
 1916              		@ args = 0, pretend = 0, frame = 0
 1917              		@ frame_needed = 0, uses_anonymous_args = 0
ARM GAS  /tmp/ccoB52Ks.s 			page 46


 1918              		@ link register save eliminated.
 1919 0000 7047     		bx	lr
 1920              		.cfi_endproc
 1921              	.LFE176:
 1923              		.section	.text.ili9341_set_vertical_scrolling_definition,"ax",%progbits
 1924              		.align	1
 1925              		.global	ili9341_set_vertical_scrolling_definition
 1926              		.syntax unified
 1927              		.thumb
 1928              		.thumb_func
 1929              		.fpu fpv4-sp-d16
 1931              	ili9341_set_vertical_scrolling_definition:
 1932              	.LFB177:
 734:application-library/ili9341-lcd/ili9341.c ****   
 735:application-library/ili9341-lcd/ili9341.c **** }
 736:application-library/ili9341-lcd/ili9341.c **** 
 737:application-library/ili9341-lcd/ili9341.c **** /** 
 738:application-library/ili9341-lcd/ili9341.c ****   * @brief  8.2.26. Vertical Scrolling Definition (33h) 
 739:application-library/ili9341-lcd/ili9341.c ****   * @param  top_fix_area_height No. of lines from top of the Frame Memory and display
 740:application-library/ili9341-lcd/ili9341.c ****   * @param  vertical_scrolling_area_height No. of lines of the Frame Memory [not the display] from 
 741:application-library/ili9341-lcd/ili9341.c ****   * @param  bottom_fix_area_height  No. of lines from Bottom of the Frame Memory and Display
 742:application-library/ili9341-lcd/ili9341.c ****   * @retval None.
 743:application-library/ili9341-lcd/ili9341.c ****   */
 744:application-library/ili9341-lcd/ili9341.c **** void ili9341_set_vertical_scrolling_definition(uint16_t top_fixed_area_height, uint16_t vertical_sc
 745:application-library/ili9341-lcd/ili9341.c **** {
 1933              		.loc 1 745 0
 1934              		.cfi_startproc
 1935              		@ args = 0, pretend = 0, frame = 8
 1936              		@ frame_needed = 0, uses_anonymous_args = 0
 1937              	.LVL142:
 1938              		.loc 1 745 0
 1939 0000 00B5     		push	{lr}
 1940              	.LCFI52:
 1941              		.cfi_def_cfa_offset 4
 1942              		.cfi_offset 14, -4
 1943 0002 83B0     		sub	sp, sp, #12
 1944              	.LCFI53:
 1945              		.cfi_def_cfa_offset 16
 746:application-library/ili9341-lcd/ili9341.c ****   uint8_t p_param[6] = {top_fixed_area_height >> 8, top_fixed_area_height & 0xFF,
 1946              		.loc 1 746 0
 1947 0004 030A     		lsrs	r3, r0, #8
 1948 0006 8DF80030 		strb	r3, [sp]
 1949 000a 8DF80100 		strb	r0, [sp, #1]
 1950 000e 0B0A     		lsrs	r3, r1, #8
 1951 0010 8DF80230 		strb	r3, [sp, #2]
 1952 0014 8DF80310 		strb	r1, [sp, #3]
 1953 0018 130A     		lsrs	r3, r2, #8
 1954 001a 8DF80430 		strb	r3, [sp, #4]
 1955 001e 8DF80520 		strb	r2, [sp, #5]
 747:application-library/ili9341-lcd/ili9341.c ****                         vertical_scrolling_area_height >> 8, vertical_scrolling_area_height & 0xFF,
 748:application-library/ili9341-lcd/ili9341.c ****                         bottom_fixed_area_height >> 8, bottom_fixed_area_height & 0xFF
 749:application-library/ili9341-lcd/ili9341.c ****                        };
 750:application-library/ili9341-lcd/ili9341.c ****   bus_8080_write_register(0x33, 6, p_param);
 1956              		.loc 1 750 0
 1957 0022 6A46     		mov	r2, sp
 1958              	.LVL143:
 1959 0024 0621     		movs	r1, #6
ARM GAS  /tmp/ccoB52Ks.s 			page 47


 1960              	.LVL144:
 1961 0026 3320     		movs	r0, #51
 1962              	.LVL145:
 1963 0028 FFF7FEFF 		bl	bus_8080_write_register
 1964              	.LVL146:
 751:application-library/ili9341-lcd/ili9341.c **** }
 1965              		.loc 1 751 0
 1966 002c 03B0     		add	sp, sp, #12
 1967              	.LCFI54:
 1968              		.cfi_def_cfa_offset 4
 1969              		@ sp needed
 1970 002e 5DF804FB 		ldr	pc, [sp], #4
 1971              		.cfi_endproc
 1972              	.LFE177:
 1974              		.section	.text.ili9341_set_tearing_effect_line_off,"ax",%progbits
 1975              		.align	1
 1976              		.global	ili9341_set_tearing_effect_line_off
 1977              		.syntax unified
 1978              		.thumb
 1979              		.thumb_func
 1980              		.fpu fpv4-sp-d16
 1982              	ili9341_set_tearing_effect_line_off:
 1983              	.LFB178:
 752:application-library/ili9341-lcd/ili9341.c **** 
 753:application-library/ili9341-lcd/ili9341.c **** 
 754:application-library/ili9341-lcd/ili9341.c **** /** 
 755:application-library/ili9341-lcd/ili9341.c ****   * @brief  8.2.27. Tearing Effect Line OFF (34h)
 756:application-library/ili9341-lcd/ili9341.c ****   * @param  None.
 757:application-library/ili9341-lcd/ili9341.c ****   * @retval None.
 758:application-library/ili9341-lcd/ili9341.c ****   */
 759:application-library/ili9341-lcd/ili9341.c **** void ili9341_set_tearing_effect_line_off()
 760:application-library/ili9341-lcd/ili9341.c **** {
 1984              		.loc 1 760 0
 1985              		.cfi_startproc
 1986              		@ args = 0, pretend = 0, frame = 0
 1987              		@ frame_needed = 0, uses_anonymous_args = 0
 1988              		@ link register save eliminated.
 1989 0000 7047     		bx	lr
 1990              		.cfi_endproc
 1991              	.LFE178:
 1993              		.section	.text.ili9341_set_tearing_effect_line_on,"ax",%progbits
 1994              		.align	1
 1995              		.global	ili9341_set_tearing_effect_line_on
 1996              		.syntax unified
 1997              		.thumb
 1998              		.thumb_func
 1999              		.fpu fpv4-sp-d16
 2001              	ili9341_set_tearing_effect_line_on:
 2002              	.LFB179:
 761:application-library/ili9341-lcd/ili9341.c **** 
 762:application-library/ili9341-lcd/ili9341.c **** }
 763:application-library/ili9341-lcd/ili9341.c **** 
 764:application-library/ili9341-lcd/ili9341.c **** /**
 765:application-library/ili9341-lcd/ili9341.c ****   * @brief  8.2.28. Tearing Effect Line ON (35h) 
 766:application-library/ili9341-lcd/ili9341.c ****   * @param  None.
 767:application-library/ili9341-lcd/ili9341.c ****   * @retval None.
 768:application-library/ili9341-lcd/ili9341.c ****   * @note   When M=0:
ARM GAS  /tmp/ccoB52Ks.s 			page 48


 769:application-library/ili9341-lcd/ili9341.c ****   *   When M=1:
 770:application-library/ili9341-lcd/ili9341.c ****   *   The Tearing Effect Output line consists of V-Blanking information only:
 771:application-library/ili9341-lcd/ili9341.c ****   *   When M=0:
 772:application-library/ili9341-lcd/ili9341.c ****   *   The Tearing Effect Output Line consists of both V-Blanking and H-Blanking information.
 773:application-library/ili9341-lcd/ili9341.c ****   *   To confirm tearing effect mode on/off, read 0x0E, Read Display Signal Mode.
 774:application-library/ili9341-lcd/ili9341.c ****   */
 775:application-library/ili9341-lcd/ili9341.c **** void ili9341_set_tearing_effect_line_on()
 776:application-library/ili9341-lcd/ili9341.c **** {
 2003              		.loc 1 776 0
 2004              		.cfi_startproc
 2005              		@ args = 0, pretend = 0, frame = 8
 2006              		@ frame_needed = 0, uses_anonymous_args = 0
 2007              		.loc 1 776 0
 2008 0000 00B5     		push	{lr}
 2009              	.LCFI55:
 2010              		.cfi_def_cfa_offset 4
 2011              		.cfi_offset 14, -4
 2012 0002 83B0     		sub	sp, sp, #12
 2013              	.LCFI56:
 2014              		.cfi_def_cfa_offset 16
 777:application-library/ili9341-lcd/ili9341.c ****   uint8_t p_param[1] = {1 << 0};
 2015              		.loc 1 777 0
 2016 0004 0121     		movs	r1, #1
 2017 0006 02AA     		add	r2, sp, #8
 2018 0008 02F8041D 		strb	r1, [r2, #-4]!
 778:application-library/ili9341-lcd/ili9341.c ****   bus_8080_write_register(0x35, 1, p_param);
 2019              		.loc 1 778 0
 2020 000c 3520     		movs	r0, #53
 2021 000e FFF7FEFF 		bl	bus_8080_write_register
 2022              	.LVL147:
 779:application-library/ili9341-lcd/ili9341.c **** }
 2023              		.loc 1 779 0
 2024 0012 03B0     		add	sp, sp, #12
 2025              	.LCFI57:
 2026              		.cfi_def_cfa_offset 4
 2027              		@ sp needed
 2028 0014 5DF804FB 		ldr	pc, [sp], #4
 2029              		.cfi_endproc
 2030              	.LFE179:
 2032              		.section	.text.ili9341_set_memory_access_control,"ax",%progbits
 2033              		.align	1
 2034              		.global	ili9341_set_memory_access_control
 2035              		.syntax unified
 2036              		.thumb
 2037              		.thumb_func
 2038              		.fpu fpv4-sp-d16
 2040              	ili9341_set_memory_access_control:
 2041              	.LFB180:
 780:application-library/ili9341-lcd/ili9341.c **** 
 781:application-library/ili9341-lcd/ili9341.c **** 
 782:application-library/ili9341-lcd/ili9341.c **** /** 
 783:application-library/ili9341-lcd/ili9341.c ****   * @brief  8.2.29. Memory Access Control (36h)
 784:application-library/ili9341-lcd/ili9341.c ****   * @param  None.
 785:application-library/ili9341-lcd/ili9341.c ****   * @retval None.
 786:application-library/ili9341-lcd/ili9341.c ****   */
 787:application-library/ili9341-lcd/ili9341.c **** void ili9341_set_memory_access_control()
 788:application-library/ili9341-lcd/ili9341.c **** {
ARM GAS  /tmp/ccoB52Ks.s 			page 49


 2042              		.loc 1 788 0
 2043              		.cfi_startproc
 2044              		@ args = 0, pretend = 0, frame = 8
 2045              		@ frame_needed = 0, uses_anonymous_args = 0
 2046 0000 00B5     		push	{lr}
 2047              	.LCFI58:
 2048              		.cfi_def_cfa_offset 4
 2049              		.cfi_offset 14, -4
 2050 0002 83B0     		sub	sp, sp, #12
 2051              	.LCFI59:
 2052              		.cfi_def_cfa_offset 16
 789:application-library/ili9341-lcd/ili9341.c ****   uint8_t p_param[1] = {0x08};
 2053              		.loc 1 789 0
 2054 0004 02AA     		add	r2, sp, #8
 2055 0006 0823     		movs	r3, #8
 2056 0008 02F8043D 		strb	r3, [r2, #-4]!
 790:application-library/ili9341-lcd/ili9341.c ****   bus_8080_write_register(0x36, 1, p_param);
 2057              		.loc 1 790 0
 2058 000c 0121     		movs	r1, #1
 2059 000e 3620     		movs	r0, #54
 2060 0010 FFF7FEFF 		bl	bus_8080_write_register
 2061              	.LVL148:
 791:application-library/ili9341-lcd/ili9341.c **** }
 2062              		.loc 1 791 0
 2063 0014 03B0     		add	sp, sp, #12
 2064              	.LCFI60:
 2065              		.cfi_def_cfa_offset 4
 2066              		@ sp needed
 2067 0016 5DF804FB 		ldr	pc, [sp], #4
 2068              		.cfi_endproc
 2069              	.LFE180:
 2071              		.section	.text.ili9341_vertical_scrolling_start_address,"ax",%progbits
 2072              		.align	1
 2073              		.global	ili9341_vertical_scrolling_start_address
 2074              		.syntax unified
 2075              		.thumb
 2076              		.thumb_func
 2077              		.fpu fpv4-sp-d16
 2079              	ili9341_vertical_scrolling_start_address:
 2080              	.LFB181:
 792:application-library/ili9341-lcd/ili9341.c **** 
 793:application-library/ili9341-lcd/ili9341.c **** 
 794:application-library/ili9341-lcd/ili9341.c **** /** 
 795:application-library/ili9341-lcd/ili9341.c ****   * @brief  8.2.30. Vertical Scrolling Start Address (37h)
 796:application-library/ili9341-lcd/ili9341.c ****   * @param  None.
 797:application-library/ili9341-lcd/ili9341.c ****   * @retval None.
 798:application-library/ili9341-lcd/ili9341.c ****   */
 799:application-library/ili9341-lcd/ili9341.c **** void ili9341_vertical_scrolling_start_address()
 800:application-library/ili9341-lcd/ili9341.c **** {
 2081              		.loc 1 800 0
 2082              		.cfi_startproc
 2083              		@ args = 0, pretend = 0, frame = 0
 2084              		@ frame_needed = 0, uses_anonymous_args = 0
 2085              		@ link register save eliminated.
 2086 0000 7047     		bx	lr
 2087              		.cfi_endproc
 2088              	.LFE181:
ARM GAS  /tmp/ccoB52Ks.s 			page 50


 2090              		.section	.text.ili9341_set_idle_mode_off,"ax",%progbits
 2091              		.align	1
 2092              		.global	ili9341_set_idle_mode_off
 2093              		.syntax unified
 2094              		.thumb
 2095              		.thumb_func
 2096              		.fpu fpv4-sp-d16
 2098              	ili9341_set_idle_mode_off:
 2099              	.LFB182:
 801:application-library/ili9341-lcd/ili9341.c **** 
 802:application-library/ili9341-lcd/ili9341.c **** }
 803:application-library/ili9341-lcd/ili9341.c **** 
 804:application-library/ili9341-lcd/ili9341.c **** /**
 805:application-library/ili9341-lcd/ili9341.c ****   * @brief  8.2.31. Idle Mode OFF (38h) 
 806:application-library/ili9341-lcd/ili9341.c ****   * @param  None.
 807:application-library/ili9341-lcd/ili9341.c ****   * @retval None.
 808:application-library/ili9341-lcd/ili9341.c ****   * @brief This command is used to enter into Idle mode on.
 809:application-library/ili9341-lcd/ili9341.c ****   *          In the idle on mode, color expression is reduced. 
 810:application-library/ili9341-lcd/ili9341.c ****   *        The primary and the secondary colors using MSB of each RGB 
 811:application-library/ili9341-lcd/ili9341.c ****   *          in the Frame Memory, 8 color depth data is displayed.
 812:application-library/ili9341-lcd/ili9341.c ****   */
 813:application-library/ili9341-lcd/ili9341.c **** void ili9341_set_idle_mode_off()
 814:application-library/ili9341-lcd/ili9341.c **** {
 2100              		.loc 1 814 0
 2101              		.cfi_startproc
 2102              		@ args = 0, pretend = 0, frame = 0
 2103              		@ frame_needed = 0, uses_anonymous_args = 0
 2104              		.loc 1 814 0
 2105 0000 08B5     		push	{r3, lr}
 2106              	.LCFI61:
 2107              		.cfi_def_cfa_offset 8
 2108              		.cfi_offset 3, -8
 2109              		.cfi_offset 14, -4
 815:application-library/ili9341-lcd/ili9341.c ****   bus_8080_write_register(0x38, 0, NULL);
 2110              		.loc 1 815 0
 2111 0002 0022     		movs	r2, #0
 2112 0004 1146     		mov	r1, r2
 2113 0006 3820     		movs	r0, #56
 2114 0008 FFF7FEFF 		bl	bus_8080_write_register
 2115              	.LVL149:
 2116 000c 08BD     		pop	{r3, pc}
 2117              		.cfi_endproc
 2118              	.LFE182:
 2120              		.section	.text.ili9341_set_idle_mode_on,"ax",%progbits
 2121              		.align	1
 2122              		.global	ili9341_set_idle_mode_on
 2123              		.syntax unified
 2124              		.thumb
 2125              		.thumb_func
 2126              		.fpu fpv4-sp-d16
 2128              	ili9341_set_idle_mode_on:
 2129              	.LFB183:
 816:application-library/ili9341-lcd/ili9341.c **** }
 817:application-library/ili9341-lcd/ili9341.c **** 
 818:application-library/ili9341-lcd/ili9341.c **** 
 819:application-library/ili9341-lcd/ili9341.c **** /** 
 820:application-library/ili9341-lcd/ili9341.c ****   * @brief  8.2.32. Idle Mode ON (39h)
ARM GAS  /tmp/ccoB52Ks.s 			page 51


 821:application-library/ili9341-lcd/ili9341.c ****   * @param  None.
 822:application-library/ili9341-lcd/ili9341.c ****   * @retval None.
 823:application-library/ili9341-lcd/ili9341.c ****   */
 824:application-library/ili9341-lcd/ili9341.c **** void ili9341_set_idle_mode_on()
 825:application-library/ili9341-lcd/ili9341.c **** {
 2130              		.loc 1 825 0
 2131              		.cfi_startproc
 2132              		@ args = 0, pretend = 0, frame = 0
 2133              		@ frame_needed = 0, uses_anonymous_args = 0
 2134 0000 08B5     		push	{r3, lr}
 2135              	.LCFI62:
 2136              		.cfi_def_cfa_offset 8
 2137              		.cfi_offset 3, -8
 2138              		.cfi_offset 14, -4
 826:application-library/ili9341-lcd/ili9341.c ****   bus_8080_write_register(0x39, 0, NULL);
 2139              		.loc 1 826 0
 2140 0002 0022     		movs	r2, #0
 2141 0004 1146     		mov	r1, r2
 2142 0006 3920     		movs	r0, #57
 2143 0008 FFF7FEFF 		bl	bus_8080_write_register
 2144              	.LVL150:
 2145 000c 08BD     		pop	{r3, pc}
 2146              		.cfi_endproc
 2147              	.LFE183:
 2149              		.section	.text.ili9341_set_pixel_format_set,"ax",%progbits
 2150              		.align	1
 2151              		.global	ili9341_set_pixel_format_set
 2152              		.syntax unified
 2153              		.thumb
 2154              		.thumb_func
 2155              		.fpu fpv4-sp-d16
 2157              	ili9341_set_pixel_format_set:
 2158              	.LFB184:
 827:application-library/ili9341-lcd/ili9341.c **** }
 828:application-library/ili9341-lcd/ili9341.c **** 
 829:application-library/ili9341-lcd/ili9341.c **** 
 830:application-library/ili9341-lcd/ili9341.c **** /** 
 831:application-library/ili9341-lcd/ili9341.c ****   * @brief  8.2.33. COLMOD: Pixel Format Set (3Ah)
 832:application-library/ili9341-lcd/ili9341.c ****   * @param  None.
 833:application-library/ili9341-lcd/ili9341.c ****   * @retval None.
 834:application-library/ili9341-lcd/ili9341.c ****   */
 835:application-library/ili9341-lcd/ili9341.c **** void ili9341_set_pixel_format_set()
 836:application-library/ili9341-lcd/ili9341.c **** {
 2159              		.loc 1 836 0
 2160              		.cfi_startproc
 2161              		@ args = 0, pretend = 0, frame = 8
 2162              		@ frame_needed = 0, uses_anonymous_args = 0
 2163 0000 00B5     		push	{lr}
 2164              	.LCFI63:
 2165              		.cfi_def_cfa_offset 4
 2166              		.cfi_offset 14, -4
 2167 0002 83B0     		sub	sp, sp, #12
 2168              	.LCFI64:
 2169              		.cfi_def_cfa_offset 16
 837:application-library/ili9341-lcd/ili9341.c ****   uint8_t p_param[1] = {0x55};
 2170              		.loc 1 837 0
 2171 0004 02AA     		add	r2, sp, #8
ARM GAS  /tmp/ccoB52Ks.s 			page 52


 2172 0006 5523     		movs	r3, #85
 2173 0008 02F8043D 		strb	r3, [r2, #-4]!
 838:application-library/ili9341-lcd/ili9341.c ****   bus_8080_write_register(0x3A, 1, p_param);
 2174              		.loc 1 838 0
 2175 000c 0121     		movs	r1, #1
 2176 000e 3A20     		movs	r0, #58
 2177 0010 FFF7FEFF 		bl	bus_8080_write_register
 2178              	.LVL151:
 839:application-library/ili9341-lcd/ili9341.c **** }
 2179              		.loc 1 839 0
 2180 0014 03B0     		add	sp, sp, #12
 2181              	.LCFI65:
 2182              		.cfi_def_cfa_offset 4
 2183              		@ sp needed
 2184 0016 5DF804FB 		ldr	pc, [sp], #4
 2185              		.cfi_endproc
 2186              	.LFE184:
 2188              		.section	.text.ili9341_write_memory_continue,"ax",%progbits
 2189              		.align	1
 2190              		.global	ili9341_write_memory_continue
 2191              		.syntax unified
 2192              		.thumb
 2193              		.thumb_func
 2194              		.fpu fpv4-sp-d16
 2196              	ili9341_write_memory_continue:
 2197              	.LFB185:
 840:application-library/ili9341-lcd/ili9341.c **** 
 841:application-library/ili9341-lcd/ili9341.c **** 
 842:application-library/ili9341-lcd/ili9341.c **** 
 843:application-library/ili9341-lcd/ili9341.c **** /** 
 844:application-library/ili9341-lcd/ili9341.c ****   * @brief  TODO 8.2.34. Write_Memory_Continue (3Ch)
 845:application-library/ili9341-lcd/ili9341.c ****   * @param  None.
 846:application-library/ili9341-lcd/ili9341.c ****   * @retval None.
 847:application-library/ili9341-lcd/ili9341.c ****   */
 848:application-library/ili9341-lcd/ili9341.c **** void ili9341_write_memory_continue()
 849:application-library/ili9341-lcd/ili9341.c **** {
 2198              		.loc 1 849 0
 2199              		.cfi_startproc
 2200              		@ args = 0, pretend = 0, frame = 0
 2201              		@ frame_needed = 0, uses_anonymous_args = 0
 2202              		@ link register save eliminated.
 2203 0000 7047     		bx	lr
 2204              		.cfi_endproc
 2205              	.LFE185:
 2207              		.section	.text.ili9341_read_memory_continue,"ax",%progbits
 2208              		.align	1
 2209              		.global	ili9341_read_memory_continue
 2210              		.syntax unified
 2211              		.thumb
 2212              		.thumb_func
 2213              		.fpu fpv4-sp-d16
 2215              	ili9341_read_memory_continue:
 2216              	.LFB186:
 850:application-library/ili9341-lcd/ili9341.c **** 
 851:application-library/ili9341-lcd/ili9341.c **** }
 852:application-library/ili9341-lcd/ili9341.c **** 
 853:application-library/ili9341-lcd/ili9341.c **** 
ARM GAS  /tmp/ccoB52Ks.s 			page 53


 854:application-library/ili9341-lcd/ili9341.c **** /** 
 855:application-library/ili9341-lcd/ili9341.c ****   * @brief  TODO 8.2.35. Read_Memory_Continue (3Eh)
 856:application-library/ili9341-lcd/ili9341.c ****   * @param  None.
 857:application-library/ili9341-lcd/ili9341.c ****   * @retval None.
 858:application-library/ili9341-lcd/ili9341.c ****   */
 859:application-library/ili9341-lcd/ili9341.c **** void ili9341_read_memory_continue()
 860:application-library/ili9341-lcd/ili9341.c **** {
 2217              		.loc 1 860 0
 2218              		.cfi_startproc
 2219              		@ args = 0, pretend = 0, frame = 0
 2220              		@ frame_needed = 0, uses_anonymous_args = 0
 2221              		@ link register save eliminated.
 2222 0000 7047     		bx	lr
 2223              		.cfi_endproc
 2224              	.LFE186:
 2226              		.section	.text.ili9341_set_tear_scanline,"ax",%progbits
 2227              		.align	1
 2228              		.global	ili9341_set_tear_scanline
 2229              		.syntax unified
 2230              		.thumb
 2231              		.thumb_func
 2232              		.fpu fpv4-sp-d16
 2234              	ili9341_set_tear_scanline:
 2235              	.LFB187:
 861:application-library/ili9341-lcd/ili9341.c **** 
 862:application-library/ili9341-lcd/ili9341.c **** }
 863:application-library/ili9341-lcd/ili9341.c **** 
 864:application-library/ili9341-lcd/ili9341.c **** /** 
 865:application-library/ili9341-lcd/ili9341.c ****   * @brief  TODO 8.2.36. Set_Tear_Scanline (44h)
 866:application-library/ili9341-lcd/ili9341.c ****   * @param  None.
 867:application-library/ili9341-lcd/ili9341.c ****   * @retval None.
 868:application-library/ili9341-lcd/ili9341.c ****   */
 869:application-library/ili9341-lcd/ili9341.c **** void ili9341_set_tear_scanline()
 870:application-library/ili9341-lcd/ili9341.c **** {
 2236              		.loc 1 870 0
 2237              		.cfi_startproc
 2238              		@ args = 0, pretend = 0, frame = 0
 2239              		@ frame_needed = 0, uses_anonymous_args = 0
 2240              		@ link register save eliminated.
 2241 0000 7047     		bx	lr
 2242              		.cfi_endproc
 2243              	.LFE187:
 2245              		.section	.text.ili9341_get_scanline,"ax",%progbits
 2246              		.align	1
 2247              		.global	ili9341_get_scanline
 2248              		.syntax unified
 2249              		.thumb
 2250              		.thumb_func
 2251              		.fpu fpv4-sp-d16
 2253              	ili9341_get_scanline:
 2254              	.LFB188:
 871:application-library/ili9341-lcd/ili9341.c **** 
 872:application-library/ili9341-lcd/ili9341.c **** }
 873:application-library/ili9341-lcd/ili9341.c **** 
 874:application-library/ili9341-lcd/ili9341.c **** 
 875:application-library/ili9341-lcd/ili9341.c **** /** 
 876:application-library/ili9341-lcd/ili9341.c ****   * @brief  TODO 8.2.37. Get_Scanline (45h) 
ARM GAS  /tmp/ccoB52Ks.s 			page 54


 877:application-library/ili9341-lcd/ili9341.c ****   * @param  None.
 878:application-library/ili9341-lcd/ili9341.c ****   * @retval None.
 879:application-library/ili9341-lcd/ili9341.c ****   */
 880:application-library/ili9341-lcd/ili9341.c **** void ili9341_get_scanline()
 881:application-library/ili9341-lcd/ili9341.c **** {
 2255              		.loc 1 881 0
 2256              		.cfi_startproc
 2257              		@ args = 0, pretend = 0, frame = 0
 2258              		@ frame_needed = 0, uses_anonymous_args = 0
 2259              		@ link register save eliminated.
 2260 0000 7047     		bx	lr
 2261              		.cfi_endproc
 2262              	.LFE188:
 2264              		.section	.text.ili9341_set_display_brightness,"ax",%progbits
 2265              		.align	1
 2266              		.global	ili9341_set_display_brightness
 2267              		.syntax unified
 2268              		.thumb
 2269              		.thumb_func
 2270              		.fpu fpv4-sp-d16
 2272              	ili9341_set_display_brightness:
 2273              	.LFB189:
 882:application-library/ili9341-lcd/ili9341.c **** 
 883:application-library/ili9341-lcd/ili9341.c **** }
 884:application-library/ili9341-lcd/ili9341.c **** 
 885:application-library/ili9341-lcd/ili9341.c **** /**
 886:application-library/ili9341-lcd/ili9341.c ****   * @brief  8.2.38. Write Display Brightness (51h) 
 887:application-library/ili9341-lcd/ili9341.c ****   * @param  None.
 888:application-library/ili9341-lcd/ili9341.c ****   * @retval None.
 889:application-library/ili9341-lcd/ili9341.c ****   * @note   At the time of this program developed, 
 890:application-library/ili9341-lcd/ili9341.c ****   *           the brightness pinout is hardwired to VCC. 
 891:application-library/ili9341-lcd/ili9341.c ****   *         Thus through experiment I was not able to set brightness
 892:application-library/ili9341-lcd/ili9341.c ****   *           by writing to 0x51. 
 893:application-library/ili9341-lcd/ili9341.c ****   */ 
 894:application-library/ili9341-lcd/ili9341.c ****   
 895:application-library/ili9341-lcd/ili9341.c **** void ili9341_set_display_brightness()
 896:application-library/ili9341-lcd/ili9341.c **** {
 2274              		.loc 1 896 0
 2275              		.cfi_startproc
 2276              		@ args = 0, pretend = 0, frame = 8
 2277              		@ frame_needed = 0, uses_anonymous_args = 0
 2278              		.loc 1 896 0
 2279 0000 00B5     		push	{lr}
 2280              	.LCFI66:
 2281              		.cfi_def_cfa_offset 4
 2282              		.cfi_offset 14, -4
 2283 0002 83B0     		sub	sp, sp, #12
 2284              	.LCFI67:
 2285              		.cfi_def_cfa_offset 16
 897:application-library/ili9341-lcd/ili9341.c ****   /* p_param pointes the brightness value. */
 898:application-library/ili9341-lcd/ili9341.c ****   uint8_t p_param[1] = {0x55};
 2286              		.loc 1 898 0
 2287 0004 02AA     		add	r2, sp, #8
 2288 0006 5523     		movs	r3, #85
 2289 0008 02F8043D 		strb	r3, [r2, #-4]!
 899:application-library/ili9341-lcd/ili9341.c ****   bus_8080_write_register(0x51, 1, p_param);
 2290              		.loc 1 899 0
ARM GAS  /tmp/ccoB52Ks.s 			page 55


 2291 000c 0121     		movs	r1, #1
 2292 000e 5120     		movs	r0, #81
 2293 0010 FFF7FEFF 		bl	bus_8080_write_register
 2294              	.LVL152:
 900:application-library/ili9341-lcd/ili9341.c **** }
 2295              		.loc 1 900 0
 2296 0014 03B0     		add	sp, sp, #12
 2297              	.LCFI68:
 2298              		.cfi_def_cfa_offset 4
 2299              		@ sp needed
 2300 0016 5DF804FB 		ldr	pc, [sp], #4
 2301              		.cfi_endproc
 2302              	.LFE189:
 2304              		.section	.text.ili9341_get_display_brightness,"ax",%progbits
 2305              		.align	1
 2306              		.global	ili9341_get_display_brightness
 2307              		.syntax unified
 2308              		.thumb
 2309              		.thumb_func
 2310              		.fpu fpv4-sp-d16
 2312              	ili9341_get_display_brightness:
 2313              	.LFB190:
 901:application-library/ili9341-lcd/ili9341.c **** 
 902:application-library/ili9341-lcd/ili9341.c **** /**
 903:application-library/ili9341-lcd/ili9341.c ****   * @brief      8.2.39. Read Display Brightness (52h) 
 904:application-library/ili9341-lcd/ili9341.c ****   * @param[OUT] p_read_data Pointer to brightness data read.
 905:application-library/ili9341-lcd/ili9341.c ****   * @retval     None. 
 906:application-library/ili9341-lcd/ili9341.c ****   * @note   At the time of this program developed, 
 907:application-library/ili9341-lcd/ili9341.c ****   *           the brightness pinout is hardwired to VCC. 
 908:application-library/ili9341-lcd/ili9341.c ****   *         Thus through experiment I was not able to set brightness
 909:application-library/ili9341-lcd/ili9341.c ****   *           by writing to 0x51. 
 910:application-library/ili9341-lcd/ili9341.c ****   *         And brightness read from 0x52 always returns 0 for unknown reason.
 911:application-library/ili9341-lcd/ili9341.c ****   */
 912:application-library/ili9341-lcd/ili9341.c **** void ili9341_get_display_brightness(uint8_t* p_read_data)
 913:application-library/ili9341-lcd/ili9341.c **** {
 2314              		.loc 1 913 0
 2315              		.cfi_startproc
 2316              		@ args = 0, pretend = 0, frame = 64
 2317              		@ frame_needed = 0, uses_anonymous_args = 0
 2318              	.LVL153:
 2319 0000 70B5     		push	{r4, r5, r6, lr}
 2320              	.LCFI69:
 2321              		.cfi_def_cfa_offset 16
 2322              		.cfi_offset 4, -16
 2323              		.cfi_offset 5, -12
 2324              		.cfi_offset 6, -8
 2325              		.cfi_offset 14, -4
 2326 0002 90B0     		sub	sp, sp, #64
 2327              	.LCFI70:
 2328              		.cfi_def_cfa_offset 80
 2329 0004 0646     		mov	r6, r0
 914:application-library/ili9341-lcd/ili9341.c ****   bus_8080_read_register(0x52, 2, p_read_data);
 2330              		.loc 1 914 0
 2331 0006 0246     		mov	r2, r0
 2332 0008 0221     		movs	r1, #2
 2333 000a 5220     		movs	r0, #82
 2334              	.LVL154:
ARM GAS  /tmp/ccoB52Ks.s 			page 56


 2335 000c FFF7FEFF 		bl	bus_8080_read_register
 2336              	.LVL155:
 915:application-library/ili9341-lcd/ili9341.c ****  
 916:application-library/ili9341-lcd/ili9341.c ****   #if defined ILI9341_DEBUG
 917:application-library/ili9341-lcd/ili9341.c ****   char msg[64];
 918:application-library/ili9341-lcd/ili9341.c ****   sprintf(msg, "- Printing ILI9341 <Display Brightness> register value -\n");
 2337              		.loc 1 918 0
 2338 0010 6C46     		mov	r4, sp
 2339 0012 0C4D     		ldr	r5, .L146
 2340 0014 0FCD     		ldmia	r5!, {r0, r1, r2, r3}
 2341 0016 0FC4     		stmia	r4!, {r0, r1, r2, r3}
 2342 0018 0FCD     		ldmia	r5!, {r0, r1, r2, r3}
 2343 001a 0FC4     		stmia	r4!, {r0, r1, r2, r3}
 2344 001c 0FCD     		ldmia	r5!, {r0, r1, r2, r3}
 2345 001e 0FC4     		stmia	r4!, {r0, r1, r2, r3}
 2346 0020 95E80700 		ldm	r5, {r0, r1, r2}
 2347 0024 03C4     		stmia	r4!, {r0, r1}
 2348 0026 2280     		strh	r2, [r4]	@ movhi
 919:application-library/ili9341-lcd/ili9341.c ****   serial_print(msg);
 2349              		.loc 1 919 0
 2350 0028 6846     		mov	r0, sp
 2351 002a FFF7FEFF 		bl	serial_print
 2352              	.LVL156:
 920:application-library/ili9341-lcd/ili9341.c ****   sprintf(msg, "Brightness (0 ~ 255): %#02x\n", p_read_data[1]); /* id4[0] is dummy byte. */
 2353              		.loc 1 920 0
 2354 002e 7278     		ldrb	r2, [r6, #1]	@ zero_extendqisi2
 2355 0030 0549     		ldr	r1, .L146+4
 2356 0032 6846     		mov	r0, sp
 2357 0034 FFF7FEFF 		bl	sprintf
 2358              	.LVL157:
 921:application-library/ili9341-lcd/ili9341.c ****   serial_print(msg);
 2359              		.loc 1 921 0
 2360 0038 6846     		mov	r0, sp
 2361 003a FFF7FEFF 		bl	serial_print
 2362              	.LVL158:
 922:application-library/ili9341-lcd/ili9341.c ****   #endif
 923:application-library/ili9341-lcd/ili9341.c **** 
 924:application-library/ili9341-lcd/ili9341.c **** }
 2363              		.loc 1 924 0
 2364 003e 10B0     		add	sp, sp, #64
 2365              	.LCFI71:
 2366              		.cfi_def_cfa_offset 16
 2367              		@ sp needed
 2368 0040 70BD     		pop	{r4, r5, r6, pc}
 2369              	.LVL159:
 2370              	.L147:
 2371 0042 00BF     		.align	2
 2372              	.L146:
 2373 0044 00000000 		.word	.LC15
 2374 0048 3C000000 		.word	.LC16
 2375              		.cfi_endproc
 2376              	.LFE190:
 2378              		.section	.text.ili9341_set_CTRL_display,"ax",%progbits
 2379              		.align	1
 2380              		.global	ili9341_set_CTRL_display
 2381              		.syntax unified
 2382              		.thumb
ARM GAS  /tmp/ccoB52Ks.s 			page 57


 2383              		.thumb_func
 2384              		.fpu fpv4-sp-d16
 2386              	ili9341_set_CTRL_display:
 2387              	.LFB191:
 925:application-library/ili9341-lcd/ili9341.c **** /** 
 926:application-library/ili9341-lcd/ili9341.c ****   * @brief  8.2.40. Write CTRL Display (53h) 
 927:application-library/ili9341-lcd/ili9341.c ****   * @note   At the time of this program developed, 
 928:application-library/ili9341-lcd/ili9341.c ****   *           the brightness pinout is hardwired to VCC. 
 929:application-library/ili9341-lcd/ili9341.c ****   *         Writing to CTRL_display was successful, however LCD brightness 
 930:application-library/ili9341-lcd/ili9341.c ****   *           did not adjust accordingly. 
 931:application-library/ili9341-lcd/ili9341.c ****   */
 932:application-library/ili9341-lcd/ili9341.c **** void ili9341_set_CTRL_display()
 933:application-library/ili9341-lcd/ili9341.c **** {
 2388              		.loc 1 933 0
 2389              		.cfi_startproc
 2390              		@ args = 0, pretend = 0, frame = 8
 2391              		@ frame_needed = 0, uses_anonymous_args = 0
 2392 0000 00B5     		push	{lr}
 2393              	.LCFI72:
 2394              		.cfi_def_cfa_offset 4
 2395              		.cfi_offset 14, -4
 2396 0002 83B0     		sub	sp, sp, #12
 2397              	.LCFI73:
 2398              		.cfi_def_cfa_offset 16
 934:application-library/ili9341-lcd/ili9341.c ****   uint8_t p_param[1] = {0x00};
 2399              		.loc 1 934 0
 2400 0004 02AA     		add	r2, sp, #8
 2401 0006 0023     		movs	r3, #0
 2402 0008 02F8043D 		strb	r3, [r2, #-4]!
 935:application-library/ili9341-lcd/ili9341.c ****   bus_8080_write_register(0x53, 1, p_param);
 2403              		.loc 1 935 0
 2404 000c 0121     		movs	r1, #1
 2405 000e 5320     		movs	r0, #83
 2406 0010 FFF7FEFF 		bl	bus_8080_write_register
 2407              	.LVL160:
 936:application-library/ili9341-lcd/ili9341.c **** }
 2408              		.loc 1 936 0
 2409 0014 03B0     		add	sp, sp, #12
 2410              	.LCFI74:
 2411              		.cfi_def_cfa_offset 4
 2412              		@ sp needed
 2413 0016 5DF804FB 		ldr	pc, [sp], #4
 2414              		.cfi_endproc
 2415              	.LFE191:
 2417              		.section	.text.ili9341_get_CTRL_display,"ax",%progbits
 2418              		.align	1
 2419              		.global	ili9341_get_CTRL_display
 2420              		.syntax unified
 2421              		.thumb
 2422              		.thumb_func
 2423              		.fpu fpv4-sp-d16
 2425              	ili9341_get_CTRL_display:
 2426              	.LFB192:
 937:application-library/ili9341-lcd/ili9341.c **** 
 938:application-library/ili9341-lcd/ili9341.c **** /**
 939:application-library/ili9341-lcd/ili9341.c ****   * @brief  8.2.41. Read CTRL Display (54h) 
 940:application-library/ili9341-lcd/ili9341.c ****   * @param  p_read_data Pointer to data read from CTRL Display register.
ARM GAS  /tmp/ccoB52Ks.s 			page 58


 941:application-library/ili9341-lcd/ili9341.c ****   * @retval None.
 942:application-library/ili9341-lcd/ili9341.c ****   * @note   This command is used to read brightness setting.
 943:application-library/ili9341-lcd/ili9341.c ****   *         BCTRL: Brightness Control Block On/Off,
 944:application-library/ili9341-lcd/ili9341.c ****   *         DD: Display Dimming
 945:application-library/ili9341-lcd/ili9341.c ****   *         BL: Backlight On/Off
 946:application-library/ili9341-lcd/ili9341.c ****   
 947:application-library/ili9341-lcd/ili9341.c ****   */
 948:application-library/ili9341-lcd/ili9341.c **** void ili9341_get_CTRL_display(uint8_t* p_read_data)
 949:application-library/ili9341-lcd/ili9341.c **** {
 2427              		.loc 1 949 0
 2428              		.cfi_startproc
 2429              		@ args = 0, pretend = 0, frame = 64
 2430              		@ frame_needed = 0, uses_anonymous_args = 0
 2431              	.LVL161:
 2432 0000 70B5     		push	{r4, r5, r6, lr}
 2433              	.LCFI75:
 2434              		.cfi_def_cfa_offset 16
 2435              		.cfi_offset 4, -16
 2436              		.cfi_offset 5, -12
 2437              		.cfi_offset 6, -8
 2438              		.cfi_offset 14, -4
 2439 0002 90B0     		sub	sp, sp, #64
 2440              	.LCFI76:
 2441              		.cfi_def_cfa_offset 80
 2442 0004 0646     		mov	r6, r0
 950:application-library/ili9341-lcd/ili9341.c ****   bus_8080_read_register(0x54, 2, p_read_data);
 2443              		.loc 1 950 0
 2444 0006 0246     		mov	r2, r0
 2445 0008 0221     		movs	r1, #2
 2446 000a 5420     		movs	r0, #84
 2447              	.LVL162:
 2448 000c FFF7FEFF 		bl	bus_8080_read_register
 2449              	.LVL163:
 951:application-library/ili9341-lcd/ili9341.c ****  
 952:application-library/ili9341-lcd/ili9341.c ****   #if defined ILI9341_DEBUG
 953:application-library/ili9341-lcd/ili9341.c ****   char msg[64];
 954:application-library/ili9341-lcd/ili9341.c ****   sprintf(msg, "- Printing ILI9341 <CTRL Display> register value -\n");
 2450              		.loc 1 954 0
 2451 0010 6C46     		mov	r4, sp
 2452 0012 164D     		ldr	r5, .L152
 2453 0014 0FCD     		ldmia	r5!, {r0, r1, r2, r3}
 2454 0016 0FC4     		stmia	r4!, {r0, r1, r2, r3}
 2455 0018 0FCD     		ldmia	r5!, {r0, r1, r2, r3}
 2456 001a 0FC4     		stmia	r4!, {r0, r1, r2, r3}
 2457 001c 0FCD     		ldmia	r5!, {r0, r1, r2, r3}
 2458 001e 0FC4     		stmia	r4!, {r0, r1, r2, r3}
 2459 0020 2B68     		ldr	r3, [r5]
 2460 0022 2360     		str	r3, [r4]
 955:application-library/ili9341-lcd/ili9341.c ****   serial_print(msg);
 2461              		.loc 1 955 0
 2462 0024 6846     		mov	r0, sp
 2463 0026 FFF7FEFF 		bl	serial_print
 2464              	.LVL164:
 956:application-library/ili9341-lcd/ili9341.c ****   sprintf(msg, "BCTRL (Brightness Control on/off): %d\n", (p_read_data[1] & 0x20) ? 1 : 0); 
 2465              		.loc 1 956 0
 2466 002a 7278     		ldrb	r2, [r6, #1]	@ zero_extendqisi2
 2467 002c C2F34012 		ubfx	r2, r2, #5, #1
ARM GAS  /tmp/ccoB52Ks.s 			page 59


 2468 0030 0F49     		ldr	r1, .L152+4
 2469 0032 6846     		mov	r0, sp
 2470 0034 FFF7FEFF 		bl	sprintf
 2471              	.LVL165:
 957:application-library/ili9341-lcd/ili9341.c ****   serial_print(msg);
 2472              		.loc 1 957 0
 2473 0038 6846     		mov	r0, sp
 2474 003a FFF7FEFF 		bl	serial_print
 2475              	.LVL166:
 958:application-library/ili9341-lcd/ili9341.c ****   sprintf(msg, "DD (Display Dimming on/off): %d\n", (p_read_data[1] & 0x08) ? 1 : 0); 
 2476              		.loc 1 958 0
 2477 003e 7278     		ldrb	r2, [r6, #1]	@ zero_extendqisi2
 2478 0040 C2F3C002 		ubfx	r2, r2, #3, #1
 2479 0044 0B49     		ldr	r1, .L152+8
 2480 0046 6846     		mov	r0, sp
 2481 0048 FFF7FEFF 		bl	sprintf
 2482              	.LVL167:
 959:application-library/ili9341-lcd/ili9341.c ****   serial_print(msg);
 2483              		.loc 1 959 0
 2484 004c 6846     		mov	r0, sp
 2485 004e FFF7FEFF 		bl	serial_print
 2486              	.LVL168:
 960:application-library/ili9341-lcd/ili9341.c ****   sprintf(msg, "BL (Complete turn off backlight): %d\n", (p_read_data[1] & 0x04) ? 1 : 0); 
 2487              		.loc 1 960 0
 2488 0052 7278     		ldrb	r2, [r6, #1]	@ zero_extendqisi2
 2489 0054 C2F38002 		ubfx	r2, r2, #2, #1
 2490 0058 0749     		ldr	r1, .L152+12
 2491 005a 6846     		mov	r0, sp
 2492 005c FFF7FEFF 		bl	sprintf
 2493              	.LVL169:
 961:application-library/ili9341-lcd/ili9341.c ****   serial_print(msg);
 2494              		.loc 1 961 0
 2495 0060 6846     		mov	r0, sp
 2496 0062 FFF7FEFF 		bl	serial_print
 2497              	.LVL170:
 962:application-library/ili9341-lcd/ili9341.c ****   #endif
 963:application-library/ili9341-lcd/ili9341.c **** }
 2498              		.loc 1 963 0
 2499 0066 10B0     		add	sp, sp, #64
 2500              	.LCFI77:
 2501              		.cfi_def_cfa_offset 16
 2502              		@ sp needed
 2503 0068 70BD     		pop	{r4, r5, r6, pc}
 2504              	.LVL171:
 2505              	.L153:
 2506 006a 00BF     		.align	2
 2507              	.L152:
 2508 006c 00000000 		.word	.LC17
 2509 0070 34000000 		.word	.LC18
 2510 0074 5C000000 		.word	.LC19
 2511 0078 80000000 		.word	.LC20
 2512              		.cfi_endproc
 2513              	.LFE192:
 2515              		.section	.text.ili9341_set_content_adaptive_brightness_control,"ax",%progbits
 2516              		.align	1
 2517              		.global	ili9341_set_content_adaptive_brightness_control
 2518              		.syntax unified
ARM GAS  /tmp/ccoB52Ks.s 			page 60


 2519              		.thumb
 2520              		.thumb_func
 2521              		.fpu fpv4-sp-d16
 2523              	ili9341_set_content_adaptive_brightness_control:
 2524              	.LFB193:
 964:application-library/ili9341-lcd/ili9341.c **** 
 965:application-library/ili9341-lcd/ili9341.c **** 
 966:application-library/ili9341-lcd/ili9341.c **** 
 967:application-library/ili9341-lcd/ili9341.c **** /** 
 968:application-library/ili9341-lcd/ili9341.c ****   * @brief  TODO 8.2.42. Write Content Adaptive Brightness Control (55h) 
 969:application-library/ili9341-lcd/ili9341.c ****   * @param  None.
 970:application-library/ili9341-lcd/ili9341.c ****   * @retval None.
 971:application-library/ili9341-lcd/ili9341.c ****   */
 972:application-library/ili9341-lcd/ili9341.c **** void ili9341_set_content_adaptive_brightness_control()
 973:application-library/ili9341-lcd/ili9341.c **** {
 2525              		.loc 1 973 0
 2526              		.cfi_startproc
 2527              		@ args = 0, pretend = 0, frame = 0
 2528              		@ frame_needed = 0, uses_anonymous_args = 0
 2529              		@ link register save eliminated.
 2530 0000 7047     		bx	lr
 2531              		.cfi_endproc
 2532              	.LFE193:
 2534              		.section	.text.ili9341_get_content_adaptive_brightness_control,"ax",%progbits
 2535              		.align	1
 2536              		.global	ili9341_get_content_adaptive_brightness_control
 2537              		.syntax unified
 2538              		.thumb
 2539              		.thumb_func
 2540              		.fpu fpv4-sp-d16
 2542              	ili9341_get_content_adaptive_brightness_control:
 2543              	.LFB194:
 974:application-library/ili9341-lcd/ili9341.c **** 
 975:application-library/ili9341-lcd/ili9341.c **** }
 976:application-library/ili9341-lcd/ili9341.c **** 
 977:application-library/ili9341-lcd/ili9341.c **** /** 
 978:application-library/ili9341-lcd/ili9341.c ****   * @brief  TODO 8.2.43. Read Content Adaptive Brightness Control (56h) 
 979:application-library/ili9341-lcd/ili9341.c ****   * @param  None.
 980:application-library/ili9341-lcd/ili9341.c ****   * @retval None.
 981:application-library/ili9341-lcd/ili9341.c ****   */
 982:application-library/ili9341-lcd/ili9341.c **** void ili9341_get_content_adaptive_brightness_control()
 983:application-library/ili9341-lcd/ili9341.c **** {
 2544              		.loc 1 983 0
 2545              		.cfi_startproc
 2546              		@ args = 0, pretend = 0, frame = 0
 2547              		@ frame_needed = 0, uses_anonymous_args = 0
 2548              		@ link register save eliminated.
 2549 0000 7047     		bx	lr
 2550              		.cfi_endproc
 2551              	.LFE194:
 2553              		.section	.text.ili9341_set_CABC_minimum_brightness,"ax",%progbits
 2554              		.align	1
 2555              		.global	ili9341_set_CABC_minimum_brightness
 2556              		.syntax unified
 2557              		.thumb
 2558              		.thumb_func
 2559              		.fpu fpv4-sp-d16
ARM GAS  /tmp/ccoB52Ks.s 			page 61


 2561              	ili9341_set_CABC_minimum_brightness:
 2562              	.LFB195:
 984:application-library/ili9341-lcd/ili9341.c **** 
 985:application-library/ili9341-lcd/ili9341.c **** }
 986:application-library/ili9341-lcd/ili9341.c **** 
 987:application-library/ili9341-lcd/ili9341.c **** 
 988:application-library/ili9341-lcd/ili9341.c **** /** 
 989:application-library/ili9341-lcd/ili9341.c ****   * @brief  TODO 8.2.44. Write CABC Minimum Brightness (5Eh) 
 990:application-library/ili9341-lcd/ili9341.c ****   * @param  None.
 991:application-library/ili9341-lcd/ili9341.c ****   * @retval None.
 992:application-library/ili9341-lcd/ili9341.c ****   */
 993:application-library/ili9341-lcd/ili9341.c **** void ili9341_set_CABC_minimum_brightness()
 994:application-library/ili9341-lcd/ili9341.c **** {
 2563              		.loc 1 994 0
 2564              		.cfi_startproc
 2565              		@ args = 0, pretend = 0, frame = 0
 2566              		@ frame_needed = 0, uses_anonymous_args = 0
 2567              		@ link register save eliminated.
 2568 0000 7047     		bx	lr
 2569              		.cfi_endproc
 2570              	.LFE195:
 2572              		.section	.text.ili9341_get_CABC_minimum_brightness,"ax",%progbits
 2573              		.align	1
 2574              		.global	ili9341_get_CABC_minimum_brightness
 2575              		.syntax unified
 2576              		.thumb
 2577              		.thumb_func
 2578              		.fpu fpv4-sp-d16
 2580              	ili9341_get_CABC_minimum_brightness:
 2581              	.LFB196:
 995:application-library/ili9341-lcd/ili9341.c **** 
 996:application-library/ili9341-lcd/ili9341.c **** }
 997:application-library/ili9341-lcd/ili9341.c **** 
 998:application-library/ili9341-lcd/ili9341.c **** 
 999:application-library/ili9341-lcd/ili9341.c **** /** 
1000:application-library/ili9341-lcd/ili9341.c ****   * @brief  TODO 8.2.45. Read CABC Minimum Brightness (5Fh) 
1001:application-library/ili9341-lcd/ili9341.c ****   * @param  None.
1002:application-library/ili9341-lcd/ili9341.c ****   * @retval None.
1003:application-library/ili9341-lcd/ili9341.c ****   */
1004:application-library/ili9341-lcd/ili9341.c **** void ili9341_get_CABC_minimum_brightness()
1005:application-library/ili9341-lcd/ili9341.c **** {
 2582              		.loc 1 1005 0
 2583              		.cfi_startproc
 2584              		@ args = 0, pretend = 0, frame = 0
 2585              		@ frame_needed = 0, uses_anonymous_args = 0
 2586              		@ link register save eliminated.
 2587 0000 7047     		bx	lr
 2588              		.cfi_endproc
 2589              	.LFE196:
 2591              		.section	.text.ili9341_get_id1,"ax",%progbits
 2592              		.align	1
 2593              		.global	ili9341_get_id1
 2594              		.syntax unified
 2595              		.thumb
 2596              		.thumb_func
 2597              		.fpu fpv4-sp-d16
 2599              	ili9341_get_id1:
ARM GAS  /tmp/ccoB52Ks.s 			page 62


 2600              	.LFB197:
1006:application-library/ili9341-lcd/ili9341.c **** 
1007:application-library/ili9341-lcd/ili9341.c **** }
1008:application-library/ili9341-lcd/ili9341.c **** 
1009:application-library/ili9341-lcd/ili9341.c **** /** 
1010:application-library/ili9341-lcd/ili9341.c ****   * @brief 8.2.46. Read ID1 (DAh) 
1011:application-library/ili9341-lcd/ili9341.c ****   * @param  p_read_data Pointer to the array storing data read from ID1 register.
1012:application-library/ili9341-lcd/ili9341.c ****   * @retval None.
1013:application-library/ili9341-lcd/ili9341.c ****   * @note.  p_read_data[0] is expected a dummy byte, ignore it.
1014:application-library/ili9341-lcd/ili9341.c ****   *         At the time of this code development, id1 returns 0x00
1015:application-library/ili9341-lcd/ili9341.c ****   *           even through other register read / write were tested successful.
1016:application-library/ili9341-lcd/ili9341.c ****   *         Since <id1> is defined as the LCD module's manufatuerer ID,
1017:application-library/ili9341-lcd/ili9341.c ****   *           some brand may use ILI9341 but never programmed its ID.
1018:application-library/ili9341-lcd/ili9341.c ****   *         In order to do sanity check on fresh connection, use ili9341_get_id4() instead, 
1019:application-library/ili9341-lcd/ili9341.c ****   *           which should return 0x9341 on its third and fourth bytes.
1020:application-library/ili9341-lcd/ili9341.c ****   */
1021:application-library/ili9341-lcd/ili9341.c **** void ili9341_get_id1(uint8_t* p_read_data)
1022:application-library/ili9341-lcd/ili9341.c **** {
 2601              		.loc 1 1022 0
 2602              		.cfi_startproc
 2603              		@ args = 0, pretend = 0, frame = 64
 2604              		@ frame_needed = 0, uses_anonymous_args = 0
 2605              	.LVL172:
 2606              		.loc 1 1022 0
 2607 0000 70B5     		push	{r4, r5, r6, lr}
 2608              	.LCFI78:
 2609              		.cfi_def_cfa_offset 16
 2610              		.cfi_offset 4, -16
 2611              		.cfi_offset 5, -12
 2612              		.cfi_offset 6, -8
 2613              		.cfi_offset 14, -4
 2614 0002 90B0     		sub	sp, sp, #64
 2615              	.LCFI79:
 2616              		.cfi_def_cfa_offset 80
 2617 0004 0646     		mov	r6, r0
1023:application-library/ili9341-lcd/ili9341.c ****   bus_8080_read_register(0xDA, 2, p_read_data);
 2618              		.loc 1 1023 0
 2619 0006 0246     		mov	r2, r0
 2620 0008 0221     		movs	r1, #2
 2621 000a DA20     		movs	r0, #218
 2622              	.LVL173:
 2623 000c FFF7FEFF 		bl	bus_8080_read_register
 2624              	.LVL174:
1024:application-library/ili9341-lcd/ili9341.c ****  
1025:application-library/ili9341-lcd/ili9341.c ****   #if defined ILI9341_DEBUG
1026:application-library/ili9341-lcd/ili9341.c ****   char msg[64];
1027:application-library/ili9341-lcd/ili9341.c ****   sprintf(msg, "- Printing ILI9341 <id1> register value -\n");
 2625              		.loc 1 1027 0
 2626 0010 6C46     		mov	r4, sp
 2627 0012 0C4D     		ldr	r5, .L160
 2628 0014 0FCD     		ldmia	r5!, {r0, r1, r2, r3}
 2629 0016 0FC4     		stmia	r4!, {r0, r1, r2, r3}
 2630 0018 0FCD     		ldmia	r5!, {r0, r1, r2, r3}
 2631 001a 0FC4     		stmia	r4!, {r0, r1, r2, r3}
 2632 001c 95E80700 		ldm	r5, {r0, r1, r2}
 2633 0020 03C4     		stmia	r4!, {r0, r1}
 2634 0022 24F8022B 		strh	r2, [r4], #2	@ movhi
ARM GAS  /tmp/ccoB52Ks.s 			page 63


 2635 0026 120C     		lsrs	r2, r2, #16
 2636 0028 2270     		strb	r2, [r4]
1028:application-library/ili9341-lcd/ili9341.c ****   serial_print(msg);
 2637              		.loc 1 1028 0
 2638 002a 6846     		mov	r0, sp
 2639 002c FFF7FEFF 		bl	serial_print
 2640              	.LVL175:
1029:application-library/ili9341-lcd/ili9341.c ****   sprintf(msg, "ID1: %#02x\n", p_read_data[1]); 
 2641              		.loc 1 1029 0
 2642 0030 7278     		ldrb	r2, [r6, #1]	@ zero_extendqisi2
 2643 0032 0549     		ldr	r1, .L160+4
 2644 0034 6846     		mov	r0, sp
 2645 0036 FFF7FEFF 		bl	sprintf
 2646              	.LVL176:
1030:application-library/ili9341-lcd/ili9341.c ****   serial_print(msg);
 2647              		.loc 1 1030 0
 2648 003a 6846     		mov	r0, sp
 2649 003c FFF7FEFF 		bl	serial_print
 2650              	.LVL177:
1031:application-library/ili9341-lcd/ili9341.c ****   #endif
1032:application-library/ili9341-lcd/ili9341.c **** }
 2651              		.loc 1 1032 0
 2652 0040 10B0     		add	sp, sp, #64
 2653              	.LCFI80:
 2654              		.cfi_def_cfa_offset 16
 2655              		@ sp needed
 2656 0042 70BD     		pop	{r4, r5, r6, pc}
 2657              	.LVL178:
 2658              	.L161:
 2659              		.align	2
 2660              	.L160:
 2661 0044 00000000 		.word	.LC21
 2662 0048 2C000000 		.word	.LC22
 2663              		.cfi_endproc
 2664              	.LFE197:
 2666              		.section	.text.ili9341_get_id2,"ax",%progbits
 2667              		.align	1
 2668              		.global	ili9341_get_id2
 2669              		.syntax unified
 2670              		.thumb
 2671              		.thumb_func
 2672              		.fpu fpv4-sp-d16
 2674              	ili9341_get_id2:
 2675              	.LFB198:
1033:application-library/ili9341-lcd/ili9341.c **** 
1034:application-library/ili9341-lcd/ili9341.c **** 
1035:application-library/ili9341-lcd/ili9341.c **** /** 
1036:application-library/ili9341-lcd/ili9341.c ****   * @brief  8.2.47. Read ID2 (DBh) 
1037:application-library/ili9341-lcd/ili9341.c ****   * @param  p_read_data Pointer to the array storing data read from ID2 register.
1038:application-library/ili9341-lcd/ili9341.c ****   * @retval None.
1039:application-library/ili9341-lcd/ili9341.c ****   * @note.  p_read_data[0] is expected a dummy byte, ignore it.
1040:application-library/ili9341-lcd/ili9341.c ****   *         At the time of this code development, id1 returns 0x00
1041:application-library/ili9341-lcd/ili9341.c ****   *           even through other register read / write were tested successful.
1042:application-library/ili9341-lcd/ili9341.c ****   *         Since <id2> is defined as the LCD module's manufatuerer ID,
1043:application-library/ili9341-lcd/ili9341.c ****   *           some brand may use ILI9341 but never programmed its ID.
1044:application-library/ili9341-lcd/ili9341.c ****   *         In order to do sanity check on fresh connection, use ili9341_get_id4() instead, 
1045:application-library/ili9341-lcd/ili9341.c ****   *           which should return 0x9341 on its third and fourth bytes.
ARM GAS  /tmp/ccoB52Ks.s 			page 64


1046:application-library/ili9341-lcd/ili9341.c ****   */
1047:application-library/ili9341-lcd/ili9341.c **** void ili9341_get_id2(uint8_t* p_read_data)
1048:application-library/ili9341-lcd/ili9341.c **** {
 2676              		.loc 1 1048 0
 2677              		.cfi_startproc
 2678              		@ args = 0, pretend = 0, frame = 64
 2679              		@ frame_needed = 0, uses_anonymous_args = 0
 2680              	.LVL179:
 2681 0000 70B5     		push	{r4, r5, r6, lr}
 2682              	.LCFI81:
 2683              		.cfi_def_cfa_offset 16
 2684              		.cfi_offset 4, -16
 2685              		.cfi_offset 5, -12
 2686              		.cfi_offset 6, -8
 2687              		.cfi_offset 14, -4
 2688 0002 90B0     		sub	sp, sp, #64
 2689              	.LCFI82:
 2690              		.cfi_def_cfa_offset 80
 2691 0004 0646     		mov	r6, r0
1049:application-library/ili9341-lcd/ili9341.c ****   bus_8080_read_register(0xDB, 2, p_read_data);
 2692              		.loc 1 1049 0
 2693 0006 0246     		mov	r2, r0
 2694 0008 0221     		movs	r1, #2
 2695 000a DB20     		movs	r0, #219
 2696              	.LVL180:
 2697 000c FFF7FEFF 		bl	bus_8080_read_register
 2698              	.LVL181:
1050:application-library/ili9341-lcd/ili9341.c ****  
1051:application-library/ili9341-lcd/ili9341.c ****   #if defined ILI9341_DEBUG
1052:application-library/ili9341-lcd/ili9341.c ****   char msg[64];
1053:application-library/ili9341-lcd/ili9341.c ****   sprintf(msg, "- Printing ILI9341 <id2> register value -\n");
 2699              		.loc 1 1053 0
 2700 0010 6C46     		mov	r4, sp
 2701 0012 0C4D     		ldr	r5, .L164
 2702 0014 0FCD     		ldmia	r5!, {r0, r1, r2, r3}
 2703 0016 0FC4     		stmia	r4!, {r0, r1, r2, r3}
 2704 0018 0FCD     		ldmia	r5!, {r0, r1, r2, r3}
 2705 001a 0FC4     		stmia	r4!, {r0, r1, r2, r3}
 2706 001c 95E80700 		ldm	r5, {r0, r1, r2}
 2707 0020 03C4     		stmia	r4!, {r0, r1}
 2708 0022 24F8022B 		strh	r2, [r4], #2	@ movhi
 2709 0026 120C     		lsrs	r2, r2, #16
 2710 0028 2270     		strb	r2, [r4]
1054:application-library/ili9341-lcd/ili9341.c ****   serial_print(msg);
 2711              		.loc 1 1054 0
 2712 002a 6846     		mov	r0, sp
 2713 002c FFF7FEFF 		bl	serial_print
 2714              	.LVL182:
1055:application-library/ili9341-lcd/ili9341.c ****   sprintf(msg, "ID2: %#02x\n", p_read_data[1]); 
 2715              		.loc 1 1055 0
 2716 0030 7278     		ldrb	r2, [r6, #1]	@ zero_extendqisi2
 2717 0032 0549     		ldr	r1, .L164+4
 2718 0034 6846     		mov	r0, sp
 2719 0036 FFF7FEFF 		bl	sprintf
 2720              	.LVL183:
1056:application-library/ili9341-lcd/ili9341.c ****   serial_print(msg);
 2721              		.loc 1 1056 0
ARM GAS  /tmp/ccoB52Ks.s 			page 65


 2722 003a 6846     		mov	r0, sp
 2723 003c FFF7FEFF 		bl	serial_print
 2724              	.LVL184:
1057:application-library/ili9341-lcd/ili9341.c ****   #endif
1058:application-library/ili9341-lcd/ili9341.c **** 
1059:application-library/ili9341-lcd/ili9341.c **** }
 2725              		.loc 1 1059 0
 2726 0040 10B0     		add	sp, sp, #64
 2727              	.LCFI83:
 2728              		.cfi_def_cfa_offset 16
 2729              		@ sp needed
 2730 0042 70BD     		pop	{r4, r5, r6, pc}
 2731              	.LVL185:
 2732              	.L165:
 2733              		.align	2
 2734              	.L164:
 2735 0044 00000000 		.word	.LC23
 2736 0048 2C000000 		.word	.LC24
 2737              		.cfi_endproc
 2738              	.LFE198:
 2740              		.section	.text.ili9341_get_id3,"ax",%progbits
 2741              		.align	1
 2742              		.global	ili9341_get_id3
 2743              		.syntax unified
 2744              		.thumb
 2745              		.thumb_func
 2746              		.fpu fpv4-sp-d16
 2748              	ili9341_get_id3:
 2749              	.LFB199:
1060:application-library/ili9341-lcd/ili9341.c **** 
1061:application-library/ili9341-lcd/ili9341.c **** /** 
1062:application-library/ili9341-lcd/ili9341.c ****   * @brief  8.2.48. Read ID3 (DCh)
1063:application-library/ili9341-lcd/ili9341.c ****   * @param  p_read_data Pointer to the array storing data read from ID3 register.
1064:application-library/ili9341-lcd/ili9341.c ****   * @retval None.
1065:application-library/ili9341-lcd/ili9341.c ****   * @note.  p_read_data[0] is expected a dummy byte, ignore it.
1066:application-library/ili9341-lcd/ili9341.c ****   *         At the time of this code development, id3 returns 0x00
1067:application-library/ili9341-lcd/ili9341.c ****   *           even through other register read / write were tested successful.
1068:application-library/ili9341-lcd/ili9341.c ****   *         Since <id3> is defined as the LCD module's driver ID.
1069:application-library/ili9341-lcd/ili9341.c ****   *           some brand may use ILI9341 but never programmed its ID.
1070:application-library/ili9341-lcd/ili9341.c ****   *         In order to do sanity check on fresh connection, use ili9341_get_id4() instead, 
1071:application-library/ili9341-lcd/ili9341.c ****   *           which should return 0x9341 on its third and fourth bytes.
1072:application-library/ili9341-lcd/ili9341.c ****   */
1073:application-library/ili9341-lcd/ili9341.c **** void ili9341_get_id3(uint8_t* p_read_data)
1074:application-library/ili9341-lcd/ili9341.c **** {
 2750              		.loc 1 1074 0
 2751              		.cfi_startproc
 2752              		@ args = 0, pretend = 0, frame = 64
 2753              		@ frame_needed = 0, uses_anonymous_args = 0
 2754              	.LVL186:
 2755 0000 70B5     		push	{r4, r5, r6, lr}
 2756              	.LCFI84:
 2757              		.cfi_def_cfa_offset 16
 2758              		.cfi_offset 4, -16
 2759              		.cfi_offset 5, -12
 2760              		.cfi_offset 6, -8
 2761              		.cfi_offset 14, -4
 2762 0002 90B0     		sub	sp, sp, #64
ARM GAS  /tmp/ccoB52Ks.s 			page 66


 2763              	.LCFI85:
 2764              		.cfi_def_cfa_offset 80
 2765 0004 0646     		mov	r6, r0
1075:application-library/ili9341-lcd/ili9341.c ****   bus_8080_read_register(0xDC, 2, p_read_data);
 2766              		.loc 1 1075 0
 2767 0006 0246     		mov	r2, r0
 2768 0008 0221     		movs	r1, #2
 2769 000a DC20     		movs	r0, #220
 2770              	.LVL187:
 2771 000c FFF7FEFF 		bl	bus_8080_read_register
 2772              	.LVL188:
1076:application-library/ili9341-lcd/ili9341.c ****  
1077:application-library/ili9341-lcd/ili9341.c ****   #if defined ILI9341_DEBUG
1078:application-library/ili9341-lcd/ili9341.c ****   char msg[64];
1079:application-library/ili9341-lcd/ili9341.c ****   sprintf(msg, "- Printing ILI9341 <id3> register value -\n");
 2773              		.loc 1 1079 0
 2774 0010 6C46     		mov	r4, sp
 2775 0012 0C4D     		ldr	r5, .L168
 2776 0014 0FCD     		ldmia	r5!, {r0, r1, r2, r3}
 2777 0016 0FC4     		stmia	r4!, {r0, r1, r2, r3}
 2778 0018 0FCD     		ldmia	r5!, {r0, r1, r2, r3}
 2779 001a 0FC4     		stmia	r4!, {r0, r1, r2, r3}
 2780 001c 95E80700 		ldm	r5, {r0, r1, r2}
 2781 0020 03C4     		stmia	r4!, {r0, r1}
 2782 0022 24F8022B 		strh	r2, [r4], #2	@ movhi
 2783 0026 120C     		lsrs	r2, r2, #16
 2784 0028 2270     		strb	r2, [r4]
1080:application-library/ili9341-lcd/ili9341.c ****   serial_print(msg);
 2785              		.loc 1 1080 0
 2786 002a 6846     		mov	r0, sp
 2787 002c FFF7FEFF 		bl	serial_print
 2788              	.LVL189:
1081:application-library/ili9341-lcd/ili9341.c ****   sprintf(msg, "ID3: %#02x\n", p_read_data[1]); 
 2789              		.loc 1 1081 0
 2790 0030 7278     		ldrb	r2, [r6, #1]	@ zero_extendqisi2
 2791 0032 0549     		ldr	r1, .L168+4
 2792 0034 6846     		mov	r0, sp
 2793 0036 FFF7FEFF 		bl	sprintf
 2794              	.LVL190:
1082:application-library/ili9341-lcd/ili9341.c ****   serial_print(msg);
 2795              		.loc 1 1082 0
 2796 003a 6846     		mov	r0, sp
 2797 003c FFF7FEFF 		bl	serial_print
 2798              	.LVL191:
1083:application-library/ili9341-lcd/ili9341.c ****   #endif
1084:application-library/ili9341-lcd/ili9341.c **** }
 2799              		.loc 1 1084 0
 2800 0040 10B0     		add	sp, sp, #64
 2801              	.LCFI86:
 2802              		.cfi_def_cfa_offset 16
 2803              		@ sp needed
 2804 0042 70BD     		pop	{r4, r5, r6, pc}
 2805              	.LVL192:
 2806              	.L169:
 2807              		.align	2
 2808              	.L168:
 2809 0044 00000000 		.word	.LC25
ARM GAS  /tmp/ccoB52Ks.s 			page 67


 2810 0048 2C000000 		.word	.LC26
 2811              		.cfi_endproc
 2812              	.LFE199:
 2814              		.section	.text.ili9341_set_power_control1,"ax",%progbits
 2815              		.align	1
 2816              		.global	ili9341_set_power_control1
 2817              		.syntax unified
 2818              		.thumb
 2819              		.thumb_func
 2820              		.fpu fpv4-sp-d16
 2822              	ili9341_set_power_control1:
 2823              	.LFB200:
1085:application-library/ili9341-lcd/ili9341.c **** 
1086:application-library/ili9341-lcd/ili9341.c **** 
1087:application-library/ili9341-lcd/ili9341.c **** 
1088:application-library/ili9341-lcd/ili9341.c **** /* ILI9341 Extended Registers Access --------------------------------------------------------------
1089:application-library/ili9341-lcd/ili9341.c **** /* 8.3.1. RGB Interface Signal Control (B0h) */
1090:application-library/ili9341-lcd/ili9341.c **** void ili9341_rgb_interface_signal_control();
1091:application-library/ili9341-lcd/ili9341.c **** /* 8.3.2. Frame Rate Control (In Normal Mode/Full Colors) (B1h) */
1092:application-library/ili9341-lcd/ili9341.c **** void ili9341_frame_control_normal_mode();
1093:application-library/ili9341-lcd/ili9341.c **** /* 8.3.3. Frame Rate Control (In Idle Mode/8 colors) (B2h) */
1094:application-library/ili9341-lcd/ili9341.c **** void ili9341_frame_control_idle_mode();
1095:application-library/ili9341-lcd/ili9341.c **** /* 8.3.4. Frame Rate control (In Partial Mode/Full Colors) (B3h) */
1096:application-library/ili9341-lcd/ili9341.c **** void ili9341_frame_control_partial_mode();
1097:application-library/ili9341-lcd/ili9341.c **** /* 8.3.5. Display Inversion Control (B4h) */
1098:application-library/ili9341-lcd/ili9341.c **** void ili9341_display_inversion_control();
1099:application-library/ili9341-lcd/ili9341.c **** /* 8.3.6. Blanking Porch Control (B5h) */
1100:application-library/ili9341-lcd/ili9341.c **** void ili9341_blanking_porch_control();
1101:application-library/ili9341-lcd/ili9341.c **** /* 8.3.7. Display Function Control (B6h) */
1102:application-library/ili9341-lcd/ili9341.c **** void ili9341_display_function_control();
1103:application-library/ili9341-lcd/ili9341.c **** /* 8.3.8. Entry Mode Set (B7h) */
1104:application-library/ili9341-lcd/ili9341.c **** void ili9341_entry_mode_set();
1105:application-library/ili9341-lcd/ili9341.c **** /* 8.3.9. Backlight Control 1 (B8h) */
1106:application-library/ili9341-lcd/ili9341.c **** void ili9341_backlight_control_1();
1107:application-library/ili9341-lcd/ili9341.c **** /* 8.3.10. Backlight Control 2 (B9h) */
1108:application-library/ili9341-lcd/ili9341.c **** void ili9341_backlight_control_2();
1109:application-library/ili9341-lcd/ili9341.c **** /* 8.3.11. Backlight Control 3 (BAh) */
1110:application-library/ili9341-lcd/ili9341.c **** void ili9341_backlight_control_3();
1111:application-library/ili9341-lcd/ili9341.c **** /* 8.3.12. Backlight Control 4 (BBh) */
1112:application-library/ili9341-lcd/ili9341.c **** void ili9341_backlight_control_4();
1113:application-library/ili9341-lcd/ili9341.c **** /* 8.3.13. Backlight Control 5 (BCh) */
1114:application-library/ili9341-lcd/ili9341.c **** void ili9341_backlight_control_5();
1115:application-library/ili9341-lcd/ili9341.c **** /* 8.3.14. Backlight Control 7 (BEh) */
1116:application-library/ili9341-lcd/ili9341.c **** void ili9341_backlight_control_7();
1117:application-library/ili9341-lcd/ili9341.c **** /* 8.3.15. Backlight Control 8 (BFh)*/
1118:application-library/ili9341-lcd/ili9341.c **** void ili9341_backlight_control_8();
1119:application-library/ili9341-lcd/ili9341.c **** 
1120:application-library/ili9341-lcd/ili9341.c **** /* 8.3.16. Power Control 1 (C0h) */ 
1121:application-library/ili9341-lcd/ili9341.c **** void ili9341_set_power_control1()
1122:application-library/ili9341-lcd/ili9341.c **** {
 2824              		.loc 1 1122 0
 2825              		.cfi_startproc
 2826              		@ args = 0, pretend = 0, frame = 8
 2827              		@ frame_needed = 0, uses_anonymous_args = 0
 2828 0000 00B5     		push	{lr}
 2829              	.LCFI87:
 2830              		.cfi_def_cfa_offset 4
ARM GAS  /tmp/ccoB52Ks.s 			page 68


 2831              		.cfi_offset 14, -4
 2832 0002 83B0     		sub	sp, sp, #12
 2833              	.LCFI88:
 2834              		.cfi_def_cfa_offset 16
1123:application-library/ili9341-lcd/ili9341.c ****   uint8_t p_param[1] = {0x23};
 2835              		.loc 1 1123 0
 2836 0004 02AA     		add	r2, sp, #8
 2837 0006 2323     		movs	r3, #35
 2838 0008 02F8043D 		strb	r3, [r2, #-4]!
1124:application-library/ili9341-lcd/ili9341.c ****   bus_8080_write_register(0xC0, 1, p_param);
 2839              		.loc 1 1124 0
 2840 000c 0121     		movs	r1, #1
 2841 000e C020     		movs	r0, #192
 2842 0010 FFF7FEFF 		bl	bus_8080_write_register
 2843              	.LVL193:
1125:application-library/ili9341-lcd/ili9341.c **** }
 2844              		.loc 1 1125 0
 2845 0014 03B0     		add	sp, sp, #12
 2846              	.LCFI89:
 2847              		.cfi_def_cfa_offset 4
 2848              		@ sp needed
 2849 0016 5DF804FB 		ldr	pc, [sp], #4
 2850              		.cfi_endproc
 2851              	.LFE200:
 2853              		.section	.text.ili9341_set_power_control2,"ax",%progbits
 2854              		.align	1
 2855              		.global	ili9341_set_power_control2
 2856              		.syntax unified
 2857              		.thumb
 2858              		.thumb_func
 2859              		.fpu fpv4-sp-d16
 2861              	ili9341_set_power_control2:
 2862              	.LFB201:
1126:application-library/ili9341-lcd/ili9341.c **** 
1127:application-library/ili9341-lcd/ili9341.c **** /* 8.3.17. Power Control 2 (C1h) */ 
1128:application-library/ili9341-lcd/ili9341.c **** void ili9341_set_power_control2()
1129:application-library/ili9341-lcd/ili9341.c **** {
 2863              		.loc 1 1129 0
 2864              		.cfi_startproc
 2865              		@ args = 0, pretend = 0, frame = 8
 2866              		@ frame_needed = 0, uses_anonymous_args = 0
 2867 0000 00B5     		push	{lr}
 2868              	.LCFI90:
 2869              		.cfi_def_cfa_offset 4
 2870              		.cfi_offset 14, -4
 2871 0002 83B0     		sub	sp, sp, #12
 2872              	.LCFI91:
 2873              		.cfi_def_cfa_offset 16
1130:application-library/ili9341-lcd/ili9341.c ****   uint8_t p_param[1] = {0x10};
 2874              		.loc 1 1130 0
 2875 0004 02AA     		add	r2, sp, #8
 2876 0006 1023     		movs	r3, #16
 2877 0008 02F8043D 		strb	r3, [r2, #-4]!
1131:application-library/ili9341-lcd/ili9341.c ****   bus_8080_write_register(0xC1, 1, p_param);
 2878              		.loc 1 1131 0
 2879 000c 0121     		movs	r1, #1
 2880 000e C120     		movs	r0, #193
ARM GAS  /tmp/ccoB52Ks.s 			page 69


 2881 0010 FFF7FEFF 		bl	bus_8080_write_register
 2882              	.LVL194:
1132:application-library/ili9341-lcd/ili9341.c **** }
 2883              		.loc 1 1132 0
 2884 0014 03B0     		add	sp, sp, #12
 2885              	.LCFI92:
 2886              		.cfi_def_cfa_offset 4
 2887              		@ sp needed
 2888 0016 5DF804FB 		ldr	pc, [sp], #4
 2889              		.cfi_endproc
 2890              	.LFE201:
 2892              		.section	.text.ili9341_set_vcom_control1,"ax",%progbits
 2893              		.align	1
 2894              		.global	ili9341_set_vcom_control1
 2895              		.syntax unified
 2896              		.thumb
 2897              		.thumb_func
 2898              		.fpu fpv4-sp-d16
 2900              	ili9341_set_vcom_control1:
 2901              	.LFB202:
1133:application-library/ili9341-lcd/ili9341.c **** 
1134:application-library/ili9341-lcd/ili9341.c **** /* 8.3.18. VCOM Control 1(C5h) */ 
1135:application-library/ili9341-lcd/ili9341.c **** void ili9341_set_vcom_control1()
1136:application-library/ili9341-lcd/ili9341.c **** {
 2902              		.loc 1 1136 0
 2903              		.cfi_startproc
 2904              		@ args = 0, pretend = 0, frame = 8
 2905              		@ frame_needed = 0, uses_anonymous_args = 0
 2906 0000 00B5     		push	{lr}
 2907              	.LCFI93:
 2908              		.cfi_def_cfa_offset 4
 2909              		.cfi_offset 14, -4
 2910 0002 83B0     		sub	sp, sp, #12
 2911              	.LCFI94:
 2912              		.cfi_def_cfa_offset 16
1137:application-library/ili9341-lcd/ili9341.c ****   uint8_t p_param[2] = {0x3E, 0x28};
 2913              		.loc 1 1137 0
 2914 0004 054B     		ldr	r3, .L176
 2915 0006 1B88     		ldrh	r3, [r3]
 2916 0008 02AA     		add	r2, sp, #8
 2917 000a 22F8043D 		strh	r3, [r2, #-4]!	@ movhi
1138:application-library/ili9341-lcd/ili9341.c ****   bus_8080_write_register(0xC5, 2, p_param);
 2918              		.loc 1 1138 0
 2919 000e 0221     		movs	r1, #2
 2920 0010 C520     		movs	r0, #197
 2921 0012 FFF7FEFF 		bl	bus_8080_write_register
 2922              	.LVL195:
1139:application-library/ili9341-lcd/ili9341.c **** }
 2923              		.loc 1 1139 0
 2924 0016 03B0     		add	sp, sp, #12
 2925              	.LCFI95:
 2926              		.cfi_def_cfa_offset 4
 2927              		@ sp needed
 2928 0018 5DF804FB 		ldr	pc, [sp], #4
 2929              	.L177:
 2930              		.align	2
 2931              	.L176:
ARM GAS  /tmp/ccoB52Ks.s 			page 70


 2932 001c 00000000 		.word	.LANCHOR0
 2933              		.cfi_endproc
 2934              	.LFE202:
 2936              		.section	.text.ili9341_set_vcom_control2,"ax",%progbits
 2937              		.align	1
 2938              		.global	ili9341_set_vcom_control2
 2939              		.syntax unified
 2940              		.thumb
 2941              		.thumb_func
 2942              		.fpu fpv4-sp-d16
 2944              	ili9341_set_vcom_control2:
 2945              	.LFB203:
1140:application-library/ili9341-lcd/ili9341.c **** 
1141:application-library/ili9341-lcd/ili9341.c **** /* 8.3.19. VCOM Control 2(C7h) */ 
1142:application-library/ili9341-lcd/ili9341.c **** void ili9341_set_vcom_control2()
1143:application-library/ili9341-lcd/ili9341.c **** {
 2946              		.loc 1 1143 0
 2947              		.cfi_startproc
 2948              		@ args = 0, pretend = 0, frame = 8
 2949              		@ frame_needed = 0, uses_anonymous_args = 0
 2950 0000 00B5     		push	{lr}
 2951              	.LCFI96:
 2952              		.cfi_def_cfa_offset 4
 2953              		.cfi_offset 14, -4
 2954 0002 83B0     		sub	sp, sp, #12
 2955              	.LCFI97:
 2956              		.cfi_def_cfa_offset 16
1144:application-library/ili9341-lcd/ili9341.c ****   uint8_t p_param[1] = {0x86};
 2957              		.loc 1 1144 0
 2958 0004 02AA     		add	r2, sp, #8
 2959 0006 8623     		movs	r3, #134
 2960 0008 02F8043D 		strb	r3, [r2, #-4]!
1145:application-library/ili9341-lcd/ili9341.c ****   bus_8080_write_register(0xC7, 1, p_param);
 2961              		.loc 1 1145 0
 2962 000c 0121     		movs	r1, #1
 2963 000e C720     		movs	r0, #199
 2964 0010 FFF7FEFF 		bl	bus_8080_write_register
 2965              	.LVL196:
1146:application-library/ili9341-lcd/ili9341.c **** }
 2966              		.loc 1 1146 0
 2967 0014 03B0     		add	sp, sp, #12
 2968              	.LCFI98:
 2969              		.cfi_def_cfa_offset 4
 2970              		@ sp needed
 2971 0016 5DF804FB 		ldr	pc, [sp], #4
 2972              		.cfi_endproc
 2973              	.LFE203:
 2975              		.section	.text.ili9341_get_id4,"ax",%progbits
 2976              		.align	1
 2977              		.global	ili9341_get_id4
 2978              		.syntax unified
 2979              		.thumb
 2980              		.thumb_func
 2981              		.fpu fpv4-sp-d16
 2983              	ili9341_get_id4:
 2984              	.LFB204:
1147:application-library/ili9341-lcd/ili9341.c **** 
ARM GAS  /tmp/ccoB52Ks.s 			page 71


1148:application-library/ili9341-lcd/ili9341.c **** /* 8.3.20. NV Memory Write (D0h) */ 
1149:application-library/ili9341-lcd/ili9341.c **** void ili9341_nv_memory_write();
1150:application-library/ili9341-lcd/ili9341.c **** /* 8.3.21. NV Memory Protection Key (D1h) */
1151:application-library/ili9341-lcd/ili9341.c **** void ili9341_nv_memory_protection_key();
1152:application-library/ili9341-lcd/ili9341.c **** /* 8.3.22. NV Memory Status Read (D2h) */
1153:application-library/ili9341-lcd/ili9341.c **** void ili9341_nv_memory_status_read();
1154:application-library/ili9341-lcd/ili9341.c **** 
1155:application-library/ili9341-lcd/ili9341.c **** 
1156:application-library/ili9341-lcd/ili9341.c **** /**
1157:application-library/ili9341-lcd/ili9341.c ****   * @brief 8.3.23. Read ID4 (D3h) 
1158:application-library/ili9341-lcd/ili9341.c ****   *        Read LCD Controller Chip (ILI9341) ID. 
1159:application-library/ili9341-lcd/ili9341.c ****   * @note  It has been tested that some display modules has all manufacturer/version set to 0.
1160:application-library/ili9341-lcd/ili9341.c ****   *        Thus a more trustworthy way to test 8080 Read is to read the controller IC (ILI9341)'s I
1161:application-library/ili9341-lcd/ili9341.c ****   */
1162:application-library/ili9341-lcd/ili9341.c **** void ili9341_get_id4(uint8_t* p_read_data) 
1163:application-library/ili9341-lcd/ili9341.c **** {
 2985              		.loc 1 1163 0
 2986              		.cfi_startproc
 2987              		@ args = 0, pretend = 0, frame = 64
 2988              		@ frame_needed = 0, uses_anonymous_args = 0
 2989              	.LVL197:
 2990 0000 70B5     		push	{r4, r5, r6, lr}
 2991              	.LCFI99:
 2992              		.cfi_def_cfa_offset 16
 2993              		.cfi_offset 4, -16
 2994              		.cfi_offset 5, -12
 2995              		.cfi_offset 6, -8
 2996              		.cfi_offset 14, -4
 2997 0002 92B0     		sub	sp, sp, #72
 2998              	.LCFI100:
 2999              		.cfi_def_cfa_offset 88
 3000 0004 0646     		mov	r6, r0
1164:application-library/ili9341-lcd/ili9341.c ****   bus_8080_read_register(0xD3, 4, p_read_data);
 3001              		.loc 1 1164 0
 3002 0006 0246     		mov	r2, r0
 3003 0008 0421     		movs	r1, #4
 3004 000a D320     		movs	r0, #211
 3005              	.LVL198:
 3006 000c FFF7FEFF 		bl	bus_8080_read_register
 3007              	.LVL199:
1165:application-library/ili9341-lcd/ili9341.c ****  
1166:application-library/ili9341-lcd/ili9341.c ****   #if defined ILI9341_DEBUG
1167:application-library/ili9341-lcd/ili9341.c ****   char msg[64];
1168:application-library/ili9341-lcd/ili9341.c ****   sprintf(msg, "- Printing id4 register value -\n");
 3008              		.loc 1 1168 0
 3009 0010 02AC     		add	r4, sp, #8
 3010 0012 0B4D     		ldr	r5, .L182
 3011 0014 0FCD     		ldmia	r5!, {r0, r1, r2, r3}
 3012 0016 0FC4     		stmia	r4!, {r0, r1, r2, r3}
 3013 0018 0FCD     		ldmia	r5!, {r0, r1, r2, r3}
 3014 001a 0FC4     		stmia	r4!, {r0, r1, r2, r3}
 3015 001c 2B68     		ldr	r3, [r5]
 3016 001e 2370     		strb	r3, [r4]
1169:application-library/ili9341-lcd/ili9341.c ****   serial_print(msg);
 3017              		.loc 1 1169 0
 3018 0020 02A8     		add	r0, sp, #8
 3019 0022 FFF7FEFF 		bl	serial_print
ARM GAS  /tmp/ccoB52Ks.s 			page 72


 3020              	.LVL200:
1170:application-library/ili9341-lcd/ili9341.c ****   sprintf(msg, "ili9341 ic version: %d \nIC model: 0x%02x%02x\n", p_read_data[1], p_read_data[2], p
 3021              		.loc 1 1170 0
 3022 0026 7278     		ldrb	r2, [r6, #1]	@ zero_extendqisi2
 3023 0028 B378     		ldrb	r3, [r6, #2]	@ zero_extendqisi2
 3024 002a F178     		ldrb	r1, [r6, #3]	@ zero_extendqisi2
 3025 002c 0091     		str	r1, [sp]
 3026 002e 0549     		ldr	r1, .L182+4
 3027 0030 02A8     		add	r0, sp, #8
 3028 0032 FFF7FEFF 		bl	sprintf
 3029              	.LVL201:
1171:application-library/ili9341-lcd/ili9341.c ****   serial_print(msg);
 3030              		.loc 1 1171 0
 3031 0036 02A8     		add	r0, sp, #8
 3032 0038 FFF7FEFF 		bl	serial_print
 3033              	.LVL202:
1172:application-library/ili9341-lcd/ili9341.c ****   #endif
1173:application-library/ili9341-lcd/ili9341.c **** }
 3034              		.loc 1 1173 0
 3035 003c 12B0     		add	sp, sp, #72
 3036              	.LCFI101:
 3037              		.cfi_def_cfa_offset 16
 3038              		@ sp needed
 3039 003e 70BD     		pop	{r4, r5, r6, pc}
 3040              	.LVL203:
 3041              	.L183:
 3042              		.align	2
 3043              	.L182:
 3044 0040 00000000 		.word	.LC27
 3045 0044 24000000 		.word	.LC28
 3046              		.cfi_endproc
 3047              	.LFE204:
 3049              		.section	.text.ili9341_set_power_control_a,"ax",%progbits
 3050              		.align	1
 3051              		.global	ili9341_set_power_control_a
 3052              		.syntax unified
 3053              		.thumb
 3054              		.thumb_func
 3055              		.fpu fpv4-sp-d16
 3057              	ili9341_set_power_control_a:
 3058              	.LFB205:
1174:application-library/ili9341-lcd/ili9341.c **** 
1175:application-library/ili9341-lcd/ili9341.c **** /* 8.3.24. Positive Gamma Correction (E0h) */
1176:application-library/ili9341-lcd/ili9341.c **** void ili9341_positive_gamma_correction();
1177:application-library/ili9341-lcd/ili9341.c **** /* 8.3.25. Negative Gamma Correction (E1h) */
1178:application-library/ili9341-lcd/ili9341.c **** void ili9341_negative_gamma_correction();
1179:application-library/ili9341-lcd/ili9341.c **** /* 8.3.26. Digital Gamma Control 1 (E2h) */
1180:application-library/ili9341-lcd/ili9341.c **** void ili9341_digital_gamma_control_1();
1181:application-library/ili9341-lcd/ili9341.c **** /* 8.3.27. Digital Gamma Control 2(E3h) */
1182:application-library/ili9341-lcd/ili9341.c **** void ili9341_digital_gamma_control_2();
1183:application-library/ili9341-lcd/ili9341.c **** /* 8.3.28. Interface Control (F6h)  */
1184:application-library/ili9341-lcd/ili9341.c **** void ili9341_interface_control();
1185:application-library/ili9341-lcd/ili9341.c **** 
1186:application-library/ili9341-lcd/ili9341.c **** /* 8.4.1 Power control A (CBh) */
1187:application-library/ili9341-lcd/ili9341.c **** /** 
1188:application-library/ili9341-lcd/ili9341.c ****   * @brief Set Power Control A. 
1189:application-library/ili9341-lcd/ili9341.c ****   */
ARM GAS  /tmp/ccoB52Ks.s 			page 73


1190:application-library/ili9341-lcd/ili9341.c **** void ili9341_set_power_control_a()
1191:application-library/ili9341-lcd/ili9341.c **** {
 3059              		.loc 1 1191 0
 3060              		.cfi_startproc
 3061              		@ args = 0, pretend = 0, frame = 8
 3062              		@ frame_needed = 0, uses_anonymous_args = 0
 3063 0000 00B5     		push	{lr}
 3064              	.LCFI102:
 3065              		.cfi_def_cfa_offset 4
 3066              		.cfi_offset 14, -4
 3067 0002 83B0     		sub	sp, sp, #12
 3068              	.LCFI103:
 3069              		.cfi_def_cfa_offset 16
1192:application-library/ili9341-lcd/ili9341.c ****   /* Vcore = 1.6V DDVDH = 5.6V. */
1193:application-library/ili9341-lcd/ili9341.c ****   uint8_t p_param[5] = {0x39, 0x2C, 0x00, 0x34, 0x02};
 3070              		.loc 1 1193 0
 3071 0004 064B     		ldr	r3, .L186
 3072 0006 93E80300 		ldm	r3, {r0, r1}
 3073 000a 0090     		str	r0, [sp]
 3074 000c 8DF80410 		strb	r1, [sp, #4]
1194:application-library/ili9341-lcd/ili9341.c ****   bus_8080_write_register(0xCB, 5, p_param);
 3075              		.loc 1 1194 0
 3076 0010 6A46     		mov	r2, sp
 3077 0012 0521     		movs	r1, #5
 3078 0014 CB20     		movs	r0, #203
 3079 0016 FFF7FEFF 		bl	bus_8080_write_register
 3080              	.LVL204:
1195:application-library/ili9341-lcd/ili9341.c **** }
 3081              		.loc 1 1195 0
 3082 001a 03B0     		add	sp, sp, #12
 3083              	.LCFI104:
 3084              		.cfi_def_cfa_offset 4
 3085              		@ sp needed
 3086 001c 5DF804FB 		ldr	pc, [sp], #4
 3087              	.L187:
 3088              		.align	2
 3089              	.L186:
 3090 0020 04000000 		.word	.LANCHOR0+4
 3091              		.cfi_endproc
 3092              	.LFE205:
 3094              		.section	.text.ili9341_set_power_control_b,"ax",%progbits
 3095              		.align	1
 3096              		.global	ili9341_set_power_control_b
 3097              		.syntax unified
 3098              		.thumb
 3099              		.thumb_func
 3100              		.fpu fpv4-sp-d16
 3102              	ili9341_set_power_control_b:
 3103              	.LFB206:
1196:application-library/ili9341-lcd/ili9341.c **** 
1197:application-library/ili9341-lcd/ili9341.c **** /* 8.4.2 Power control B (CFh) */ 
1198:application-library/ili9341-lcd/ili9341.c **** void ili9341_set_power_control_b()
1199:application-library/ili9341-lcd/ili9341.c **** {
 3104              		.loc 1 1199 0
 3105              		.cfi_startproc
 3106              		@ args = 0, pretend = 0, frame = 8
 3107              		@ frame_needed = 0, uses_anonymous_args = 0
ARM GAS  /tmp/ccoB52Ks.s 			page 74


 3108 0000 00B5     		push	{lr}
 3109              	.LCFI105:
 3110              		.cfi_def_cfa_offset 4
 3111              		.cfi_offset 14, -4
 3112 0002 83B0     		sub	sp, sp, #12
 3113              	.LCFI106:
 3114              		.cfi_def_cfa_offset 16
1200:application-library/ili9341-lcd/ili9341.c ****   uint8_t p_param[3] = {0x00, 0xC1, 0x30};
 3115              		.loc 1 1200 0
 3116 0004 074B     		ldr	r3, .L190
 3117 0006 DB68     		ldr	r3, [r3, #12]
 3118 0008 ADF80430 		strh	r3, [sp, #4]	@ movhi
 3119 000c 1B0C     		lsrs	r3, r3, #16
 3120 000e 8DF80630 		strb	r3, [sp, #6]
1201:application-library/ili9341-lcd/ili9341.c ****   bus_8080_write_register(0xCF, 3, p_param);
 3121              		.loc 1 1201 0
 3122 0012 01AA     		add	r2, sp, #4
 3123 0014 0321     		movs	r1, #3
 3124 0016 CF20     		movs	r0, #207
 3125 0018 FFF7FEFF 		bl	bus_8080_write_register
 3126              	.LVL205:
1202:application-library/ili9341-lcd/ili9341.c **** }
 3127              		.loc 1 1202 0
 3128 001c 03B0     		add	sp, sp, #12
 3129              	.LCFI107:
 3130              		.cfi_def_cfa_offset 4
 3131              		@ sp needed
 3132 001e 5DF804FB 		ldr	pc, [sp], #4
 3133              	.L191:
 3134 0022 00BF     		.align	2
 3135              	.L190:
 3136 0024 00000000 		.word	.LANCHOR0
 3137              		.cfi_endproc
 3138              	.LFE206:
 3140              		.section	.text.ili9341_set_driver_timing_control_a,"ax",%progbits
 3141              		.align	1
 3142              		.global	ili9341_set_driver_timing_control_a
 3143              		.syntax unified
 3144              		.thumb
 3145              		.thumb_func
 3146              		.fpu fpv4-sp-d16
 3148              	ili9341_set_driver_timing_control_a:
 3149              	.LFB207:
1203:application-library/ili9341-lcd/ili9341.c **** 
1204:application-library/ili9341-lcd/ili9341.c **** /* 8.4.3 Driver timing control A (E8h) */ 
1205:application-library/ili9341-lcd/ili9341.c **** void ili9341_set_driver_timing_control_a()
1206:application-library/ili9341-lcd/ili9341.c **** {
 3150              		.loc 1 1206 0
 3151              		.cfi_startproc
 3152              		@ args = 0, pretend = 0, frame = 8
 3153              		@ frame_needed = 0, uses_anonymous_args = 0
 3154 0000 00B5     		push	{lr}
 3155              	.LCFI108:
 3156              		.cfi_def_cfa_offset 4
 3157              		.cfi_offset 14, -4
 3158 0002 83B0     		sub	sp, sp, #12
 3159              	.LCFI109:
ARM GAS  /tmp/ccoB52Ks.s 			page 75


 3160              		.cfi_def_cfa_offset 16
1207:application-library/ili9341-lcd/ili9341.c ****   uint8_t p_param[3] = {0x85, 0x00, 0x78};
 3161              		.loc 1 1207 0
 3162 0004 074B     		ldr	r3, .L194
 3163 0006 1B69     		ldr	r3, [r3, #16]
 3164 0008 ADF80430 		strh	r3, [sp, #4]	@ movhi
 3165 000c 1B0C     		lsrs	r3, r3, #16
 3166 000e 8DF80630 		strb	r3, [sp, #6]
1208:application-library/ili9341-lcd/ili9341.c ****   bus_8080_write_register(0xE8, 3, p_param);
 3167              		.loc 1 1208 0
 3168 0012 01AA     		add	r2, sp, #4
 3169 0014 0321     		movs	r1, #3
 3170 0016 E820     		movs	r0, #232
 3171 0018 FFF7FEFF 		bl	bus_8080_write_register
 3172              	.LVL206:
1209:application-library/ili9341-lcd/ili9341.c **** }
 3173              		.loc 1 1209 0
 3174 001c 03B0     		add	sp, sp, #12
 3175              	.LCFI110:
 3176              		.cfi_def_cfa_offset 4
 3177              		@ sp needed
 3178 001e 5DF804FB 		ldr	pc, [sp], #4
 3179              	.L195:
 3180 0022 00BF     		.align	2
 3181              	.L194:
 3182 0024 00000000 		.word	.LANCHOR0
 3183              		.cfi_endproc
 3184              	.LFE207:
 3186              		.section	.text.ili9341_set_driver_timing_control_b,"ax",%progbits
 3187              		.align	1
 3188              		.global	ili9341_set_driver_timing_control_b
 3189              		.syntax unified
 3190              		.thumb
 3191              		.thumb_func
 3192              		.fpu fpv4-sp-d16
 3194              	ili9341_set_driver_timing_control_b:
 3195              	.LFB208:
1210:application-library/ili9341-lcd/ili9341.c **** 
1211:application-library/ili9341-lcd/ili9341.c **** 
1212:application-library/ili9341-lcd/ili9341.c **** /* 8.4.5 Driver timing control B (EAh) */ 
1213:application-library/ili9341-lcd/ili9341.c **** void ili9341_set_driver_timing_control_b()
1214:application-library/ili9341-lcd/ili9341.c **** {
 3196              		.loc 1 1214 0
 3197              		.cfi_startproc
 3198              		@ args = 0, pretend = 0, frame = 8
 3199              		@ frame_needed = 0, uses_anonymous_args = 0
 3200 0000 00B5     		push	{lr}
 3201              	.LCFI111:
 3202              		.cfi_def_cfa_offset 4
 3203              		.cfi_offset 14, -4
 3204 0002 83B0     		sub	sp, sp, #12
 3205              	.LCFI112:
 3206              		.cfi_def_cfa_offset 16
1215:application-library/ili9341-lcd/ili9341.c **** 
1216:application-library/ili9341-lcd/ili9341.c ****   uint8_t p_param[2] = {0x00, 0x00};
 3207              		.loc 1 1216 0
 3208 0004 0023     		movs	r3, #0
ARM GAS  /tmp/ccoB52Ks.s 			page 76


 3209 0006 8DF80430 		strb	r3, [sp, #4]
 3210 000a 8DF80530 		strb	r3, [sp, #5]
1217:application-library/ili9341-lcd/ili9341.c ****   bus_8080_write_register(0xEA, 2, p_param);
 3211              		.loc 1 1217 0
 3212 000e 01AA     		add	r2, sp, #4
 3213 0010 0221     		movs	r1, #2
 3214 0012 EA20     		movs	r0, #234
 3215 0014 FFF7FEFF 		bl	bus_8080_write_register
 3216              	.LVL207:
1218:application-library/ili9341-lcd/ili9341.c **** }
 3217              		.loc 1 1218 0
 3218 0018 03B0     		add	sp, sp, #12
 3219              	.LCFI113:
 3220              		.cfi_def_cfa_offset 4
 3221              		@ sp needed
 3222 001a 5DF804FB 		ldr	pc, [sp], #4
 3223              		.cfi_endproc
 3224              	.LFE208:
 3226              		.section	.text.ili9341_set_poweron_sequence_control,"ax",%progbits
 3227              		.align	1
 3228              		.global	ili9341_set_poweron_sequence_control
 3229              		.syntax unified
 3230              		.thumb
 3231              		.thumb_func
 3232              		.fpu fpv4-sp-d16
 3234              	ili9341_set_poweron_sequence_control:
 3235              	.LFB209:
1219:application-library/ili9341-lcd/ili9341.c **** 
1220:application-library/ili9341-lcd/ili9341.c **** /* 8.4.6 Power on sequence control (EDh) */ 
1221:application-library/ili9341-lcd/ili9341.c **** void ili9341_set_poweron_sequence_control()
1222:application-library/ili9341-lcd/ili9341.c **** {
 3236              		.loc 1 1222 0
 3237              		.cfi_startproc
 3238              		@ args = 0, pretend = 0, frame = 0
 3239              		@ frame_needed = 0, uses_anonymous_args = 0
 3240              		@ link register save eliminated.
 3241 0000 7047     		bx	lr
 3242              		.cfi_endproc
 3243              	.LFE209:
 3245              		.section	.text.ili9341_enable_3G,"ax",%progbits
 3246              		.align	1
 3247              		.global	ili9341_enable_3G
 3248              		.syntax unified
 3249              		.thumb
 3250              		.thumb_func
 3251              		.fpu fpv4-sp-d16
 3253              	ili9341_enable_3G:
 3254              	.LFB210:
1223:application-library/ili9341-lcd/ili9341.c **** 
1224:application-library/ili9341-lcd/ili9341.c **** }
1225:application-library/ili9341-lcd/ili9341.c **** /* 8.4.7 Enable 3G (F2h) */
1226:application-library/ili9341-lcd/ili9341.c **** void ili9341_enable_3G()
1227:application-library/ili9341-lcd/ili9341.c **** {
 3255              		.loc 1 1227 0
 3256              		.cfi_startproc
 3257              		@ args = 0, pretend = 0, frame = 0
 3258              		@ frame_needed = 0, uses_anonymous_args = 0
ARM GAS  /tmp/ccoB52Ks.s 			page 77


 3259              		@ link register save eliminated.
 3260 0000 7047     		bx	lr
 3261              		.cfi_endproc
 3262              	.LFE210:
 3264              		.section	.text.ili9341_set_frame_rate_control,"ax",%progbits
 3265              		.align	1
 3266              		.global	ili9341_set_frame_rate_control
 3267              		.syntax unified
 3268              		.thumb
 3269              		.thumb_func
 3270              		.fpu fpv4-sp-d16
 3272              	ili9341_set_frame_rate_control:
 3273              	.LFB211:
1228:application-library/ili9341-lcd/ili9341.c **** 
1229:application-library/ili9341-lcd/ili9341.c **** }
1230:application-library/ili9341-lcd/ili9341.c **** 
1231:application-library/ili9341-lcd/ili9341.c **** void ili9341_set_frame_rate_control()
1232:application-library/ili9341-lcd/ili9341.c **** {
 3274              		.loc 1 1232 0
 3275              		.cfi_startproc
 3276              		@ args = 0, pretend = 0, frame = 8
 3277              		@ frame_needed = 0, uses_anonymous_args = 0
 3278              		.loc 1 1232 0
 3279 0000 00B5     		push	{lr}
 3280              	.LCFI114:
 3281              		.cfi_def_cfa_offset 4
 3282              		.cfi_offset 14, -4
 3283 0002 83B0     		sub	sp, sp, #12
 3284              	.LCFI115:
 3285              		.cfi_def_cfa_offset 16
1233:application-library/ili9341-lcd/ili9341.c ****   uint8_t p_param[2] = {0x00, 0x10};
 3286              		.loc 1 1233 0
 3287 0004 0023     		movs	r3, #0
 3288 0006 8DF80430 		strb	r3, [sp, #4]
 3289 000a 1023     		movs	r3, #16
 3290 000c 8DF80530 		strb	r3, [sp, #5]
1234:application-library/ili9341-lcd/ili9341.c ****   bus_8080_write_register(0xB1, 2, p_param);
 3291              		.loc 1 1234 0
 3292 0010 01AA     		add	r2, sp, #4
 3293 0012 0221     		movs	r1, #2
 3294 0014 B120     		movs	r0, #177
 3295 0016 FFF7FEFF 		bl	bus_8080_write_register
 3296              	.LVL208:
1235:application-library/ili9341-lcd/ili9341.c **** }
 3297              		.loc 1 1235 0
 3298 001a 03B0     		add	sp, sp, #12
 3299              	.LCFI116:
 3300              		.cfi_def_cfa_offset 4
 3301              		@ sp needed
 3302 001c 5DF804FB 		ldr	pc, [sp], #4
 3303              		.cfi_endproc
 3304              	.LFE211:
 3306              		.section	.text.ili9341_set_display_function_control,"ax",%progbits
 3307              		.align	1
 3308              		.global	ili9341_set_display_function_control
 3309              		.syntax unified
 3310              		.thumb
ARM GAS  /tmp/ccoB52Ks.s 			page 78


 3311              		.thumb_func
 3312              		.fpu fpv4-sp-d16
 3314              	ili9341_set_display_function_control:
 3315              	.LFB212:
1236:application-library/ili9341-lcd/ili9341.c **** 
1237:application-library/ili9341-lcd/ili9341.c **** void ili9341_set_display_function_control()
1238:application-library/ili9341-lcd/ili9341.c **** {
 3316              		.loc 1 1238 0
 3317              		.cfi_startproc
 3318              		@ args = 0, pretend = 0, frame = 8
 3319              		@ frame_needed = 0, uses_anonymous_args = 0
 3320 0000 00B5     		push	{lr}
 3321              	.LCFI117:
 3322              		.cfi_def_cfa_offset 4
 3323              		.cfi_offset 14, -4
 3324 0002 83B0     		sub	sp, sp, #12
 3325              	.LCFI118:
 3326              		.cfi_def_cfa_offset 16
1239:application-library/ili9341-lcd/ili9341.c ****   uint8_t p_param[3] = {0x08, 0x82, 0x27};
 3327              		.loc 1 1239 0
 3328 0004 074B     		ldr	r3, .L204
 3329 0006 5B69     		ldr	r3, [r3, #20]
 3330 0008 ADF80430 		strh	r3, [sp, #4]	@ movhi
 3331 000c 1B0C     		lsrs	r3, r3, #16
 3332 000e 8DF80630 		strb	r3, [sp, #6]
1240:application-library/ili9341-lcd/ili9341.c ****   bus_8080_write_register(0xB6, 3, p_param);
 3333              		.loc 1 1240 0
 3334 0012 01AA     		add	r2, sp, #4
 3335 0014 0321     		movs	r1, #3
 3336 0016 B620     		movs	r0, #182
 3337 0018 FFF7FEFF 		bl	bus_8080_write_register
 3338              	.LVL209:
1241:application-library/ili9341-lcd/ili9341.c **** }
 3339              		.loc 1 1241 0
 3340 001c 03B0     		add	sp, sp, #12
 3341              	.LCFI119:
 3342              		.cfi_def_cfa_offset 4
 3343              		@ sp needed
 3344 001e 5DF804FB 		ldr	pc, [sp], #4
 3345              	.L205:
 3346 0022 00BF     		.align	2
 3347              	.L204:
 3348 0024 00000000 		.word	.LANCHOR0
 3349              		.cfi_endproc
 3350              	.LFE212:
 3352              		.section	.text.ili9341_set_poweron_sequence_control_b,"ax",%progbits
 3353              		.align	1
 3354              		.global	ili9341_set_poweron_sequence_control_b
 3355              		.syntax unified
 3356              		.thumb
 3357              		.thumb_func
 3358              		.fpu fpv4-sp-d16
 3360              	ili9341_set_poweron_sequence_control_b:
 3361              	.LFB213:
1242:application-library/ili9341-lcd/ili9341.c **** 
1243:application-library/ili9341-lcd/ili9341.c **** 
1244:application-library/ili9341-lcd/ili9341.c **** 
ARM GAS  /tmp/ccoB52Ks.s 			page 79


1245:application-library/ili9341-lcd/ili9341.c **** void ili9341_set_poweron_sequence_control_b()
1246:application-library/ili9341-lcd/ili9341.c **** {
 3362              		.loc 1 1246 0
 3363              		.cfi_startproc
 3364              		@ args = 0, pretend = 0, frame = 8
 3365              		@ frame_needed = 0, uses_anonymous_args = 0
 3366 0000 00B5     		push	{lr}
 3367              	.LCFI120:
 3368              		.cfi_def_cfa_offset 4
 3369              		.cfi_offset 14, -4
 3370 0002 83B0     		sub	sp, sp, #12
 3371              	.LCFI121:
 3372              		.cfi_def_cfa_offset 16
1247:application-library/ili9341-lcd/ili9341.c ****   uint8_t p_param[4] = {0x64, 0x03, 0x12, 0x81};
 3373              		.loc 1 1247 0
 3374 0004 054B     		ldr	r3, .L208
 3375 0006 9B69     		ldr	r3, [r3, #24]
 3376 0008 02AA     		add	r2, sp, #8
 3377 000a 42F8043D 		str	r3, [r2, #-4]!
1248:application-library/ili9341-lcd/ili9341.c ****   bus_8080_write_register(0xED, 4, p_param);
 3378              		.loc 1 1248 0
 3379 000e 0421     		movs	r1, #4
 3380 0010 ED20     		movs	r0, #237
 3381 0012 FFF7FEFF 		bl	bus_8080_write_register
 3382              	.LVL210:
1249:application-library/ili9341-lcd/ili9341.c **** }
 3383              		.loc 1 1249 0
 3384 0016 03B0     		add	sp, sp, #12
 3385              	.LCFI122:
 3386              		.cfi_def_cfa_offset 4
 3387              		@ sp needed
 3388 0018 5DF804FB 		ldr	pc, [sp], #4
 3389              	.L209:
 3390              		.align	2
 3391              	.L208:
 3392 001c 00000000 		.word	.LANCHOR0
 3393              		.cfi_endproc
 3394              	.LFE213:
 3396              		.section	.text.ili9341_set_pump_ratio_control,"ax",%progbits
 3397              		.align	1
 3398              		.global	ili9341_set_pump_ratio_control
 3399              		.syntax unified
 3400              		.thumb
 3401              		.thumb_func
 3402              		.fpu fpv4-sp-d16
 3404              	ili9341_set_pump_ratio_control:
 3405              	.LFB214:
1250:application-library/ili9341-lcd/ili9341.c **** 
1251:application-library/ili9341-lcd/ili9341.c **** /**/
1252:application-library/ili9341-lcd/ili9341.c **** void ili9341_set_pump_ratio_control()
1253:application-library/ili9341-lcd/ili9341.c **** {
 3406              		.loc 1 1253 0
 3407              		.cfi_startproc
 3408              		@ args = 0, pretend = 0, frame = 8
 3409              		@ frame_needed = 0, uses_anonymous_args = 0
 3410 0000 00B5     		push	{lr}
 3411              	.LCFI123:
ARM GAS  /tmp/ccoB52Ks.s 			page 80


 3412              		.cfi_def_cfa_offset 4
 3413              		.cfi_offset 14, -4
 3414 0002 83B0     		sub	sp, sp, #12
 3415              	.LCFI124:
 3416              		.cfi_def_cfa_offset 16
1254:application-library/ili9341-lcd/ili9341.c ****   uint8_t p_param[1] = {0x20};
 3417              		.loc 1 1254 0
 3418 0004 02AA     		add	r2, sp, #8
 3419 0006 2023     		movs	r3, #32
 3420 0008 02F8043D 		strb	r3, [r2, #-4]!
1255:application-library/ili9341-lcd/ili9341.c ****   bus_8080_write_register(0xF7, 1, p_param);
 3421              		.loc 1 1255 0
 3422 000c 0121     		movs	r1, #1
 3423 000e F720     		movs	r0, #247
 3424 0010 FFF7FEFF 		bl	bus_8080_write_register
 3425              	.LVL211:
1256:application-library/ili9341-lcd/ili9341.c **** }
 3426              		.loc 1 1256 0
 3427 0014 03B0     		add	sp, sp, #12
 3428              	.LCFI125:
 3429              		.cfi_def_cfa_offset 4
 3430              		@ sp needed
 3431 0016 5DF804FB 		ldr	pc, [sp], #4
 3432              		.cfi_endproc
 3433              	.LFE214:
 3435              		.section	.text.ili9341_init,"ax",%progbits
 3436              		.align	1
 3437              		.global	ili9341_init
 3438              		.syntax unified
 3439              		.thumb
 3440              		.thumb_func
 3441              		.fpu fpv4-sp-d16
 3443              	ili9341_init:
 3444              	.LFB215:
1257:application-library/ili9341-lcd/ili9341.c **** 
1258:application-library/ili9341-lcd/ili9341.c **** 
1259:application-library/ili9341-lcd/ili9341.c **** 
1260:application-library/ili9341-lcd/ili9341.c **** void ili9341_init()
1261:application-library/ili9341-lcd/ili9341.c **** {
 3445              		.loc 1 1261 0
 3446              		.cfi_startproc
 3447              		@ args = 0, pretend = 0, frame = 0
 3448              		@ frame_needed = 0, uses_anonymous_args = 0
 3449 0000 08B5     		push	{r3, lr}
 3450              	.LCFI126:
 3451              		.cfi_def_cfa_offset 8
 3452              		.cfi_offset 3, -8
 3453              		.cfi_offset 14, -4
1262:application-library/ili9341-lcd/ili9341.c ****   ili9341_hard_reset();
 3454              		.loc 1 1262 0
 3455 0002 FFF7FEFF 		bl	ili9341_hard_reset
 3456              	.LVL212:
1263:application-library/ili9341-lcd/ili9341.c ****   //ili9341_set_power_control_a();
1264:application-library/ili9341-lcd/ili9341.c ****   //ili9341_set_power_control_b();
1265:application-library/ili9341-lcd/ili9341.c ****   //ili9341_set_driver_timing_control_a();
1266:application-library/ili9341-lcd/ili9341.c ****   //ili9341_set_driver_timing_control_b();
1267:application-library/ili9341-lcd/ili9341.c ****   //li9341_set_poweron_sequence_control_b();
ARM GAS  /tmp/ccoB52Ks.s 			page 81


1268:application-library/ili9341-lcd/ili9341.c ****   //ili9341_set_pump_ratio_control();
1269:application-library/ili9341-lcd/ili9341.c ****   //ili9341_set_power_control1();
1270:application-library/ili9341-lcd/ili9341.c ****   //ili9341_set_power_control2();
1271:application-library/ili9341-lcd/ili9341.c ****   ili9341_set_vcom_control1();
 3457              		.loc 1 1271 0
 3458 0006 FFF7FEFF 		bl	ili9341_set_vcom_control1
 3459              	.LVL213:
1272:application-library/ili9341-lcd/ili9341.c ****   ili9341_set_vcom_control2();
 3460              		.loc 1 1272 0
 3461 000a FFF7FEFF 		bl	ili9341_set_vcom_control2
 3462              	.LVL214:
1273:application-library/ili9341-lcd/ili9341.c ****   ili9341_set_memory_access_control();
 3463              		.loc 1 1273 0
 3464 000e FFF7FEFF 		bl	ili9341_set_memory_access_control
 3465              	.LVL215:
1274:application-library/ili9341-lcd/ili9341.c ****   ili9341_set_pixel_format_set();
 3466              		.loc 1 1274 0
 3467 0012 FFF7FEFF 		bl	ili9341_set_pixel_format_set
 3468              	.LVL216:
1275:application-library/ili9341-lcd/ili9341.c ****   // ili9341_set_frame_rate_control();
1276:application-library/ili9341-lcd/ili9341.c ****   // ili9341_set_display_function_control();
1277:application-library/ili9341-lcd/ili9341.c ****   ili9341_exit_sleep_mode();
 3469              		.loc 1 1277 0
 3470 0016 FFF7FEFF 		bl	ili9341_exit_sleep_mode
 3471              	.LVL217:
1278:application-library/ili9341-lcd/ili9341.c ****   ili9341_set_display_on();
 3472              		.loc 1 1278 0
 3473 001a FFF7FEFF 		bl	ili9341_set_display_on
 3474              	.LVL218:
1279:application-library/ili9341-lcd/ili9341.c ****   ili9341_memory_write();
 3475              		.loc 1 1279 0
 3476 001e FFF7FEFF 		bl	ili9341_memory_write
 3477              	.LVL219:
 3478 0022 08BD     		pop	{r3, pc}
 3479              		.cfi_endproc
 3480              	.LFE215:
 3482              		.section	.text.ili9341_set_frame_address,"ax",%progbits
 3483              		.align	1
 3484              		.global	ili9341_set_frame_address
 3485              		.syntax unified
 3486              		.thumb
 3487              		.thumb_func
 3488              		.fpu fpv4-sp-d16
 3490              	ili9341_set_frame_address:
 3491              	.LFB216:
1280:application-library/ili9341-lcd/ili9341.c **** }
1281:application-library/ili9341-lcd/ili9341.c **** 
1282:application-library/ili9341-lcd/ili9341.c **** /**
1283:application-library/ili9341-lcd/ili9341.c ****   * @brief Send to ILI9341 the define area of frame memory where MCU can access.
1284:application-library/ili9341-lcd/ili9341.c ****   * @note  Refer to state diagram in ILI9341 Version V1.11 Section 8.8.20, Column Address Set.
1285:application-library/ili9341-lcd/ili9341.c ****   */
1286:application-library/ili9341-lcd/ili9341.c **** void ili9341_set_frame_address(uint16_t x1,uint16_t y1,uint16_t x2,uint16_t y2)
1287:application-library/ili9341-lcd/ili9341.c **** {
 3492              		.loc 1 1287 0
 3493              		.cfi_startproc
 3494              		@ args = 0, pretend = 0, frame = 0
 3495              		@ frame_needed = 0, uses_anonymous_args = 0
ARM GAS  /tmp/ccoB52Ks.s 			page 82


 3496              	.LVL220:
 3497 0000 38B5     		push	{r3, r4, r5, lr}
 3498              	.LCFI127:
 3499              		.cfi_def_cfa_offset 16
 3500              		.cfi_offset 3, -16
 3501              		.cfi_offset 4, -12
 3502              		.cfi_offset 5, -8
 3503              		.cfi_offset 14, -4
 3504 0002 0C46     		mov	r4, r1
 3505 0004 1D46     		mov	r5, r3
1288:application-library/ili9341-lcd/ili9341.c ****   ili9341_set_column_address(x1, x2);
 3506              		.loc 1 1288 0
 3507 0006 1146     		mov	r1, r2
 3508              	.LVL221:
 3509 0008 FFF7FEFF 		bl	ili9341_set_column_address
 3510              	.LVL222:
1289:application-library/ili9341-lcd/ili9341.c ****   ili9341_set_page_address(y1, y2);
 3511              		.loc 1 1289 0
 3512 000c 2946     		mov	r1, r5
 3513 000e 2046     		mov	r0, r4
 3514 0010 FFF7FEFF 		bl	ili9341_set_page_address
 3515              	.LVL223:
1290:application-library/ili9341-lcd/ili9341.c ****   ili9341_memory_write();
 3516              		.loc 1 1290 0
 3517 0014 FFF7FEFF 		bl	ili9341_memory_write
 3518              	.LVL224:
 3519 0018 38BD     		pop	{r3, r4, r5, pc}
 3520              		.cfi_endproc
 3521              	.LFE216:
 3523              		.section	.text.lcd_draw_horizontal_line,"ax",%progbits
 3524              		.align	1
 3525              		.global	lcd_draw_horizontal_line
 3526              		.syntax unified
 3527              		.thumb
 3528              		.thumb_func
 3529              		.fpu fpv4-sp-d16
 3531              	lcd_draw_horizontal_line:
 3532              	.LFB217:
1291:application-library/ili9341-lcd/ili9341.c **** }
1292:application-library/ili9341-lcd/ili9341.c **** 
1293:application-library/ili9341-lcd/ili9341.c **** /**
1294:application-library/ili9341-lcd/ili9341.c ****   * @brief Draw a horizontal line.
1295:application-library/ili9341-lcd/ili9341.c ****   */
1296:application-library/ili9341-lcd/ili9341.c **** void lcd_draw_horizontal_line(uint16_t start_coordinate_x, uint16_t start_coordinate_y, uint16_t le
1297:application-library/ili9341-lcd/ili9341.c **** { 
 3533              		.loc 1 1297 0
 3534              		.cfi_startproc
 3535              		@ args = 0, pretend = 0, frame = 0
 3536              		@ frame_needed = 0, uses_anonymous_args = 0
 3537              	.LVL225:
 3538 0000 F8B5     		push	{r3, r4, r5, r6, r7, lr}
 3539              	.LCFI128:
 3540              		.cfi_def_cfa_offset 24
 3541              		.cfi_offset 3, -24
 3542              		.cfi_offset 4, -20
 3543              		.cfi_offset 5, -16
 3544              		.cfi_offset 6, -12
ARM GAS  /tmp/ccoB52Ks.s 			page 83


 3545              		.cfi_offset 7, -8
 3546              		.cfi_offset 14, -4
 3547 0002 0446     		mov	r4, r0
 3548 0004 0F46     		mov	r7, r1
 3549 0006 1646     		mov	r6, r2
 3550 0008 1D46     		mov	r5, r3
1298:application-library/ili9341-lcd/ili9341.c ****   bus_8080_write_command(0x2C);       //write_memory_start
 3551              		.loc 1 1298 0
 3552 000a 2C20     		movs	r0, #44
 3553              	.LVL226:
 3554 000c FFF7FEFF 		bl	bus_8080_write_command
 3555              	.LVL227:
1299:application-library/ili9341-lcd/ili9341.c ****   uint16_t end_coordinate_x = start_coordinate_x + length;
 3556              		.loc 1 1299 0
 3557 0010 A219     		adds	r2, r4, r6
 3558              	.LVL228:
1300:application-library/ili9341-lcd/ili9341.c ****   uint16_t end_coordinate_y = start_coordinate_y;
1301:application-library/ili9341-lcd/ili9341.c **** 
1302:application-library/ili9341-lcd/ili9341.c ****   /* Sets the frame memory area. */
1303:application-library/ili9341-lcd/ili9341.c ****   ili9341_set_frame_address(start_coordinate_x, start_coordinate_y, end_coordinate_x, end_coordinat
 3559              		.loc 1 1303 0
 3560 0012 3B46     		mov	r3, r7
 3561 0014 92B2     		uxth	r2, r2
 3562 0016 3946     		mov	r1, r7
 3563 0018 2046     		mov	r0, r4
 3564 001a FFF7FEFF 		bl	ili9341_set_frame_address
 3565              	.LVL229:
 3566              	.LBB5:
1304:application-library/ili9341-lcd/ili9341.c **** 
1305:application-library/ili9341-lcd/ili9341.c ****   /* Fill with line_color. */
1306:application-library/ili9341-lcd/ili9341.c ****   for(uint16_t i = 1; i<=length; ++i)
 3567              		.loc 1 1306 0
 3568 001e 0124     		movs	r4, #1
 3569              	.LVL230:
 3570 0020 07E0     		b	.L217
 3571              	.LVL231:
 3572              	.L218:
1307:application-library/ili9341-lcd/ili9341.c ****   {
1308:application-library/ili9341-lcd/ili9341.c ****     bus_8080_write_data(line_color >> 8);  /* MSB first. */
 3573              		.loc 1 1308 0 discriminator 3
 3574 0022 280A     		lsrs	r0, r5, #8
 3575 0024 FFF7FEFF 		bl	bus_8080_write_data
 3576              	.LVL232:
1309:application-library/ili9341-lcd/ili9341.c ****     bus_8080_write_data(line_color);      
 3577              		.loc 1 1309 0 discriminator 3
 3578 0028 E8B2     		uxtb	r0, r5
 3579 002a FFF7FEFF 		bl	bus_8080_write_data
 3580              	.LVL233:
1306:application-library/ili9341-lcd/ili9341.c ****   {
 3581              		.loc 1 1306 0 discriminator 3
 3582 002e 0134     		adds	r4, r4, #1
 3583              	.LVL234:
 3584 0030 A4B2     		uxth	r4, r4
 3585              	.LVL235:
 3586              	.L217:
1306:application-library/ili9341-lcd/ili9341.c ****   {
 3587              		.loc 1 1306 0 is_stmt 0 discriminator 1
ARM GAS  /tmp/ccoB52Ks.s 			page 84


 3588 0032 B442     		cmp	r4, r6
 3589 0034 F5D9     		bls	.L218
 3590              	.LBE5:
1310:application-library/ili9341-lcd/ili9341.c ****   }
1311:application-library/ili9341-lcd/ili9341.c **** }
 3591              		.loc 1 1311 0 is_stmt 1
 3592 0036 F8BD     		pop	{r3, r4, r5, r6, r7, pc}
 3593              		.cfi_endproc
 3594              	.LFE217:
 3596              		.section	.text.lcd_draw_vertical_line,"ax",%progbits
 3597              		.align	1
 3598              		.global	lcd_draw_vertical_line
 3599              		.syntax unified
 3600              		.thumb
 3601              		.thumb_func
 3602              		.fpu fpv4-sp-d16
 3604              	lcd_draw_vertical_line:
 3605              	.LFB218:
1312:application-library/ili9341-lcd/ili9341.c **** 
1313:application-library/ili9341-lcd/ili9341.c **** /**
1314:application-library/ili9341-lcd/ili9341.c ****   * Draw a vertical line. Fill color if necessary.
1315:application-library/ili9341-lcd/ili9341.c ****   */
1316:application-library/ili9341-lcd/ili9341.c **** void lcd_draw_vertical_line(uint16_t start_coordinate_x, uint16_t start_coordinate_y, uint16_t leng
1317:application-library/ili9341-lcd/ili9341.c **** { 
 3606              		.loc 1 1317 0
 3607              		.cfi_startproc
 3608              		@ args = 0, pretend = 0, frame = 0
 3609              		@ frame_needed = 0, uses_anonymous_args = 0
 3610              	.LVL236:
 3611 0000 F8B5     		push	{r3, r4, r5, r6, r7, lr}
 3612              	.LCFI129:
 3613              		.cfi_def_cfa_offset 24
 3614              		.cfi_offset 3, -24
 3615              		.cfi_offset 4, -20
 3616              		.cfi_offset 5, -16
 3617              		.cfi_offset 6, -12
 3618              		.cfi_offset 7, -8
 3619              		.cfi_offset 14, -4
 3620 0002 0446     		mov	r4, r0
 3621 0004 0F46     		mov	r7, r1
 3622 0006 1646     		mov	r6, r2
 3623 0008 1D46     		mov	r5, r3
1318:application-library/ili9341-lcd/ili9341.c ****   
1319:application-library/ili9341-lcd/ili9341.c ****   bus_8080_write_command(0x2c); //write_memory_start
 3624              		.loc 1 1319 0
 3625 000a 2C20     		movs	r0, #44
 3626              	.LVL237:
 3627 000c FFF7FEFF 		bl	bus_8080_write_command
 3628              	.LVL238:
1320:application-library/ili9341-lcd/ili9341.c ****   
1321:application-library/ili9341-lcd/ili9341.c ****   uint16_t end_coordinate_x = start_coordinate_x;
1322:application-library/ili9341-lcd/ili9341.c ****   uint16_t end_coordinate_y = start_coordinate_y + length;
 3629              		.loc 1 1322 0
 3630 0010 BB19     		adds	r3, r7, r6
 3631              	.LVL239:
1323:application-library/ili9341-lcd/ili9341.c ****   /* Sets the frame memory area. */
1324:application-library/ili9341-lcd/ili9341.c ****   ili9341_set_frame_address(start_coordinate_x, start_coordinate_y, end_coordinate_x, end_coordinat
ARM GAS  /tmp/ccoB52Ks.s 			page 85


 3632              		.loc 1 1324 0
 3633 0012 9BB2     		uxth	r3, r3
 3634 0014 2246     		mov	r2, r4
 3635 0016 3946     		mov	r1, r7
 3636 0018 2046     		mov	r0, r4
 3637 001a FFF7FEFF 		bl	ili9341_set_frame_address
 3638              	.LVL240:
 3639              	.LBB6:
1325:application-library/ili9341-lcd/ili9341.c **** 
1326:application-library/ili9341-lcd/ili9341.c ****   /* Fill with line_color. */
1327:application-library/ili9341-lcd/ili9341.c ****   for(uint16_t i=1; i<=length; ++i)
 3640              		.loc 1 1327 0
 3641 001e 0124     		movs	r4, #1
 3642              	.LVL241:
 3643 0020 07E0     		b	.L221
 3644              	.LVL242:
 3645              	.L222:
1328:application-library/ili9341-lcd/ili9341.c ****   { 
1329:application-library/ili9341-lcd/ili9341.c ****     bus_8080_write_data(line_color>>8);   
 3646              		.loc 1 1329 0 discriminator 3
 3647 0022 280A     		lsrs	r0, r5, #8
 3648 0024 FFF7FEFF 		bl	bus_8080_write_data
 3649              	.LVL243:
1330:application-library/ili9341-lcd/ili9341.c ****     bus_8080_write_data(line_color);       
 3650              		.loc 1 1330 0 discriminator 3
 3651 0028 E8B2     		uxtb	r0, r5
 3652 002a FFF7FEFF 		bl	bus_8080_write_data
 3653              	.LVL244:
1327:application-library/ili9341-lcd/ili9341.c ****   { 
 3654              		.loc 1 1327 0 discriminator 3
 3655 002e 0134     		adds	r4, r4, #1
 3656              	.LVL245:
 3657 0030 A4B2     		uxth	r4, r4
 3658              	.LVL246:
 3659              	.L221:
1327:application-library/ili9341-lcd/ili9341.c ****   { 
 3660              		.loc 1 1327 0 is_stmt 0 discriminator 1
 3661 0032 B442     		cmp	r4, r6
 3662 0034 F5D9     		bls	.L222
 3663              	.LBE6:
1331:application-library/ili9341-lcd/ili9341.c ****   }
1332:application-library/ili9341-lcd/ili9341.c **** }
 3664              		.loc 1 1332 0 is_stmt 1
 3665 0036 F8BD     		pop	{r3, r4, r5, r6, r7, pc}
 3666              		.cfi_endproc
 3667              	.LFE218:
 3669              		.section	.text.lcd_draw_rectangle_unfilled,"ax",%progbits
 3670              		.align	1
 3671              		.global	lcd_draw_rectangle_unfilled
 3672              		.syntax unified
 3673              		.thumb
 3674              		.thumb_func
 3675              		.fpu fpv4-sp-d16
 3677              	lcd_draw_rectangle_unfilled:
 3678              	.LFB219:
1333:application-library/ili9341-lcd/ili9341.c **** 
1334:application-library/ili9341-lcd/ili9341.c **** /**
ARM GAS  /tmp/ccoB52Ks.s 			page 86


1335:application-library/ili9341-lcd/ili9341.c ****   * @brief Draw an empty rectangle frame.
1336:application-library/ili9341-lcd/ili9341.c ****   * @note  This is equivalent to drawing two vertical lines plus two horizontal lines.
1337:application-library/ili9341-lcd/ili9341.c ****   */
1338:application-library/ili9341-lcd/ili9341.c **** void lcd_draw_rectangle_unfilled(uint16_t start_coordinate_x, uint16_t start_coordinate_y, uint16_t
1339:application-library/ili9341-lcd/ili9341.c **** {
 3679              		.loc 1 1339 0
 3680              		.cfi_startproc
 3681              		@ args = 4, pretend = 0, frame = 0
 3682              		@ frame_needed = 0, uses_anonymous_args = 0
 3683              	.LVL247:
 3684 0000 2DE9F041 		push	{r4, r5, r6, r7, r8, lr}
 3685              	.LCFI130:
 3686              		.cfi_def_cfa_offset 24
 3687              		.cfi_offset 4, -24
 3688              		.cfi_offset 5, -20
 3689              		.cfi_offset 6, -16
 3690              		.cfi_offset 7, -12
 3691              		.cfi_offset 8, -8
 3692              		.cfi_offset 14, -4
 3693 0004 0446     		mov	r4, r0
 3694 0006 0E46     		mov	r6, r1
 3695 0008 9046     		mov	r8, r2
 3696 000a 1F46     		mov	r7, r3
 3697 000c BDF81850 		ldrh	r5, [sp, #24]
1340:application-library/ili9341-lcd/ili9341.c ****   lcd_draw_horizontal_line(start_coordinate_x, start_coordinate_y, rect_width, frame_color);
 3698              		.loc 1 1340 0
 3699 0010 2B46     		mov	r3, r5
 3700              	.LVL248:
 3701 0012 FFF7FEFF 		bl	lcd_draw_horizontal_line
 3702              	.LVL249:
1341:application-library/ili9341-lcd/ili9341.c ****   lcd_draw_horizontal_line(start_coordinate_x, start_coordinate_y + rect_height, rect_width, frame_
 3703              		.loc 1 1341 0
 3704 0016 F119     		adds	r1, r6, r7
 3705 0018 2B46     		mov	r3, r5
 3706 001a 4246     		mov	r2, r8
 3707 001c 89B2     		uxth	r1, r1
 3708 001e 2046     		mov	r0, r4
 3709 0020 FFF7FEFF 		bl	lcd_draw_horizontal_line
 3710              	.LVL250:
1342:application-library/ili9341-lcd/ili9341.c **** 
1343:application-library/ili9341-lcd/ili9341.c ****   lcd_draw_vertical_line(start_coordinate_x, start_coordinate_y, rect_height, frame_color);
 3711              		.loc 1 1343 0
 3712 0024 2B46     		mov	r3, r5
 3713 0026 3A46     		mov	r2, r7
 3714 0028 3146     		mov	r1, r6
 3715 002a 2046     		mov	r0, r4
 3716 002c FFF7FEFF 		bl	lcd_draw_vertical_line
 3717              	.LVL251:
1344:application-library/ili9341-lcd/ili9341.c ****   lcd_draw_vertical_line(start_coordinate_x + rect_width, start_coordinate_y, rect_height, frame_co
 3718              		.loc 1 1344 0
 3719 0030 04EB0800 		add	r0, r4, r8
 3720 0034 2B46     		mov	r3, r5
 3721 0036 3A46     		mov	r2, r7
 3722 0038 3146     		mov	r1, r6
 3723 003a 80B2     		uxth	r0, r0
 3724 003c FFF7FEFF 		bl	lcd_draw_vertical_line
 3725              	.LVL252:
ARM GAS  /tmp/ccoB52Ks.s 			page 87


 3726 0040 BDE8F081 		pop	{r4, r5, r6, r7, r8, pc}
 3727              		.cfi_endproc
 3728              	.LFE219:
 3730              		.section	.text.lcd_draw_rectangle_filled,"ax",%progbits
 3731              		.align	1
 3732              		.global	lcd_draw_rectangle_filled
 3733              		.syntax unified
 3734              		.thumb
 3735              		.thumb_func
 3736              		.fpu fpv4-sp-d16
 3738              	lcd_draw_rectangle_filled:
 3739              	.LFB220:
1345:application-library/ili9341-lcd/ili9341.c **** }
1346:application-library/ili9341-lcd/ili9341.c **** 
1347:application-library/ili9341-lcd/ili9341.c **** /**
1348:application-library/ili9341-lcd/ili9341.c ****   * @brief Draw a solid color-filled rectangle.
1349:application-library/ili9341-lcd/ili9341.c ****   */
1350:application-library/ili9341-lcd/ili9341.c **** void lcd_draw_rectangle_filled(uint16_t start_coordinate_x, uint16_t start_coordinate_y, uint16_t r
1351:application-library/ili9341-lcd/ili9341.c **** {
 3740              		.loc 1 1351 0
 3741              		.cfi_startproc
 3742              		@ args = 4, pretend = 0, frame = 0
 3743              		@ frame_needed = 0, uses_anonymous_args = 0
 3744              	.LVL253:
 3745 0000 2DE9F843 		push	{r3, r4, r5, r6, r7, r8, r9, lr}
 3746              	.LCFI131:
 3747              		.cfi_def_cfa_offset 32
 3748              		.cfi_offset 3, -32
 3749              		.cfi_offset 4, -28
 3750              		.cfi_offset 5, -24
 3751              		.cfi_offset 6, -20
 3752              		.cfi_offset 7, -16
 3753              		.cfi_offset 8, -12
 3754              		.cfi_offset 9, -8
 3755              		.cfi_offset 14, -4
 3756 0004 8146     		mov	r9, r0
 3757 0006 8846     		mov	r8, r1
 3758 0008 1746     		mov	r7, r2
 3759 000a 1D46     		mov	r5, r3
 3760 000c BDF82060 		ldrh	r6, [sp, #32]
 3761              	.LVL254:
 3762              	.LBB7:
1352:application-library/ili9341-lcd/ili9341.c ****   for (uint16_t i = 0; i < rect_height; ++i)
 3763              		.loc 1 1352 0
 3764 0010 0024     		movs	r4, #0
 3765 0012 09E0     		b	.L227
 3766              	.LVL255:
 3767              	.L228:
1353:application-library/ili9341-lcd/ili9341.c ****   {
