ARM GAS  /tmp/ccfNPkge.s 			page 1


   1              		.cpu cortex-m4
   2              		.eabi_attribute 27, 1
   3              		.eabi_attribute 28, 1
   4              		.eabi_attribute 20, 1
   5              		.eabi_attribute 21, 1
   6              		.eabi_attribute 23, 3
   7              		.eabi_attribute 24, 1
   8              		.eabi_attribute 25, 1
   9              		.eabi_attribute 26, 1
  10              		.eabi_attribute 30, 1
  11              		.eabi_attribute 34, 1
  12              		.eabi_attribute 18, 4
  13              		.file	"usb-cdc-device.c"
  14              		.text
  15              	.Ltext0:
  16              		.cfi_sections	.debug_frame
  17              		.section	.text.CDC_DeInit_FS,"ax",%progbits
  18              		.align	1
  19              		.global	CDC_DeInit_FS
  20              		.syntax unified
  21              		.thumb
  22              		.thumb_func
  23              		.fpu fpv4-sp-d16
  25              	CDC_DeInit_FS:
  26              	.LFB133:
  27              		.file 1 "application-library/usb-device/usb-cdc-device.c"
   1:application-library/usb-device/usb-cdc-device.c **** /**
   2:application-library/usb-device/usb-cdc-device.c ****  * @brief usb-cdc-device.c merged four classes: 
   3:application-library/usb-device/usb-cdc-device.c ****  *          1. usbd_cdc_if
   4:application-library/usb-device/usb-cdc-device.c ****  *          2. usb_device
   5:application-library/usb-device/usb-cdc-device.c ****  *          3. usbd_cdc
   6:application-library/usb-device/usb-cdc-device.c ****  *          4. usbd_core
   7:application-library/usb-device/usb-cdc-device.c ****  *          5. usbd_ctlreq
   8:application-library/usb-device/usb-cdc-device.c ****  *          6. usbd_ioreq
   9:application-library/usb-device/usb-cdc-device.c ****  *          7. usbd_conf
  10:application-library/usb-device/usb-cdc-device.c ****  */
  11:application-library/usb-device/usb-cdc-device.c **** 
  12:application-library/usb-device/usb-cdc-device.c **** /* Includes ------------------------------------------------------------------*/
  13:application-library/usb-device/usb-cdc-device.c **** #include "usb-cdc-device.h"
  14:application-library/usb-device/usb-cdc-device.c **** #include "stm32f4xx.h"
  15:application-library/usb-device/usb-cdc-device.c **** #include "stm32f4xx_hal.h"
  16:application-library/usb-device/usb-cdc-device.c **** 
  17:application-library/usb-device/usb-cdc-device.c **** char lcd_string[128] = {'\0'};
  18:application-library/usb-device/usb-cdc-device.c **** 
  19:application-library/usb-device/usb-cdc-device.c **** #define USBD_VID     1155
  20:application-library/usb-device/usb-cdc-device.c **** #define USBD_LANGID_STRING     1033
  21:application-library/usb-device/usb-cdc-device.c **** #define USBD_MANUFACTURER_STRING     "STMicroelectronics"
  22:application-library/usb-device/usb-cdc-device.c **** #define USBD_PID_FS     22336
  23:application-library/usb-device/usb-cdc-device.c **** #define USBD_PRODUCT_STRING_FS     "STM32 Virtual ComPort"
  24:application-library/usb-device/usb-cdc-device.c **** #define USBD_CONFIGURATION_STRING_FS     "CDC Config"
  25:application-library/usb-device/usb-cdc-device.c **** #define USBD_INTERFACE_STRING_FS     "CDC Interface"
  26:application-library/usb-device/usb-cdc-device.c **** #define USB_SIZ_BOS_DESC            0x0C
  27:application-library/usb-device/usb-cdc-device.c **** 
  28:application-library/usb-device/usb-cdc-device.c **** 
  29:application-library/usb-device/usb-cdc-device.c **** /* usbd_cdc_if.c BEGIN---- ---- ---- ---- */
  30:application-library/usb-device/usb-cdc-device.c **** /** Received data over USB are stored in this buffer      */
  31:application-library/usb-device/usb-cdc-device.c **** uint8_t UserRxBufferFS[APP_RX_DATA_SIZE];
ARM GAS  /tmp/ccfNPkge.s 			page 2


  32:application-library/usb-device/usb-cdc-device.c **** /** Data to send over USB CDC are stored in this buffer   */
  33:application-library/usb-device/usb-cdc-device.c **** uint8_t UserTxBufferFS[APP_TX_DATA_SIZE];
  34:application-library/usb-device/usb-cdc-device.c **** 
  35:application-library/usb-device/usb-cdc-device.c **** /* USB Device Core handle declaration. */
  36:application-library/usb-device/usb-cdc-device.c **** USBD_Handle_t hUsbDeviceFS;
  37:application-library/usb-device/usb-cdc-device.c **** 
  38:application-library/usb-device/usb-cdc-device.c **** /**
  39:application-library/usb-device/usb-cdc-device.c ****   * @brief Device qualifier
  40:application-library/usb-device/usb-cdc-device.c ****   * @note  The device_qualifier descriptor describes information about 
  41:application-library/usb-device/usb-cdc-device.c ****   *          a high-speed capable device that would change if the device 
  42:application-library/usb-device/usb-cdc-device.c ****   *          were operating at the other speed. 
  43:application-library/usb-device/usb-cdc-device.c ****   *         For example, if the device is currently operating at full-speed, 
  44:application-library/usb-device/usb-cdc-device.c ****   *           the device_qualifier returns information about how it would 
  45:application-library/usb-device/usb-cdc-device.c ****   *           operate at high-speed and vice-versa. 
  46:application-library/usb-device/usb-cdc-device.c ****   */
  47:application-library/usb-device/usb-cdc-device.c **** /* USB Standard Device Descriptor */
  48:application-library/usb-device/usb-cdc-device.c **** __ALIGN_BEGIN uint8_t USBD_CDC_DeviceQualifierDesc[USB_LEN_DEV_QUALIFIER_DESC] __ALIGN_END =
  49:application-library/usb-device/usb-cdc-device.c **** {
  50:application-library/usb-device/usb-cdc-device.c ****   0x0A,
  51:application-library/usb-device/usb-cdc-device.c ****   0x06,
  52:application-library/usb-device/usb-cdc-device.c ****   0x00,
  53:application-library/usb-device/usb-cdc-device.c ****   0x02,
  54:application-library/usb-device/usb-cdc-device.c ****   0x00,
  55:application-library/usb-device/usb-cdc-device.c ****   0x00,
  56:application-library/usb-device/usb-cdc-device.c ****   0x00,
  57:application-library/usb-device/usb-cdc-device.c ****   0x40,
  58:application-library/usb-device/usb-cdc-device.c ****   0x01,
  59:application-library/usb-device/usb-cdc-device.c ****   0x00,
  60:application-library/usb-device/usb-cdc-device.c **** };
  61:application-library/usb-device/usb-cdc-device.c **** 
  62:application-library/usb-device/usb-cdc-device.c **** 
  63:application-library/usb-device/usb-cdc-device.c **** /* CDC interface class callbacks structure */
  64:application-library/usb-device/usb-cdc-device.c **** USBD_ClassTypeDef USBD_CDC =
  65:application-library/usb-device/usb-cdc-device.c **** {
  66:application-library/usb-device/usb-cdc-device.c ****   USBD_CDC_Init,
  67:application-library/usb-device/usb-cdc-device.c ****   USBD_CDC_DeInit,
  68:application-library/usb-device/usb-cdc-device.c ****   USBD_CDC_Setup,
  69:application-library/usb-device/usb-cdc-device.c ****   NULL,                 /* EP0_TxSent */
  70:application-library/usb-device/usb-cdc-device.c ****   USBD_CDC_EP0_RxReady,
  71:application-library/usb-device/usb-cdc-device.c ****   USBD_CDC_DataIn,
  72:application-library/usb-device/usb-cdc-device.c ****   USBD_CDC_DataOut,
  73:application-library/usb-device/usb-cdc-device.c ****   NULL,
  74:application-library/usb-device/usb-cdc-device.c ****   NULL,
  75:application-library/usb-device/usb-cdc-device.c ****   NULL,
  76:application-library/usb-device/usb-cdc-device.c ****   USBD_CDC_GetHSCfgDesc,
  77:application-library/usb-device/usb-cdc-device.c ****   USBD_CDC_GetFSCfgDesc,
  78:application-library/usb-device/usb-cdc-device.c ****   USBD_CDC_GetOtherSpeedCfgDesc,
  79:application-library/usb-device/usb-cdc-device.c ****   USBD_CDC_GetDeviceQualifierDescriptor,
  80:application-library/usb-device/usb-cdc-device.c **** };
  81:application-library/usb-device/usb-cdc-device.c **** 
  82:application-library/usb-device/usb-cdc-device.c **** /* USB CDC device Configuration Descriptor */
  83:application-library/usb-device/usb-cdc-device.c **** __ALIGN_BEGIN uint8_t USBD_CDC_CfgDesc[USB_CDC_CONFIG_DESC_SIZ] __ALIGN_END =
  84:application-library/usb-device/usb-cdc-device.c **** {
  85:application-library/usb-device/usb-cdc-device.c ****   /* Configuration Descriptor */
  86:application-library/usb-device/usb-cdc-device.c ****   0x09,                                       /* bLength: Configuration Descriptor size */
  87:application-library/usb-device/usb-cdc-device.c ****   USB_DESC_TYPE_CONFIGURATION,                /* bDescriptorType: Configuration */
  88:application-library/usb-device/usb-cdc-device.c ****   USB_CDC_CONFIG_DESC_SIZ,                    /* wTotalLength */
ARM GAS  /tmp/ccfNPkge.s 			page 3


  89:application-library/usb-device/usb-cdc-device.c ****   0x00,
  90:application-library/usb-device/usb-cdc-device.c ****   0x02,                                       /* bNumInterfaces: 2 interfaces */
  91:application-library/usb-device/usb-cdc-device.c ****   0x01,                                       /* bConfigurationValue: Configuration value */
  92:application-library/usb-device/usb-cdc-device.c ****   0x00,                                       /* iConfiguration: Index of string descriptor */
  93:application-library/usb-device/usb-cdc-device.c ****   0xC0,                                       /* bmAttributes: Bus is self-powered. */
  94:application-library/usb-device/usb-cdc-device.c ****   USBD_MAX_POWER,                             /* MaxPower (mA) */
  95:application-library/usb-device/usb-cdc-device.c **** 
  96:application-library/usb-device/usb-cdc-device.c ****   /* Interface Descriptor */
  97:application-library/usb-device/usb-cdc-device.c ****   0x09,                                       /* bLength: Interface Descriptor size */
  98:application-library/usb-device/usb-cdc-device.c ****   USB_DESC_TYPE_INTERFACE,                    /* bDescriptorType: Interface */
  99:application-library/usb-device/usb-cdc-device.c ****   /* Interface descriptor type */
 100:application-library/usb-device/usb-cdc-device.c ****   0x00,                                       /* bInterfaceNumber: Number of Interface */
 101:application-library/usb-device/usb-cdc-device.c ****   0x00,                                       /* bAlternateSetting: Alternate setting */
 102:application-library/usb-device/usb-cdc-device.c ****   0x01,                                       /* bNumEndpoints: One endpoint used */
 103:application-library/usb-device/usb-cdc-device.c ****   0x02,                                       /* bInterfaceClass: Communication Interface Class */
 104:application-library/usb-device/usb-cdc-device.c ****   0x02,                                       /* bInterfaceSubClass: Abstract Control Model */
 105:application-library/usb-device/usb-cdc-device.c ****   0x01,                                       /* bInterfaceProtocol: Common AT commands */
 106:application-library/usb-device/usb-cdc-device.c ****   0x00,                                       /* iInterface */
 107:application-library/usb-device/usb-cdc-device.c **** 
 108:application-library/usb-device/usb-cdc-device.c ****   /* Header Functional Descriptor */
 109:application-library/usb-device/usb-cdc-device.c ****   0x05,                                       /* bLength: Endpoint Descriptor size */
 110:application-library/usb-device/usb-cdc-device.c ****   0x24,                                       /* bDescriptorType: CS_INTERFACE */
 111:application-library/usb-device/usb-cdc-device.c ****   0x00,                                       /* bDescriptorSubtype: Header Func Desc */
 112:application-library/usb-device/usb-cdc-device.c ****   0x10,                                       /* bcdCDC: spec release number */
 113:application-library/usb-device/usb-cdc-device.c ****   0x01,
 114:application-library/usb-device/usb-cdc-device.c **** 
 115:application-library/usb-device/usb-cdc-device.c ****   /* Call Management Functional Descriptor */
 116:application-library/usb-device/usb-cdc-device.c ****   0x05,                                       /* bFunctionLength */
 117:application-library/usb-device/usb-cdc-device.c ****   0x24,                                       /* bDescriptorType: CS_INTERFACE */
 118:application-library/usb-device/usb-cdc-device.c ****   0x01,                                       /* bDescriptorSubtype: Call Management Func Desc */
 119:application-library/usb-device/usb-cdc-device.c ****   0x00,                                       /* bmCapabilities: D0+D1 */
 120:application-library/usb-device/usb-cdc-device.c ****   0x01,                                       /* bDataInterface */
 121:application-library/usb-device/usb-cdc-device.c **** 
 122:application-library/usb-device/usb-cdc-device.c ****   /* ACM Functional Descriptor */
 123:application-library/usb-device/usb-cdc-device.c ****   0x04,                                       /* bFunctionLength */
 124:application-library/usb-device/usb-cdc-device.c ****   0x24,                                       /* bDescriptorType: CS_INTERFACE */
 125:application-library/usb-device/usb-cdc-device.c ****   0x02,                                       /* bDescriptorSubtype: Abstract Control Management de
 126:application-library/usb-device/usb-cdc-device.c ****   0x02,                                       /* bmCapabilities */
 127:application-library/usb-device/usb-cdc-device.c **** 
 128:application-library/usb-device/usb-cdc-device.c ****   /* Union Functional Descriptor */
 129:application-library/usb-device/usb-cdc-device.c ****   0x05,                                       /* bFunctionLength */
 130:application-library/usb-device/usb-cdc-device.c ****   0x24,                                       /* bDescriptorType: CS_INTERFACE */
 131:application-library/usb-device/usb-cdc-device.c ****   0x06,                                       /* bDescriptorSubtype: Union func desc */
 132:application-library/usb-device/usb-cdc-device.c ****   0x00,                                       /* bMasterInterface: Communication class interface */
 133:application-library/usb-device/usb-cdc-device.c ****   0x01,                                       /* bSlaveInterface0: Data Class Interface */
 134:application-library/usb-device/usb-cdc-device.c **** 
 135:application-library/usb-device/usb-cdc-device.c ****   /* Endpoint 2 Descriptor */
 136:application-library/usb-device/usb-cdc-device.c ****   0x07,                                       /* bLength: Endpoint Descriptor size */
 137:application-library/usb-device/usb-cdc-device.c ****   USB_DESC_TYPE_ENDPOINT,                     /* bDescriptorType: Endpoint */
 138:application-library/usb-device/usb-cdc-device.c ****   CDC_CMD_EP,                                 /* bEndpointAddress */
 139:application-library/usb-device/usb-cdc-device.c ****   0x03,                                       /* bmAttributes: Interrupt */
 140:application-library/usb-device/usb-cdc-device.c ****   LOBYTE(CDC_CMD_PACKET_SIZE),                /* wMaxPacketSize */
 141:application-library/usb-device/usb-cdc-device.c ****   HIBYTE(CDC_CMD_PACKET_SIZE),
 142:application-library/usb-device/usb-cdc-device.c ****   CDC_FS_BINTERVAL,                           /* bInterval */
 143:application-library/usb-device/usb-cdc-device.c ****   /*---------------------------------------------------------------------------*/
 144:application-library/usb-device/usb-cdc-device.c **** 
 145:application-library/usb-device/usb-cdc-device.c ****   /* Data class interface descriptor */
ARM GAS  /tmp/ccfNPkge.s 			page 4


 146:application-library/usb-device/usb-cdc-device.c ****   0x09,                                       /* bLength: Endpoint Descriptor size */
 147:application-library/usb-device/usb-cdc-device.c ****   USB_DESC_TYPE_INTERFACE,                    /* bDescriptorType: */
 148:application-library/usb-device/usb-cdc-device.c ****   0x01,                                       /* bInterfaceNumber: Number of Interface */
 149:application-library/usb-device/usb-cdc-device.c ****   0x00,                                       /* bAlternateSetting: Alternate setting */
 150:application-library/usb-device/usb-cdc-device.c ****   0x02,                                       /* bNumEndpoints: Two endpoints used */
 151:application-library/usb-device/usb-cdc-device.c ****   0x0A,                                       /* bInterfaceClass: CDC */
 152:application-library/usb-device/usb-cdc-device.c ****   0x00,                                       /* bInterfaceSubClass */
 153:application-library/usb-device/usb-cdc-device.c ****   0x00,                                       /* bInterfaceProtocol */
 154:application-library/usb-device/usb-cdc-device.c ****   0x00,                                       /* iInterface */
 155:application-library/usb-device/usb-cdc-device.c **** 
 156:application-library/usb-device/usb-cdc-device.c ****   /* Endpoint OUT Descriptor */
 157:application-library/usb-device/usb-cdc-device.c ****   0x07,                                       /* bLength: Endpoint Descriptor size */
 158:application-library/usb-device/usb-cdc-device.c ****   USB_DESC_TYPE_ENDPOINT,                     /* bDescriptorType: Endpoint */
 159:application-library/usb-device/usb-cdc-device.c ****   CDC_OUT_EP,                                 /* bEndpointAddress */
 160:application-library/usb-device/usb-cdc-device.c ****   0x02,                                       /* bmAttributes: Bulk */
 161:application-library/usb-device/usb-cdc-device.c ****   LOBYTE(CDC_DATA_FS_MAX_PACKET_SIZE),        /* wMaxPacketSize */
 162:application-library/usb-device/usb-cdc-device.c ****   HIBYTE(CDC_DATA_FS_MAX_PACKET_SIZE),
 163:application-library/usb-device/usb-cdc-device.c ****   0x00,                                       /* bInterval */
 164:application-library/usb-device/usb-cdc-device.c **** 
 165:application-library/usb-device/usb-cdc-device.c ****   /* Endpoint IN Descriptor */
 166:application-library/usb-device/usb-cdc-device.c ****   0x07,                                       /* bLength: Endpoint Descriptor size */
 167:application-library/usb-device/usb-cdc-device.c ****   USB_DESC_TYPE_ENDPOINT,                     /* bDescriptorType: Endpoint */
 168:application-library/usb-device/usb-cdc-device.c ****   CDC_IN_EP,                                  /* bEndpointAddress */
 169:application-library/usb-device/usb-cdc-device.c ****   0x02,                                       /* bmAttributes: Bulk */
 170:application-library/usb-device/usb-cdc-device.c ****   LOBYTE(CDC_DATA_FS_MAX_PACKET_SIZE),        /* wMaxPacketSize */
 171:application-library/usb-device/usb-cdc-device.c ****   HIBYTE(CDC_DATA_FS_MAX_PACKET_SIZE),
 172:application-library/usb-device/usb-cdc-device.c ****   0x00                                        /* bInterval */
 173:application-library/usb-device/usb-cdc-device.c **** };
 174:application-library/usb-device/usb-cdc-device.c **** 
 175:application-library/usb-device/usb-cdc-device.c **** 
 176:application-library/usb-device/usb-cdc-device.c **** USBD_CDC_ItfTypeDef USBD_Interface_fops_FS =
 177:application-library/usb-device/usb-cdc-device.c **** {
 178:application-library/usb-device/usb-cdc-device.c ****   CDC_Init_FS,
 179:application-library/usb-device/usb-cdc-device.c ****   CDC_DeInit_FS,
 180:application-library/usb-device/usb-cdc-device.c ****   CDC_Control_FS,
 181:application-library/usb-device/usb-cdc-device.c ****   CDC_Receive_FS,
 182:application-library/usb-device/usb-cdc-device.c ****   CDC_TransmitCplt_FS
 183:application-library/usb-device/usb-cdc-device.c **** };
 184:application-library/usb-device/usb-cdc-device.c **** 
 185:application-library/usb-device/usb-cdc-device.c **** /**
 186:application-library/usb-device/usb-cdc-device.c ****   * @brief  Initializes the CDC media low layer over the FS USB IP
 187:application-library/usb-device/usb-cdc-device.c ****   * @retval USBD_OK if all operations are OK else USBD_FAIL
 188:application-library/usb-device/usb-cdc-device.c ****   */
 189:application-library/usb-device/usb-cdc-device.c **** int8_t CDC_Init_FS(void)
 190:application-library/usb-device/usb-cdc-device.c **** {
 191:application-library/usb-device/usb-cdc-device.c ****   /* USER CODE BEGIN 3 */
 192:application-library/usb-device/usb-cdc-device.c ****   /* Set Application Buffers */
 193:application-library/usb-device/usb-cdc-device.c ****   USBD_CDC_SetTxBuffer(&hUsbDeviceFS, UserTxBufferFS, 0);
 194:application-library/usb-device/usb-cdc-device.c ****   USBD_CDC_SetRxBuffer(&hUsbDeviceFS, UserRxBufferFS);
 195:application-library/usb-device/usb-cdc-device.c ****   return (USBD_OK);
 196:application-library/usb-device/usb-cdc-device.c ****   /* USER CODE END 3 */
 197:application-library/usb-device/usb-cdc-device.c **** }
 198:application-library/usb-device/usb-cdc-device.c **** 
 199:application-library/usb-device/usb-cdc-device.c **** /**
 200:application-library/usb-device/usb-cdc-device.c ****   * @brief  DeInitializes the CDC media low layer
 201:application-library/usb-device/usb-cdc-device.c ****   * @retval USBD_OK if all operations are OK else USBD_FAIL
 202:application-library/usb-device/usb-cdc-device.c ****   */
ARM GAS  /tmp/ccfNPkge.s 			page 5


 203:application-library/usb-device/usb-cdc-device.c **** int8_t CDC_DeInit_FS(void)
 204:application-library/usb-device/usb-cdc-device.c **** {
  28              		.loc 1 204 0
  29              		.cfi_startproc
  30              		@ args = 0, pretend = 0, frame = 0
  31              		@ frame_needed = 0, uses_anonymous_args = 0
  32              		@ link register save eliminated.
 205:application-library/usb-device/usb-cdc-device.c ****   return (USBD_OK);
 206:application-library/usb-device/usb-cdc-device.c **** }
  33              		.loc 1 206 0
  34 0000 0020     		movs	r0, #0
  35 0002 7047     		bx	lr
  36              		.cfi_endproc
  37              	.LFE133:
  39              		.section	.text.CDC_Control_FS,"ax",%progbits
  40              		.align	1
  41              		.global	CDC_Control_FS
  42              		.syntax unified
  43              		.thumb
  44              		.thumb_func
  45              		.fpu fpv4-sp-d16
  47              	CDC_Control_FS:
  48              	.LFB134:
 207:application-library/usb-device/usb-cdc-device.c **** 
 208:application-library/usb-device/usb-cdc-device.c **** /**
 209:application-library/usb-device/usb-cdc-device.c ****   * @brief  Manage the CDC class requests
 210:application-library/usb-device/usb-cdc-device.c ****   * @param  cmd: Command code
 211:application-library/usb-device/usb-cdc-device.c ****   * @param  pbuf: Buffer containing command data (request parameters)
 212:application-library/usb-device/usb-cdc-device.c ****   * @param  length: Number of data to be sent (in bytes)
 213:application-library/usb-device/usb-cdc-device.c ****   * @retval Result of the operation: USBD_OK if all operations are OK else USBD_FAIL
 214:application-library/usb-device/usb-cdc-device.c ****   */
 215:application-library/usb-device/usb-cdc-device.c **** int8_t CDC_Control_FS(uint8_t cmd, uint8_t* pbuf, uint16_t length)
 216:application-library/usb-device/usb-cdc-device.c **** {
  49              		.loc 1 216 0
  50              		.cfi_startproc
  51              		@ args = 0, pretend = 0, frame = 0
  52              		@ frame_needed = 0, uses_anonymous_args = 0
  53              		@ link register save eliminated.
  54              	.LVL0:
 217:application-library/usb-device/usb-cdc-device.c ****   /* USER CODE BEGIN 5 */
 218:application-library/usb-device/usb-cdc-device.c ****   switch(cmd)
 219:application-library/usb-device/usb-cdc-device.c ****   {
 220:application-library/usb-device/usb-cdc-device.c ****     case CDC_SEND_ENCAPSULATED_COMMAND:
 221:application-library/usb-device/usb-cdc-device.c ****     break;
 222:application-library/usb-device/usb-cdc-device.c ****     case CDC_GET_ENCAPSULATED_RESPONSE:
 223:application-library/usb-device/usb-cdc-device.c ****     break;
 224:application-library/usb-device/usb-cdc-device.c ****     case CDC_SET_COMM_FEATURE:
 225:application-library/usb-device/usb-cdc-device.c ****     break;
 226:application-library/usb-device/usb-cdc-device.c ****     case CDC_GET_COMM_FEATURE:
 227:application-library/usb-device/usb-cdc-device.c ****     break;
 228:application-library/usb-device/usb-cdc-device.c ****     case CDC_CLEAR_COMM_FEATURE:
 229:application-library/usb-device/usb-cdc-device.c ****     break;
 230:application-library/usb-device/usb-cdc-device.c **** 
 231:application-library/usb-device/usb-cdc-device.c ****   /*******************************************************************************/
 232:application-library/usb-device/usb-cdc-device.c ****   /* Line Coding Structure                                                       */
 233:application-library/usb-device/usb-cdc-device.c ****   /*-----------------------------------------------------------------------------*/
 234:application-library/usb-device/usb-cdc-device.c ****   /* Offset | Field       | Size | Value  | Description                          */
ARM GAS  /tmp/ccfNPkge.s 			page 6


 235:application-library/usb-device/usb-cdc-device.c ****   /* 0      | dwDTERate   |   4  | Number |Data terminal rate, in bits per second*/
 236:application-library/usb-device/usb-cdc-device.c ****   /* 4      | bCharFormat |   1  | Number | Stop bits                            */
 237:application-library/usb-device/usb-cdc-device.c ****   /*                                        0 - 1 Stop bit                       */
 238:application-library/usb-device/usb-cdc-device.c ****   /*                                        1 - 1.5 Stop bits                    */
 239:application-library/usb-device/usb-cdc-device.c ****   /*                                        2 - 2 Stop bits                      */
 240:application-library/usb-device/usb-cdc-device.c ****   /* 5      | bParityType |  1   | Number | Parity                               */
 241:application-library/usb-device/usb-cdc-device.c ****   /*                                        0 - None                             */
 242:application-library/usb-device/usb-cdc-device.c ****   /*                                        1 - Odd                              */
 243:application-library/usb-device/usb-cdc-device.c ****   /*                                        2 - Even                             */
 244:application-library/usb-device/usb-cdc-device.c ****   /*                                        3 - Mark                             */
 245:application-library/usb-device/usb-cdc-device.c ****   /*                                        4 - Space                            */
 246:application-library/usb-device/usb-cdc-device.c ****   /* 6      | bDataBits  |   1   | Number Data bits (5, 6, 7, 8 or 16).          */
 247:application-library/usb-device/usb-cdc-device.c ****   /*******************************************************************************/
 248:application-library/usb-device/usb-cdc-device.c ****     case CDC_SET_LINE_CODING:
 249:application-library/usb-device/usb-cdc-device.c ****     break;
 250:application-library/usb-device/usb-cdc-device.c ****     case CDC_GET_LINE_CODING:
 251:application-library/usb-device/usb-cdc-device.c ****     break;
 252:application-library/usb-device/usb-cdc-device.c ****     case CDC_SET_CONTROL_LINE_STATE:
 253:application-library/usb-device/usb-cdc-device.c ****     break;
 254:application-library/usb-device/usb-cdc-device.c ****     case CDC_SEND_BREAK:
 255:application-library/usb-device/usb-cdc-device.c ****     break;
 256:application-library/usb-device/usb-cdc-device.c ****   default:
 257:application-library/usb-device/usb-cdc-device.c ****     break;
 258:application-library/usb-device/usb-cdc-device.c ****   }
 259:application-library/usb-device/usb-cdc-device.c ****   return (USBD_OK);
 260:application-library/usb-device/usb-cdc-device.c **** }
  55              		.loc 1 260 0
  56 0000 0020     		movs	r0, #0
  57              	.LVL1:
  58 0002 7047     		bx	lr
  59              		.cfi_endproc
  60              	.LFE134:
  62              		.section	.text.CDC_TransmitCplt_FS,"ax",%progbits
  63              		.align	1
  64              		.global	CDC_TransmitCplt_FS
  65              		.syntax unified
  66              		.thumb
  67              		.thumb_func
  68              		.fpu fpv4-sp-d16
  70              	CDC_TransmitCplt_FS:
  71              	.LFB137:
 261:application-library/usb-device/usb-cdc-device.c **** 
 262:application-library/usb-device/usb-cdc-device.c **** /**
 263:application-library/usb-device/usb-cdc-device.c ****   * @brief  Data received over USB OUT endpoint are sent over CDC interface
 264:application-library/usb-device/usb-cdc-device.c ****   *         through this function.
 265:application-library/usb-device/usb-cdc-device.c ****   *
 266:application-library/usb-device/usb-cdc-device.c ****   *         @note
 267:application-library/usb-device/usb-cdc-device.c ****   *         This function will issue a NAK packet on any OUT packet received on
 268:application-library/usb-device/usb-cdc-device.c ****   *         USB endpoint until exiting this function. If you exit this function
 269:application-library/usb-device/usb-cdc-device.c ****   *         before transfer is complete on CDC interface (ie. using DMA controller)
 270:application-library/usb-device/usb-cdc-device.c ****   *         it will result in receiving more data while previous ones are still
 271:application-library/usb-device/usb-cdc-device.c ****   *         not sent.
 272:application-library/usb-device/usb-cdc-device.c ****   *
 273:application-library/usb-device/usb-cdc-device.c ****   * @param  Buf: Buffer of data to be received
 274:application-library/usb-device/usb-cdc-device.c ****   * @param  Len: Number of data received (in bytes)
 275:application-library/usb-device/usb-cdc-device.c ****   * @retval Result of the operation: USBD_OK if all operations are OK else USBD_FAIL
 276:application-library/usb-device/usb-cdc-device.c ****   */
ARM GAS  /tmp/ccfNPkge.s 			page 7


 277:application-library/usb-device/usb-cdc-device.c **** int8_t CDC_Receive_FS(uint8_t* Buf, uint32_t *Len)
 278:application-library/usb-device/usb-cdc-device.c **** {
 279:application-library/usb-device/usb-cdc-device.c ****   /* USER CODE BEGIN 6 */
 280:application-library/usb-device/usb-cdc-device.c ****   uint8_t received_msg[64];
 281:application-library/usb-device/usb-cdc-device.c ****   USBD_CDC_SetRxBuffer(&hUsbDeviceFS, &Buf[0]);
 282:application-library/usb-device/usb-cdc-device.c ****   USBD_CDC_ReceivePacket(&hUsbDeviceFS);
 283:application-library/usb-device/usb-cdc-device.c **** 
 284:application-library/usb-device/usb-cdc-device.c ****   memset (received_msg, '\0', 64);  // clear the buffer
 285:application-library/usb-device/usb-cdc-device.c ****   uint8_t len = (uint8_t)*Len;
 286:application-library/usb-device/usb-cdc-device.c ****   memcpy(received_msg, Buf, len);  // copy the data to the buffer
 287:application-library/usb-device/usb-cdc-device.c ****   memcpy(lcd_string, Buf, len);  // copy the data to the buffer
 288:application-library/usb-device/usb-cdc-device.c **** 
 289:application-library/usb-device/usb-cdc-device.c ****   strcat((char*) received_msg, (char *)" echoed.\n");
 290:application-library/usb-device/usb-cdc-device.c ****   memset(Buf, '\0', len);   // clear the Buf also
 291:application-library/usb-device/usb-cdc-device.c ****   usbd_transmit(received_msg, sizeof(received_msg));
 292:application-library/usb-device/usb-cdc-device.c ****   return (USBD_OK);
 293:application-library/usb-device/usb-cdc-device.c ****   /* USER CODE END 6 */
 294:application-library/usb-device/usb-cdc-device.c **** }
 295:application-library/usb-device/usb-cdc-device.c **** 
 296:application-library/usb-device/usb-cdc-device.c **** /**
 297:application-library/usb-device/usb-cdc-device.c ****   * @brief  Trasmit Data to send over USB IN endpoint are sent over CDC interface
 298:application-library/usb-device/usb-cdc-device.c ****   * @param  Buf: Buffer of data to be sent
 299:application-library/usb-device/usb-cdc-device.c ****   * @param  Len: Number of data to be sent (in bytes)
 300:application-library/usb-device/usb-cdc-device.c ****   * @retval void
 301:application-library/usb-device/usb-cdc-device.c ****   */
 302:application-library/usb-device/usb-cdc-device.c **** void usbd_transmit(uint8_t* Buf, uint16_t Len)
 303:application-library/usb-device/usb-cdc-device.c **** {
 304:application-library/usb-device/usb-cdc-device.c ****   USBD_CDC_SetTxBuffer(&hUsbDeviceFS, Buf, Len);
 305:application-library/usb-device/usb-cdc-device.c **** 
 306:application-library/usb-device/usb-cdc-device.c ****   // start transmission.
 307:application-library/usb-device/usb-cdc-device.c ****   USBD_Handle_t* p_usbd_instance = &hUsbDeviceFS;
 308:application-library/usb-device/usb-cdc-device.c ****   
 309:application-library/usb-device/usb-cdc-device.c ****   USBD_CDC_Buffer_t *hcdc = (USBD_CDC_Buffer_t *)p_usbd_instance->pClassDataCmsit;
 310:application-library/usb-device/usb-cdc-device.c ****   if (hcdc->TxState == 0U)
 311:application-library/usb-device/usb-cdc-device.c ****   {
 312:application-library/usb-device/usb-cdc-device.c ****     /* Tx Transfer in progress */
 313:application-library/usb-device/usb-cdc-device.c ****     hcdc->TxState = 1U;
 314:application-library/usb-device/usb-cdc-device.c ****     /* Update the packet total length */
 315:application-library/usb-device/usb-cdc-device.c ****     p_usbd_instance->ep_in[CDC_IN_EP & 0xFU].total_length = hcdc->TxLength;
 316:application-library/usb-device/usb-cdc-device.c ****     /* Transmit next packet */
 317:application-library/usb-device/usb-cdc-device.c ****     USBD_LL_Transmit(p_usbd_instance, CDC_IN_EP, hcdc->TxBuffer, hcdc->TxLength);
 318:application-library/usb-device/usb-cdc-device.c ****   }
 319:application-library/usb-device/usb-cdc-device.c **** }
 320:application-library/usb-device/usb-cdc-device.c **** 
 321:application-library/usb-device/usb-cdc-device.c **** /**
 322:application-library/usb-device/usb-cdc-device.c ****   * @brief  Data transmitted callback
 323:application-library/usb-device/usb-cdc-device.c ****   *         This function is IN transfer complete callback used to inform user that
 324:application-library/usb-device/usb-cdc-device.c ****   *         the submitted Data is successfully sent over USB.
 325:application-library/usb-device/usb-cdc-device.c ****   * @param  Buf: Buffer of data to be received
 326:application-library/usb-device/usb-cdc-device.c ****   * @param  Len: Number of data received (in bytes)
 327:application-library/usb-device/usb-cdc-device.c ****   * @retval Result of the operation: USBD_OK if all operations are OK else USBD_FAIL
 328:application-library/usb-device/usb-cdc-device.c ****   */
 329:application-library/usb-device/usb-cdc-device.c **** int8_t CDC_TransmitCplt_FS(uint8_t *Buf, uint32_t *Len, uint8_t epnum)
 330:application-library/usb-device/usb-cdc-device.c **** {
  72              		.loc 1 330 0
  73              		.cfi_startproc
  74              		@ args = 0, pretend = 0, frame = 0
ARM GAS  /tmp/ccfNPkge.s 			page 8


  75              		@ frame_needed = 0, uses_anonymous_args = 0
  76              		@ link register save eliminated.
  77              	.LVL2:
 331:application-library/usb-device/usb-cdc-device.c ****   uint8_t result = USBD_OK;
 332:application-library/usb-device/usb-cdc-device.c ****   /* USER CODE BEGIN 13 */
 333:application-library/usb-device/usb-cdc-device.c ****   UNUSED(Buf);
 334:application-library/usb-device/usb-cdc-device.c ****   UNUSED(Len);
 335:application-library/usb-device/usb-cdc-device.c ****   UNUSED(epnum);
 336:application-library/usb-device/usb-cdc-device.c ****   /* USER CODE END 13 */
 337:application-library/usb-device/usb-cdc-device.c ****   return result;
 338:application-library/usb-device/usb-cdc-device.c **** }
  78              		.loc 1 338 0
  79 0000 0020     		movs	r0, #0
  80              	.LVL3:
  81 0002 7047     		bx	lr
  82              		.cfi_endproc
  83              	.LFE137:
  85              		.section	.text.USBD_CDC_EP0_RxReady,"ax",%progbits
  86              		.align	1
  87              		.global	USBD_CDC_EP0_RxReady
  88              		.syntax unified
  89              		.thumb
  90              		.thumb_func
  91              		.fpu fpv4-sp-d16
  93              	USBD_CDC_EP0_RxReady:
  94              	.LFB144:
 339:application-library/usb-device/usb-cdc-device.c **** 
 340:application-library/usb-device/usb-cdc-device.c **** 
 341:application-library/usb-device/usb-cdc-device.c **** /**
 342:application-library/usb-device/usb-cdc-device.c ****   * @brief Init USB device Library, add supported class and start the library
 343:application-library/usb-device/usb-cdc-device.c ****   */
 344:application-library/usb-device/usb-cdc-device.c **** void usb_device_init(void)
 345:application-library/usb-device/usb-cdc-device.c **** {
 346:application-library/usb-device/usb-cdc-device.c ****   USBD_Init(&hUsbDeviceFS, &FS_Desc, DEVICE_FS);
 347:application-library/usb-device/usb-cdc-device.c ****   USBD_RegisterClass(&hUsbDeviceFS, &USBD_CDC); // usbd_core.c
 348:application-library/usb-device/usb-cdc-device.c ****   USBD_CDC_RegisterInterface(&hUsbDeviceFS, &USBD_Interface_fops_FS);
 349:application-library/usb-device/usb-cdc-device.c ****   USBD_Start(&hUsbDeviceFS);  /* p_usbd_handle->pData has type void */
 350:application-library/usb-device/usb-cdc-device.c **** }
 351:application-library/usb-device/usb-cdc-device.c **** 
 352:application-library/usb-device/usb-cdc-device.c **** /**
 353:application-library/usb-device/usb-cdc-device.c ****   * @brief  Initialize the CDC interface
 354:application-library/usb-device/usb-cdc-device.c ****   * @param  p_usbd_instance: device instance
 355:application-library/usb-device/usb-cdc-device.c ****   * @param  cfgidx: Configuration index
 356:application-library/usb-device/usb-cdc-device.c ****   * @retval status
 357:application-library/usb-device/usb-cdc-device.c ****   */
 358:application-library/usb-device/usb-cdc-device.c **** uint8_t USBD_CDC_Init(USBD_Handle_t *p_usbd_instance, uint8_t cfgidx)
 359:application-library/usb-device/usb-cdc-device.c **** {
 360:application-library/usb-device/usb-cdc-device.c ****   UNUSED(cfgidx);
 361:application-library/usb-device/usb-cdc-device.c ****   USBD_CDC_Buffer_t *hcdc;
 362:application-library/usb-device/usb-cdc-device.c **** 
 363:application-library/usb-device/usb-cdc-device.c ****   hcdc = (USBD_CDC_Buffer_t *)USBD_static_malloc(sizeof(USBD_CDC_Buffer_t));
 364:application-library/usb-device/usb-cdc-device.c **** 
 365:application-library/usb-device/usb-cdc-device.c ****   if (hcdc == NULL)
 366:application-library/usb-device/usb-cdc-device.c ****   {
 367:application-library/usb-device/usb-cdc-device.c ****     p_usbd_instance->pClassDataCmsit = NULL;
 368:application-library/usb-device/usb-cdc-device.c ****     return (uint8_t)USBD_EMEM;
 369:application-library/usb-device/usb-cdc-device.c ****   }
ARM GAS  /tmp/ccfNPkge.s 			page 9


 370:application-library/usb-device/usb-cdc-device.c **** 
 371:application-library/usb-device/usb-cdc-device.c ****   memset(hcdc, 0, sizeof(USBD_CDC_Buffer_t));
 372:application-library/usb-device/usb-cdc-device.c **** 
 373:application-library/usb-device/usb-cdc-device.c ****   p_usbd_instance->pClassDataCmsit = (void *)hcdc;
 374:application-library/usb-device/usb-cdc-device.c ****   p_usbd_instance->pClassData = p_usbd_instance->pClassDataCmsit;
 375:application-library/usb-device/usb-cdc-device.c **** 
 376:application-library/usb-device/usb-cdc-device.c ****   /* High Speed */
 377:application-library/usb-device/usb-cdc-device.c ****   if (p_usbd_instance->dev_speed == USBD_SPEED_HIGH)
 378:application-library/usb-device/usb-cdc-device.c ****   {
 379:application-library/usb-device/usb-cdc-device.c ****     /* Open EP IN */
 380:application-library/usb-device/usb-cdc-device.c ****     USBD_LL_OpenEP(p_usbd_instance, CDC_IN_EP, USBD_EP_TYPE_BULK, CDC_DATA_HS_IN_PACKET_SIZE);
 381:application-library/usb-device/usb-cdc-device.c **** 
 382:application-library/usb-device/usb-cdc-device.c ****     p_usbd_instance->ep_in[CDC_IN_EP & 0xFU].is_used = 1U;
 383:application-library/usb-device/usb-cdc-device.c **** 
 384:application-library/usb-device/usb-cdc-device.c ****     /* Open EP OUT */
 385:application-library/usb-device/usb-cdc-device.c ****     USBD_LL_OpenEP(p_usbd_instance, CDC_OUT_EP, USBD_EP_TYPE_BULK, CDC_DATA_HS_OUT_PACKET_SIZE);
 386:application-library/usb-device/usb-cdc-device.c **** 
 387:application-library/usb-device/usb-cdc-device.c ****     p_usbd_instance->ep_out[CDC_OUT_EP & 0xFU].is_used = 1U;
 388:application-library/usb-device/usb-cdc-device.c **** 
 389:application-library/usb-device/usb-cdc-device.c ****     /* Set bInterval for CDC CMD Endpoint */
 390:application-library/usb-device/usb-cdc-device.c ****     p_usbd_instance->ep_in[CDC_CMD_EP & 0xFU].bInterval = CDC_HS_BINTERVAL;
 391:application-library/usb-device/usb-cdc-device.c ****   }
 392:application-library/usb-device/usb-cdc-device.c ****   /* Low/Full Speed */
 393:application-library/usb-device/usb-cdc-device.c ****   else
 394:application-library/usb-device/usb-cdc-device.c ****   {
 395:application-library/usb-device/usb-cdc-device.c ****     /* Open EP IN */
 396:application-library/usb-device/usb-cdc-device.c ****     USBD_LL_OpenEP(p_usbd_instance, CDC_IN_EP, USBD_EP_TYPE_BULK, CDC_DATA_FS_IN_PACKET_SIZE);
 397:application-library/usb-device/usb-cdc-device.c **** 
 398:application-library/usb-device/usb-cdc-device.c ****     p_usbd_instance->ep_in[CDC_IN_EP & 0xFU].is_used = 1U;
 399:application-library/usb-device/usb-cdc-device.c **** 
 400:application-library/usb-device/usb-cdc-device.c ****     /* Open EP OUT */
 401:application-library/usb-device/usb-cdc-device.c ****     USBD_LL_OpenEP(p_usbd_instance, CDC_OUT_EP, USBD_EP_TYPE_BULK, CDC_DATA_FS_OUT_PACKET_SIZE);
 402:application-library/usb-device/usb-cdc-device.c **** 
 403:application-library/usb-device/usb-cdc-device.c ****     p_usbd_instance->ep_out[CDC_OUT_EP & 0xFU].is_used = 1U;
 404:application-library/usb-device/usb-cdc-device.c **** 
 405:application-library/usb-device/usb-cdc-device.c ****     /* Set bInterval for CMD Endpoint */
 406:application-library/usb-device/usb-cdc-device.c ****     p_usbd_instance->ep_in[CDC_CMD_EP & 0xFU].bInterval = CDC_FS_BINTERVAL;
 407:application-library/usb-device/usb-cdc-device.c ****   }
 408:application-library/usb-device/usb-cdc-device.c **** 
 409:application-library/usb-device/usb-cdc-device.c ****   /* Open Command IN EP */
 410:application-library/usb-device/usb-cdc-device.c ****   USBD_LL_OpenEP(p_usbd_instance, CDC_CMD_EP, USBD_EP_TYPE_INTR, CDC_CMD_PACKET_SIZE);
 411:application-library/usb-device/usb-cdc-device.c ****   p_usbd_instance->ep_in[CDC_CMD_EP & 0xFU].is_used = 1U;
 412:application-library/usb-device/usb-cdc-device.c **** 
 413:application-library/usb-device/usb-cdc-device.c ****   hcdc->RxBuffer = NULL;
 414:application-library/usb-device/usb-cdc-device.c **** 
 415:application-library/usb-device/usb-cdc-device.c ****   /* Init  physical Interface components */
 416:application-library/usb-device/usb-cdc-device.c ****   ((USBD_CDC_ItfTypeDef *)p_usbd_instance->pUserData)->Init();
 417:application-library/usb-device/usb-cdc-device.c **** 
 418:application-library/usb-device/usb-cdc-device.c ****   /* Init Xfer states */
 419:application-library/usb-device/usb-cdc-device.c ****   hcdc->TxState = 0U;
 420:application-library/usb-device/usb-cdc-device.c ****   hcdc->RxState = 0U;
 421:application-library/usb-device/usb-cdc-device.c **** 
 422:application-library/usb-device/usb-cdc-device.c ****   if (hcdc->RxBuffer == NULL)
 423:application-library/usb-device/usb-cdc-device.c ****   {
 424:application-library/usb-device/usb-cdc-device.c ****     return (uint8_t)USBD_EMEM;
 425:application-library/usb-device/usb-cdc-device.c ****   }
 426:application-library/usb-device/usb-cdc-device.c **** 
ARM GAS  /tmp/ccfNPkge.s 			page 10


 427:application-library/usb-device/usb-cdc-device.c ****   if (p_usbd_instance->dev_speed == USBD_SPEED_HIGH)
 428:application-library/usb-device/usb-cdc-device.c ****   {
 429:application-library/usb-device/usb-cdc-device.c ****     /* Prepare Out endpoint to receive next packet */
 430:application-library/usb-device/usb-cdc-device.c ****     USBD_LL_PrepareReceive(p_usbd_instance, CDC_OUT_EP, hcdc->RxBuffer,
 431:application-library/usb-device/usb-cdc-device.c ****                                  CDC_DATA_HS_OUT_PACKET_SIZE);
 432:application-library/usb-device/usb-cdc-device.c ****   }
 433:application-library/usb-device/usb-cdc-device.c ****   else
 434:application-library/usb-device/usb-cdc-device.c ****   {
 435:application-library/usb-device/usb-cdc-device.c ****     /* Prepare Out endpoint to receive next packet */
 436:application-library/usb-device/usb-cdc-device.c ****     USBD_LL_PrepareReceive(p_usbd_instance, CDC_OUT_EP, hcdc->RxBuffer,
 437:application-library/usb-device/usb-cdc-device.c ****                                  CDC_DATA_FS_OUT_PACKET_SIZE);
 438:application-library/usb-device/usb-cdc-device.c ****   }
 439:application-library/usb-device/usb-cdc-device.c **** 
 440:application-library/usb-device/usb-cdc-device.c ****   return (uint8_t)USBD_OK;
 441:application-library/usb-device/usb-cdc-device.c **** }
 442:application-library/usb-device/usb-cdc-device.c **** 
 443:application-library/usb-device/usb-cdc-device.c **** /**
 444:application-library/usb-device/usb-cdc-device.c ****   * @brief  USBD_CDC_Init
 445:application-library/usb-device/usb-cdc-device.c ****   *         DeInitialize the CDC layer
 446:application-library/usb-device/usb-cdc-device.c ****   * @param  p_usbd_instance: device instance
 447:application-library/usb-device/usb-cdc-device.c ****   * @param  cfgidx: Configuration index
 448:application-library/usb-device/usb-cdc-device.c ****   * @retval status
 449:application-library/usb-device/usb-cdc-device.c ****   */
 450:application-library/usb-device/usb-cdc-device.c **** uint8_t USBD_CDC_DeInit(USBD_Handle_t *p_usbd_instance, uint8_t cfgidx)
 451:application-library/usb-device/usb-cdc-device.c **** {
 452:application-library/usb-device/usb-cdc-device.c ****   UNUSED(cfgidx);
 453:application-library/usb-device/usb-cdc-device.c **** 
 454:application-library/usb-device/usb-cdc-device.c ****   /* Close EP IN */
 455:application-library/usb-device/usb-cdc-device.c ****   USBD_LL_CloseEP(p_usbd_instance, CDC_IN_EP);
 456:application-library/usb-device/usb-cdc-device.c ****   p_usbd_instance->ep_in[CDC_IN_EP & 0xFU].is_used = 0U;
 457:application-library/usb-device/usb-cdc-device.c **** 
 458:application-library/usb-device/usb-cdc-device.c ****   /* Close EP OUT */
 459:application-library/usb-device/usb-cdc-device.c ****   USBD_LL_CloseEP(p_usbd_instance, CDC_OUT_EP);
 460:application-library/usb-device/usb-cdc-device.c ****   p_usbd_instance->ep_out[CDC_OUT_EP & 0xFU].is_used = 0U;
 461:application-library/usb-device/usb-cdc-device.c **** 
 462:application-library/usb-device/usb-cdc-device.c ****   /* Close Command IN EP */
 463:application-library/usb-device/usb-cdc-device.c ****   USBD_LL_CloseEP(p_usbd_instance, CDC_CMD_EP);
 464:application-library/usb-device/usb-cdc-device.c ****   p_usbd_instance->ep_in[CDC_CMD_EP & 0xFU].is_used = 0U;
 465:application-library/usb-device/usb-cdc-device.c ****   p_usbd_instance->ep_in[CDC_CMD_EP & 0xFU].bInterval = 0U;
 466:application-library/usb-device/usb-cdc-device.c **** 
 467:application-library/usb-device/usb-cdc-device.c ****   /* DeInit  physical Interface components */
 468:application-library/usb-device/usb-cdc-device.c ****   if (p_usbd_instance->pClassDataCmsit != NULL)
 469:application-library/usb-device/usb-cdc-device.c ****   {
 470:application-library/usb-device/usb-cdc-device.c ****     ((USBD_CDC_ItfTypeDef *)p_usbd_instance->pUserData)->DeInit();
 471:application-library/usb-device/usb-cdc-device.c ****     USBD_static_free(p_usbd_instance->pClassDataCmsit);
 472:application-library/usb-device/usb-cdc-device.c ****     p_usbd_instance->pClassDataCmsit = NULL;
 473:application-library/usb-device/usb-cdc-device.c ****     p_usbd_instance->pClassData = NULL;
 474:application-library/usb-device/usb-cdc-device.c ****   }
 475:application-library/usb-device/usb-cdc-device.c **** 
 476:application-library/usb-device/usb-cdc-device.c ****   return (uint8_t)USBD_OK;
 477:application-library/usb-device/usb-cdc-device.c **** }
 478:application-library/usb-device/usb-cdc-device.c **** 
 479:application-library/usb-device/usb-cdc-device.c **** /**
 480:application-library/usb-device/usb-cdc-device.c ****   * @brief  USBD_CDC_Setup
 481:application-library/usb-device/usb-cdc-device.c ****   *         Handle the CDC specific requests
 482:application-library/usb-device/usb-cdc-device.c ****   * @param  p_usbd_instance: instance
 483:application-library/usb-device/usb-cdc-device.c ****   * @param  req: usb requests
ARM GAS  /tmp/ccfNPkge.s 			page 11


 484:application-library/usb-device/usb-cdc-device.c ****   * @retval status
 485:application-library/usb-device/usb-cdc-device.c ****   */
 486:application-library/usb-device/usb-cdc-device.c **** uint8_t USBD_CDC_Setup(USBD_Handle_t *p_usbd_instance,
 487:application-library/usb-device/usb-cdc-device.c ****                               USBD_SetupReqTypedef *req)
 488:application-library/usb-device/usb-cdc-device.c **** {
 489:application-library/usb-device/usb-cdc-device.c ****   USBD_CDC_Buffer_t *hcdc = (USBD_CDC_Buffer_t *)p_usbd_instance->pClassDataCmsit;
 490:application-library/usb-device/usb-cdc-device.c ****   uint16_t len;
 491:application-library/usb-device/usb-cdc-device.c ****   uint8_t ifalt = 0U;
 492:application-library/usb-device/usb-cdc-device.c ****   uint16_t status_info = 0U;
 493:application-library/usb-device/usb-cdc-device.c ****   USBD_StatusTypeDef ret = USBD_OK;
 494:application-library/usb-device/usb-cdc-device.c **** 
 495:application-library/usb-device/usb-cdc-device.c ****   if (hcdc == NULL)
 496:application-library/usb-device/usb-cdc-device.c ****   {
 497:application-library/usb-device/usb-cdc-device.c ****     return (uint8_t)USBD_FAIL;
 498:application-library/usb-device/usb-cdc-device.c ****   }
 499:application-library/usb-device/usb-cdc-device.c **** 
 500:application-library/usb-device/usb-cdc-device.c ****   switch (req->bmRequest & USB_REQ_TYPE_MASK)
 501:application-library/usb-device/usb-cdc-device.c ****   {
 502:application-library/usb-device/usb-cdc-device.c ****     case USB_REQ_TYPE_CLASS:
 503:application-library/usb-device/usb-cdc-device.c ****       if (req->wLength != 0U)
 504:application-library/usb-device/usb-cdc-device.c ****       {
 505:application-library/usb-device/usb-cdc-device.c ****         if ((req->bmRequest & 0x80U) != 0U)
 506:application-library/usb-device/usb-cdc-device.c ****         {
 507:application-library/usb-device/usb-cdc-device.c ****           ((USBD_CDC_ItfTypeDef *)p_usbd_instance->pUserData)->Control(req->bRequest,
 508:application-library/usb-device/usb-cdc-device.c ****                                                                            (uint8_t *)hcdc->data,
 509:application-library/usb-device/usb-cdc-device.c ****                                                                            req->wLength);
 510:application-library/usb-device/usb-cdc-device.c **** 
 511:application-library/usb-device/usb-cdc-device.c ****           len = MIN(CDC_REQ_MAX_DATA_SIZE, req->wLength);
 512:application-library/usb-device/usb-cdc-device.c ****           USBD_CtlSendData(p_usbd_instance, (uint8_t *)hcdc->data, len);
 513:application-library/usb-device/usb-cdc-device.c ****         }
 514:application-library/usb-device/usb-cdc-device.c ****         else
 515:application-library/usb-device/usb-cdc-device.c ****         {
 516:application-library/usb-device/usb-cdc-device.c ****           hcdc->CmdOpCode = req->bRequest;
 517:application-library/usb-device/usb-cdc-device.c ****           hcdc->CmdLength = (uint8_t)MIN(req->wLength, USB_MAX_EP0_SIZE);
 518:application-library/usb-device/usb-cdc-device.c **** 
 519:application-library/usb-device/usb-cdc-device.c ****           USBD_CtlPrepareRx(p_usbd_instance, (uint8_t *)hcdc->data, hcdc->CmdLength);
 520:application-library/usb-device/usb-cdc-device.c ****         }
 521:application-library/usb-device/usb-cdc-device.c ****       }
 522:application-library/usb-device/usb-cdc-device.c ****       else
 523:application-library/usb-device/usb-cdc-device.c ****       {
 524:application-library/usb-device/usb-cdc-device.c ****         ((USBD_CDC_ItfTypeDef *)p_usbd_instance->pUserData)->Control(req->bRequest,
 525:application-library/usb-device/usb-cdc-device.c ****                                                                          (uint8_t *)req, 0U);
 526:application-library/usb-device/usb-cdc-device.c ****       }
 527:application-library/usb-device/usb-cdc-device.c ****       break;
 528:application-library/usb-device/usb-cdc-device.c **** 
 529:application-library/usb-device/usb-cdc-device.c ****     case USB_REQ_TYPE_STANDARD:
 530:application-library/usb-device/usb-cdc-device.c ****       switch (req->bRequest)
 531:application-library/usb-device/usb-cdc-device.c ****       {
 532:application-library/usb-device/usb-cdc-device.c ****         case USB_REQ_GET_STATUS:
 533:application-library/usb-device/usb-cdc-device.c ****           if (p_usbd_instance->dev_state == USBD_STATE_CONFIGURED)
 534:application-library/usb-device/usb-cdc-device.c ****           {
 535:application-library/usb-device/usb-cdc-device.c ****             USBD_CtlSendData(p_usbd_instance, (uint8_t *)&status_info, 2U);
 536:application-library/usb-device/usb-cdc-device.c ****           }
 537:application-library/usb-device/usb-cdc-device.c ****           else
 538:application-library/usb-device/usb-cdc-device.c ****           {
 539:application-library/usb-device/usb-cdc-device.c ****             USBD_CtlError(p_usbd_instance, req);
 540:application-library/usb-device/usb-cdc-device.c ****             ret = USBD_FAIL;
ARM GAS  /tmp/ccfNPkge.s 			page 12


 541:application-library/usb-device/usb-cdc-device.c ****           }
 542:application-library/usb-device/usb-cdc-device.c ****           break;
 543:application-library/usb-device/usb-cdc-device.c **** 
 544:application-library/usb-device/usb-cdc-device.c ****         case USB_REQ_GET_INTERFACE:
 545:application-library/usb-device/usb-cdc-device.c ****           if (p_usbd_instance->dev_state == USBD_STATE_CONFIGURED)
 546:application-library/usb-device/usb-cdc-device.c ****           {
 547:application-library/usb-device/usb-cdc-device.c ****             USBD_CtlSendData(p_usbd_instance, &ifalt, 1U);
 548:application-library/usb-device/usb-cdc-device.c ****           }
 549:application-library/usb-device/usb-cdc-device.c ****           else
 550:application-library/usb-device/usb-cdc-device.c ****           {
 551:application-library/usb-device/usb-cdc-device.c ****             USBD_CtlError(p_usbd_instance, req);
 552:application-library/usb-device/usb-cdc-device.c ****             ret = USBD_FAIL;
 553:application-library/usb-device/usb-cdc-device.c ****           }
 554:application-library/usb-device/usb-cdc-device.c ****           break;
 555:application-library/usb-device/usb-cdc-device.c **** 
 556:application-library/usb-device/usb-cdc-device.c ****         case USB_REQ_SET_INTERFACE:
 557:application-library/usb-device/usb-cdc-device.c ****           if (p_usbd_instance->dev_state != USBD_STATE_CONFIGURED)
 558:application-library/usb-device/usb-cdc-device.c ****           {
 559:application-library/usb-device/usb-cdc-device.c ****             USBD_CtlError(p_usbd_instance, req);
 560:application-library/usb-device/usb-cdc-device.c ****             ret = USBD_FAIL;
 561:application-library/usb-device/usb-cdc-device.c ****           }
 562:application-library/usb-device/usb-cdc-device.c ****           break;
 563:application-library/usb-device/usb-cdc-device.c **** 
 564:application-library/usb-device/usb-cdc-device.c ****         case USB_REQ_CLEAR_FEATURE:
 565:application-library/usb-device/usb-cdc-device.c ****           break;
 566:application-library/usb-device/usb-cdc-device.c **** 
 567:application-library/usb-device/usb-cdc-device.c ****         default:
 568:application-library/usb-device/usb-cdc-device.c ****           USBD_CtlError(p_usbd_instance, req);
 569:application-library/usb-device/usb-cdc-device.c ****           ret = USBD_FAIL;
 570:application-library/usb-device/usb-cdc-device.c ****           break;
 571:application-library/usb-device/usb-cdc-device.c ****       }
 572:application-library/usb-device/usb-cdc-device.c ****       break;
 573:application-library/usb-device/usb-cdc-device.c **** 
 574:application-library/usb-device/usb-cdc-device.c ****     default:
 575:application-library/usb-device/usb-cdc-device.c ****       USBD_CtlError(p_usbd_instance, req);
 576:application-library/usb-device/usb-cdc-device.c ****       ret = USBD_FAIL;
 577:application-library/usb-device/usb-cdc-device.c ****       break;
 578:application-library/usb-device/usb-cdc-device.c ****   }
 579:application-library/usb-device/usb-cdc-device.c **** 
 580:application-library/usb-device/usb-cdc-device.c ****   return (uint8_t)ret;
 581:application-library/usb-device/usb-cdc-device.c **** }
 582:application-library/usb-device/usb-cdc-device.c **** 
 583:application-library/usb-device/usb-cdc-device.c **** 
 584:application-library/usb-device/usb-cdc-device.c **** /**
 585:application-library/usb-device/usb-cdc-device.c ****   * @brief  USBD_CDC_DataIn
 586:application-library/usb-device/usb-cdc-device.c ****   *         Data sent on non-control IN endpoint
 587:application-library/usb-device/usb-cdc-device.c ****   * @param  p_usbd_instance: device instance
 588:application-library/usb-device/usb-cdc-device.c ****   * @param  epnum: endpoint number
 589:application-library/usb-device/usb-cdc-device.c ****   * @retval status
 590:application-library/usb-device/usb-cdc-device.c ****   */
 591:application-library/usb-device/usb-cdc-device.c **** uint8_t USBD_CDC_DataIn(USBD_Handle_t *p_usbd_instance, uint8_t epnum)
 592:application-library/usb-device/usb-cdc-device.c **** {
 593:application-library/usb-device/usb-cdc-device.c ****   USBD_CDC_Buffer_t *hcdc;
 594:application-library/usb-device/usb-cdc-device.c ****   PCD_HandleTypeDef *hpcd = (PCD_HandleTypeDef *)p_usbd_instance->pData;
 595:application-library/usb-device/usb-cdc-device.c **** 
 596:application-library/usb-device/usb-cdc-device.c ****   if (p_usbd_instance->pClassDataCmsit == NULL)
 597:application-library/usb-device/usb-cdc-device.c ****   {
ARM GAS  /tmp/ccfNPkge.s 			page 13


 598:application-library/usb-device/usb-cdc-device.c ****     return (uint8_t)USBD_FAIL;
 599:application-library/usb-device/usb-cdc-device.c ****   }
 600:application-library/usb-device/usb-cdc-device.c **** 
 601:application-library/usb-device/usb-cdc-device.c ****   hcdc = (USBD_CDC_Buffer_t *)p_usbd_instance->pClassDataCmsit;
 602:application-library/usb-device/usb-cdc-device.c **** 
 603:application-library/usb-device/usb-cdc-device.c ****   if ((p_usbd_instance->ep_in[epnum & 0xFU].total_length > 0U) &&
 604:application-library/usb-device/usb-cdc-device.c ****       ((p_usbd_instance->ep_in[epnum & 0xFU].total_length % hpcd->IN_ep[epnum & 0xFU].maxpacket) ==
 605:application-library/usb-device/usb-cdc-device.c ****   {
 606:application-library/usb-device/usb-cdc-device.c ****     /* Update the packet total length */
 607:application-library/usb-device/usb-cdc-device.c ****     p_usbd_instance->ep_in[epnum & 0xFU].total_length = 0U;
 608:application-library/usb-device/usb-cdc-device.c **** 
 609:application-library/usb-device/usb-cdc-device.c ****     /* Send ZLP */
 610:application-library/usb-device/usb-cdc-device.c ****     USBD_LL_Transmit(p_usbd_instance, epnum, NULL, 0U);
 611:application-library/usb-device/usb-cdc-device.c ****   }
 612:application-library/usb-device/usb-cdc-device.c ****   else
 613:application-library/usb-device/usb-cdc-device.c ****   {
 614:application-library/usb-device/usb-cdc-device.c ****     hcdc->TxState = 0U;
 615:application-library/usb-device/usb-cdc-device.c **** 
 616:application-library/usb-device/usb-cdc-device.c ****     if (((USBD_CDC_ItfTypeDef *)p_usbd_instance->pUserData)->TransmitCplt != NULL)
 617:application-library/usb-device/usb-cdc-device.c ****     {
 618:application-library/usb-device/usb-cdc-device.c ****       ((USBD_CDC_ItfTypeDef *)p_usbd_instance->pUserData)->TransmitCplt(hcdc->TxBuffer, &hcdc->TxLe
 619:application-library/usb-device/usb-cdc-device.c ****     }
 620:application-library/usb-device/usb-cdc-device.c ****   }
 621:application-library/usb-device/usb-cdc-device.c **** 
 622:application-library/usb-device/usb-cdc-device.c ****   return (uint8_t)USBD_OK;
 623:application-library/usb-device/usb-cdc-device.c **** }
 624:application-library/usb-device/usb-cdc-device.c **** 
 625:application-library/usb-device/usb-cdc-device.c **** 
 626:application-library/usb-device/usb-cdc-device.c **** 
 627:application-library/usb-device/usb-cdc-device.c **** /**
 628:application-library/usb-device/usb-cdc-device.c ****   * @brief  USBD_CDC_DataOut
 629:application-library/usb-device/usb-cdc-device.c ****   *         Data received on non-control Out endpoint
 630:application-library/usb-device/usb-cdc-device.c ****   * @param  p_usbd_instance: device instance
 631:application-library/usb-device/usb-cdc-device.c ****   * @param  epnum: endpoint number
 632:application-library/usb-device/usb-cdc-device.c ****   * @retval status
 633:application-library/usb-device/usb-cdc-device.c ****   */
 634:application-library/usb-device/usb-cdc-device.c **** uint8_t USBD_CDC_DataOut(USBD_Handle_t *p_usbd_instance, uint8_t epnum)
 635:application-library/usb-device/usb-cdc-device.c **** {
 636:application-library/usb-device/usb-cdc-device.c ****   USBD_CDC_Buffer_t *hcdc = (USBD_CDC_Buffer_t *)p_usbd_instance->pClassDataCmsit;
 637:application-library/usb-device/usb-cdc-device.c **** 
 638:application-library/usb-device/usb-cdc-device.c ****   if (p_usbd_instance->pClassDataCmsit == NULL)
 639:application-library/usb-device/usb-cdc-device.c ****   {
 640:application-library/usb-device/usb-cdc-device.c ****     return (uint8_t)USBD_FAIL;
 641:application-library/usb-device/usb-cdc-device.c ****   }
 642:application-library/usb-device/usb-cdc-device.c **** 
 643:application-library/usb-device/usb-cdc-device.c ****   /* Get the received data length */
 644:application-library/usb-device/usb-cdc-device.c ****   hcdc->RxLength = USBD_LL_GetRxDataSize(p_usbd_instance, epnum);
 645:application-library/usb-device/usb-cdc-device.c **** 
 646:application-library/usb-device/usb-cdc-device.c ****   /* USB data will be immediately processed, this allow next USB traffic being
 647:application-library/usb-device/usb-cdc-device.c ****   NAKed till the end of the application Xfer */
 648:application-library/usb-device/usb-cdc-device.c **** 
 649:application-library/usb-device/usb-cdc-device.c ****   ((USBD_CDC_ItfTypeDef *)p_usbd_instance->pUserData)->Receive(hcdc->RxBuffer, &hcdc->RxLength);
 650:application-library/usb-device/usb-cdc-device.c **** 
 651:application-library/usb-device/usb-cdc-device.c ****   return (uint8_t)USBD_OK;
 652:application-library/usb-device/usb-cdc-device.c **** }
 653:application-library/usb-device/usb-cdc-device.c **** 
 654:application-library/usb-device/usb-cdc-device.c **** /**
ARM GAS  /tmp/ccfNPkge.s 			page 14


 655:application-library/usb-device/usb-cdc-device.c ****   * @brief  USBD_CDC_EP0_RxReady
 656:application-library/usb-device/usb-cdc-device.c ****   *         Handle EP0 Rx Ready event
 657:application-library/usb-device/usb-cdc-device.c ****   * @param  p_usbd_instance: device instance
 658:application-library/usb-device/usb-cdc-device.c ****   * @retval status
 659:application-library/usb-device/usb-cdc-device.c ****   */
 660:application-library/usb-device/usb-cdc-device.c **** uint8_t USBD_CDC_EP0_RxReady(USBD_Handle_t *p_usbd_instance)
 661:application-library/usb-device/usb-cdc-device.c **** {
  95              		.loc 1 661 0
  96              		.cfi_startproc
  97              		@ args = 0, pretend = 0, frame = 0
  98              		@ frame_needed = 0, uses_anonymous_args = 0
  99              	.LVL4:
 100 0000 10B5     		push	{r4, lr}
 101              	.LCFI0:
 102              		.cfi_def_cfa_offset 8
 103              		.cfi_offset 4, -8
 104              		.cfi_offset 14, -4
 662:application-library/usb-device/usb-cdc-device.c ****   USBD_CDC_Buffer_t *hcdc = (USBD_CDC_Buffer_t *)p_usbd_instance->pClassDataCmsit;
 105              		.loc 1 662 0
 106 0002 D0F8BC42 		ldr	r4, [r0, #700]
 107              	.LVL5:
 663:application-library/usb-device/usb-cdc-device.c **** 
 664:application-library/usb-device/usb-cdc-device.c ****   if (hcdc == NULL)
 108              		.loc 1 664 0
 109 0006 84B1     		cbz	r4, .L6
 665:application-library/usb-device/usb-cdc-device.c ****   {
 666:application-library/usb-device/usb-cdc-device.c ****     return (uint8_t)USBD_FAIL;
 667:application-library/usb-device/usb-cdc-device.c ****   }
 668:application-library/usb-device/usb-cdc-device.c **** 
 669:application-library/usb-device/usb-cdc-device.c ****   if ((p_usbd_instance->pUserData != NULL) && (hcdc->CmdOpCode != 0xFFU))
 110              		.loc 1 669 0
 111 0008 D0F8C032 		ldr	r3, [r0, #704]
 112 000c 7BB1     		cbz	r3, .L7
 113              		.loc 1 669 0 is_stmt 0 discriminator 1
 114 000e 94F80002 		ldrb	r0, [r4, #512]	@ zero_extendqisi2
 115              	.LVL6:
 116 0012 FF28     		cmp	r0, #255
 117 0014 0DD0     		beq	.L8
 670:application-library/usb-device/usb-cdc-device.c ****   {
 671:application-library/usb-device/usb-cdc-device.c ****     ((USBD_CDC_ItfTypeDef *)p_usbd_instance->pUserData)->Control(hcdc->CmdOpCode,
 118              		.loc 1 671 0 is_stmt 1
 119 0016 9B68     		ldr	r3, [r3, #8]
 120 0018 94F80122 		ldrb	r2, [r4, #513]	@ zero_extendqisi2
 121 001c 2146     		mov	r1, r4
 122 001e 9847     		blx	r3
 123              	.LVL7:
 672:application-library/usb-device/usb-cdc-device.c ****                                                                      (uint8_t *)hcdc->data,
 673:application-library/usb-device/usb-cdc-device.c ****                                                                      (uint16_t)hcdc->CmdLength);
 674:application-library/usb-device/usb-cdc-device.c ****     hcdc->CmdOpCode = 0xFFU;
 124              		.loc 1 674 0
 125 0020 FF23     		movs	r3, #255
 126 0022 84F80032 		strb	r3, [r4, #512]
 675:application-library/usb-device/usb-cdc-device.c ****   }
 676:application-library/usb-device/usb-cdc-device.c **** 
 677:application-library/usb-device/usb-cdc-device.c ****   return (uint8_t)USBD_OK;
 127              		.loc 1 677 0
 128 0026 0020     		movs	r0, #0
ARM GAS  /tmp/ccfNPkge.s 			page 15


 129 0028 10BD     		pop	{r4, pc}
 130              	.LVL8:
 131              	.L6:
 666:application-library/usb-device/usb-cdc-device.c ****   }
 132              		.loc 1 666 0
 133 002a 0320     		movs	r0, #3
 134              	.LVL9:
 135 002c 10BD     		pop	{r4, pc}
 136              	.LVL10:
 137              	.L7:
 138              		.loc 1 677 0
 139 002e 0020     		movs	r0, #0
 140              	.LVL11:
 141 0030 10BD     		pop	{r4, pc}
 142              	.LVL12:
 143              	.L8:
 144 0032 0020     		movs	r0, #0
 678:application-library/usb-device/usb-cdc-device.c **** }
 145              		.loc 1 678 0
 146 0034 10BD     		pop	{r4, pc}
 147              		.cfi_endproc
 148              	.LFE144:
 150              		.section	.text.USBD_CDC_GetDeviceQualifierDescriptor,"ax",%progbits
 151              		.align	1
 152              		.global	USBD_CDC_GetDeviceQualifierDescriptor
 153              		.syntax unified
 154              		.thumb
 155              		.thumb_func
 156              		.fpu fpv4-sp-d16
 158              	USBD_CDC_GetDeviceQualifierDescriptor:
 159              	.LFB148:
 679:application-library/usb-device/usb-cdc-device.c **** /**
 680:application-library/usb-device/usb-cdc-device.c ****   * @brief  Get full speed configuration descriptor.
 681:application-library/usb-device/usb-cdc-device.c ****   * @param  length : pointer data length
 682:application-library/usb-device/usb-cdc-device.c ****   * @retval pointer to descriptor buffer
 683:application-library/usb-device/usb-cdc-device.c ****   */
 684:application-library/usb-device/usb-cdc-device.c **** uint8_t *USBD_CDC_GetFSCfgDesc(uint16_t *length)
 685:application-library/usb-device/usb-cdc-device.c **** {
 686:application-library/usb-device/usb-cdc-device.c ****   USBD_EpDescTypeDef *pEpCmdDesc = USBD_GetEpDesc(USBD_CDC_CfgDesc, CDC_CMD_EP);
 687:application-library/usb-device/usb-cdc-device.c ****   USBD_EpDescTypeDef *pEpOutDesc = USBD_GetEpDesc(USBD_CDC_CfgDesc, CDC_OUT_EP);
 688:application-library/usb-device/usb-cdc-device.c ****   USBD_EpDescTypeDef *pEpInDesc = USBD_GetEpDesc(USBD_CDC_CfgDesc, CDC_IN_EP);
 689:application-library/usb-device/usb-cdc-device.c **** 
 690:application-library/usb-device/usb-cdc-device.c ****   if (pEpCmdDesc != NULL)
 691:application-library/usb-device/usb-cdc-device.c ****   {
 692:application-library/usb-device/usb-cdc-device.c ****     pEpCmdDesc->bInterval = CDC_FS_BINTERVAL;
 693:application-library/usb-device/usb-cdc-device.c ****   }
 694:application-library/usb-device/usb-cdc-device.c **** 
 695:application-library/usb-device/usb-cdc-device.c ****   if (pEpOutDesc != NULL)
 696:application-library/usb-device/usb-cdc-device.c ****   {
 697:application-library/usb-device/usb-cdc-device.c ****     pEpOutDesc->wMaxPacketSize = CDC_DATA_FS_MAX_PACKET_SIZE;
 698:application-library/usb-device/usb-cdc-device.c ****   }
 699:application-library/usb-device/usb-cdc-device.c **** 
 700:application-library/usb-device/usb-cdc-device.c ****   if (pEpInDesc != NULL)
 701:application-library/usb-device/usb-cdc-device.c ****   {
 702:application-library/usb-device/usb-cdc-device.c ****     pEpInDesc->wMaxPacketSize = CDC_DATA_FS_MAX_PACKET_SIZE;
 703:application-library/usb-device/usb-cdc-device.c ****   }
 704:application-library/usb-device/usb-cdc-device.c **** 
ARM GAS  /tmp/ccfNPkge.s 			page 16


 705:application-library/usb-device/usb-cdc-device.c ****   *length = (uint16_t)sizeof(USBD_CDC_CfgDesc);
 706:application-library/usb-device/usb-cdc-device.c ****   return USBD_CDC_CfgDesc;
 707:application-library/usb-device/usb-cdc-device.c **** }
 708:application-library/usb-device/usb-cdc-device.c **** 
 709:application-library/usb-device/usb-cdc-device.c **** /**
 710:application-library/usb-device/usb-cdc-device.c ****   * @brief  Return configuration descriptor
 711:application-library/usb-device/usb-cdc-device.c ****   * @param  length : pointer data length
 712:application-library/usb-device/usb-cdc-device.c ****   * @retval pointer to descriptor buffer
 713:application-library/usb-device/usb-cdc-device.c ****   */
 714:application-library/usb-device/usb-cdc-device.c **** uint8_t *USBD_CDC_GetHSCfgDesc(uint16_t *length)
 715:application-library/usb-device/usb-cdc-device.c **** {
 716:application-library/usb-device/usb-cdc-device.c ****   USBD_EpDescTypeDef *pEpCmdDesc = USBD_GetEpDesc(USBD_CDC_CfgDesc, CDC_CMD_EP);
 717:application-library/usb-device/usb-cdc-device.c ****   USBD_EpDescTypeDef *pEpOutDesc = USBD_GetEpDesc(USBD_CDC_CfgDesc, CDC_OUT_EP);
 718:application-library/usb-device/usb-cdc-device.c ****   USBD_EpDescTypeDef *pEpInDesc = USBD_GetEpDesc(USBD_CDC_CfgDesc, CDC_IN_EP);
 719:application-library/usb-device/usb-cdc-device.c **** 
 720:application-library/usb-device/usb-cdc-device.c ****   if (pEpCmdDesc != NULL)
 721:application-library/usb-device/usb-cdc-device.c ****   {
 722:application-library/usb-device/usb-cdc-device.c ****     pEpCmdDesc->bInterval = CDC_HS_BINTERVAL;
 723:application-library/usb-device/usb-cdc-device.c ****   }
 724:application-library/usb-device/usb-cdc-device.c **** 
 725:application-library/usb-device/usb-cdc-device.c ****   if (pEpOutDesc != NULL)
 726:application-library/usb-device/usb-cdc-device.c ****   {
 727:application-library/usb-device/usb-cdc-device.c ****     pEpOutDesc->wMaxPacketSize = CDC_DATA_HS_MAX_PACKET_SIZE;
 728:application-library/usb-device/usb-cdc-device.c ****   }
 729:application-library/usb-device/usb-cdc-device.c **** 
 730:application-library/usb-device/usb-cdc-device.c ****   if (pEpInDesc != NULL)
 731:application-library/usb-device/usb-cdc-device.c ****   {
 732:application-library/usb-device/usb-cdc-device.c ****     pEpInDesc->wMaxPacketSize = CDC_DATA_HS_MAX_PACKET_SIZE;
 733:application-library/usb-device/usb-cdc-device.c ****   }
 734:application-library/usb-device/usb-cdc-device.c **** 
 735:application-library/usb-device/usb-cdc-device.c ****   *length = (uint16_t)sizeof(USBD_CDC_CfgDesc);
 736:application-library/usb-device/usb-cdc-device.c ****   return USBD_CDC_CfgDesc;
 737:application-library/usb-device/usb-cdc-device.c **** }
 738:application-library/usb-device/usb-cdc-device.c **** 
 739:application-library/usb-device/usb-cdc-device.c **** /**
 740:application-library/usb-device/usb-cdc-device.c ****   * @brief  USBD_CDC_GetOtherSpeedCfgDesc
 741:application-library/usb-device/usb-cdc-device.c ****   *         Return configuration descriptor
 742:application-library/usb-device/usb-cdc-device.c ****   * @param  length : pointer data length
 743:application-library/usb-device/usb-cdc-device.c ****   * @retval pointer to descriptor buffer
 744:application-library/usb-device/usb-cdc-device.c ****   */
 745:application-library/usb-device/usb-cdc-device.c **** uint8_t *USBD_CDC_GetOtherSpeedCfgDesc(uint16_t *length)
 746:application-library/usb-device/usb-cdc-device.c **** {
 747:application-library/usb-device/usb-cdc-device.c ****   USBD_EpDescTypeDef *pEpCmdDesc = USBD_GetEpDesc(USBD_CDC_CfgDesc, CDC_CMD_EP);
 748:application-library/usb-device/usb-cdc-device.c ****   USBD_EpDescTypeDef *pEpOutDesc = USBD_GetEpDesc(USBD_CDC_CfgDesc, CDC_OUT_EP);
 749:application-library/usb-device/usb-cdc-device.c ****   USBD_EpDescTypeDef *pEpInDesc = USBD_GetEpDesc(USBD_CDC_CfgDesc, CDC_IN_EP);
 750:application-library/usb-device/usb-cdc-device.c **** 
 751:application-library/usb-device/usb-cdc-device.c ****   if (pEpCmdDesc != NULL)
 752:application-library/usb-device/usb-cdc-device.c ****   {
 753:application-library/usb-device/usb-cdc-device.c ****     pEpCmdDesc->bInterval = CDC_FS_BINTERVAL;
 754:application-library/usb-device/usb-cdc-device.c ****   }
 755:application-library/usb-device/usb-cdc-device.c **** 
 756:application-library/usb-device/usb-cdc-device.c ****   if (pEpOutDesc != NULL)
 757:application-library/usb-device/usb-cdc-device.c ****   {
 758:application-library/usb-device/usb-cdc-device.c ****     pEpOutDesc->wMaxPacketSize = CDC_DATA_FS_MAX_PACKET_SIZE;
 759:application-library/usb-device/usb-cdc-device.c ****   }
 760:application-library/usb-device/usb-cdc-device.c **** 
 761:application-library/usb-device/usb-cdc-device.c ****   if (pEpInDesc != NULL)
ARM GAS  /tmp/ccfNPkge.s 			page 17


 762:application-library/usb-device/usb-cdc-device.c ****   {
 763:application-library/usb-device/usb-cdc-device.c ****     pEpInDesc->wMaxPacketSize = CDC_DATA_FS_MAX_PACKET_SIZE;
 764:application-library/usb-device/usb-cdc-device.c ****   }
 765:application-library/usb-device/usb-cdc-device.c **** 
 766:application-library/usb-device/usb-cdc-device.c ****   *length = (uint16_t)sizeof(USBD_CDC_CfgDesc);
 767:application-library/usb-device/usb-cdc-device.c ****   return USBD_CDC_CfgDesc;
 768:application-library/usb-device/usb-cdc-device.c **** }
 769:application-library/usb-device/usb-cdc-device.c **** 
 770:application-library/usb-device/usb-cdc-device.c **** /**
 771:application-library/usb-device/usb-cdc-device.c ****   * @brief  Get Device Qualifier descriptor
 772:application-library/usb-device/usb-cdc-device.c ****   * @param  length : pointer data length
 773:application-library/usb-device/usb-cdc-device.c ****   * @retval pointer to descriptor buffer
 774:application-library/usb-device/usb-cdc-device.c ****   */
 775:application-library/usb-device/usb-cdc-device.c **** uint8_t *USBD_CDC_GetDeviceQualifierDescriptor(uint16_t *length)
 776:application-library/usb-device/usb-cdc-device.c **** {
 160              		.loc 1 776 0
 161              		.cfi_startproc
 162              		@ args = 0, pretend = 0, frame = 0
 163              		@ frame_needed = 0, uses_anonymous_args = 0
 164              		@ link register save eliminated.
 165              	.LVL13:
 777:application-library/usb-device/usb-cdc-device.c ****   *length = (uint16_t)sizeof(USBD_CDC_DeviceQualifierDesc);
 166              		.loc 1 777 0
 167 0000 0A23     		movs	r3, #10
 168 0002 0380     		strh	r3, [r0]	@ movhi
 778:application-library/usb-device/usb-cdc-device.c **** 
 779:application-library/usb-device/usb-cdc-device.c ****   return USBD_CDC_DeviceQualifierDesc;
 780:application-library/usb-device/usb-cdc-device.c **** }
 169              		.loc 1 780 0
 170 0004 0048     		ldr	r0, .L11
 171              	.LVL14:
 172 0006 7047     		bx	lr
 173              	.L12:
 174              		.align	2
 175              	.L11:
 176 0008 00000000 		.word	.LANCHOR0
 177              		.cfi_endproc
 178              	.LFE148:
 180              		.section	.text.USBD_FS_DeviceDescriptor,"ax",%progbits
 181              		.align	1
 182              		.global	USBD_FS_DeviceDescriptor
 183              		.syntax unified
 184              		.thumb
 185              		.thumb_func
 186              		.fpu fpv4-sp-d16
 188              	USBD_FS_DeviceDescriptor:
 189              	.LFB224:
 781:application-library/usb-device/usb-cdc-device.c **** 
 782:application-library/usb-device/usb-cdc-device.c **** /**
 783:application-library/usb-device/usb-cdc-device.c ****   * @brief  USBD_CDC_RegisterInterface
 784:application-library/usb-device/usb-cdc-device.c ****   * @param  p_usbd_instance: device instance
 785:application-library/usb-device/usb-cdc-device.c ****   * @param  fops: CD  Interface callback
 786:application-library/usb-device/usb-cdc-device.c ****   * @retval status
 787:application-library/usb-device/usb-cdc-device.c ****   */
 788:application-library/usb-device/usb-cdc-device.c **** uint8_t USBD_CDC_RegisterInterface(USBD_Handle_t *p_usbd_instance,
 789:application-library/usb-device/usb-cdc-device.c ****                                    USBD_CDC_ItfTypeDef *fops)
 790:application-library/usb-device/usb-cdc-device.c **** {
ARM GAS  /tmp/ccfNPkge.s 			page 18


 791:application-library/usb-device/usb-cdc-device.c ****   if (fops == NULL)
 792:application-library/usb-device/usb-cdc-device.c ****   {
 793:application-library/usb-device/usb-cdc-device.c ****     return (uint8_t)USBD_FAIL;
 794:application-library/usb-device/usb-cdc-device.c ****   }
 795:application-library/usb-device/usb-cdc-device.c **** 
 796:application-library/usb-device/usb-cdc-device.c ****   p_usbd_instance->pUserData = fops;
 797:application-library/usb-device/usb-cdc-device.c **** 
 798:application-library/usb-device/usb-cdc-device.c ****   return (uint8_t)USBD_OK;
 799:application-library/usb-device/usb-cdc-device.c **** }
 800:application-library/usb-device/usb-cdc-device.c **** 
 801:application-library/usb-device/usb-cdc-device.c **** /**
 802:application-library/usb-device/usb-cdc-device.c ****   * @brief  USBD_CDC_SetTxBuffer
 803:application-library/usb-device/usb-cdc-device.c ****   * @param  p_usbd_instance: device instance
 804:application-library/usb-device/usb-cdc-device.c ****   * @param  pbuff: Tx Buffer
 805:application-library/usb-device/usb-cdc-device.c ****   * @param  length: Tx Buffer length
 806:application-library/usb-device/usb-cdc-device.c ****   * @retval None.
 807:application-library/usb-device/usb-cdc-device.c ****   */
 808:application-library/usb-device/usb-cdc-device.c **** void USBD_CDC_SetTxBuffer(USBD_Handle_t *p_usbd_instance,
 809:application-library/usb-device/usb-cdc-device.c ****                              uint8_t *pbuff, uint32_t length)
 810:application-library/usb-device/usb-cdc-device.c **** {
 811:application-library/usb-device/usb-cdc-device.c ****   USBD_CDC_Buffer_t *hcdc = (USBD_CDC_Buffer_t *)p_usbd_instance->pClassDataCmsit;
 812:application-library/usb-device/usb-cdc-device.c **** 
 813:application-library/usb-device/usb-cdc-device.c ****   hcdc->TxBuffer = pbuff;
 814:application-library/usb-device/usb-cdc-device.c ****   hcdc->TxLength = length;
 815:application-library/usb-device/usb-cdc-device.c **** }
 816:application-library/usb-device/usb-cdc-device.c **** 
 817:application-library/usb-device/usb-cdc-device.c **** /**
 818:application-library/usb-device/usb-cdc-device.c ****   * @brief  USBD_CDC_SetRxBuffer
 819:application-library/usb-device/usb-cdc-device.c ****   * @param  p_usbd_instance: device instance
 820:application-library/usb-device/usb-cdc-device.c ****   * @param  pbuff: Rx Buffer
 821:application-library/usb-device/usb-cdc-device.c ****   * @retval status
 822:application-library/usb-device/usb-cdc-device.c ****   */
 823:application-library/usb-device/usb-cdc-device.c **** uint8_t USBD_CDC_SetRxBuffer(USBD_Handle_t *p_usbd_instance, uint8_t *pbuff)
 824:application-library/usb-device/usb-cdc-device.c **** {
 825:application-library/usb-device/usb-cdc-device.c ****   USBD_CDC_Buffer_t *hcdc = (USBD_CDC_Buffer_t *)p_usbd_instance->pClassDataCmsit;
 826:application-library/usb-device/usb-cdc-device.c **** 
 827:application-library/usb-device/usb-cdc-device.c ****   if (hcdc == NULL)
 828:application-library/usb-device/usb-cdc-device.c ****   {
 829:application-library/usb-device/usb-cdc-device.c ****     return (uint8_t)USBD_FAIL;
 830:application-library/usb-device/usb-cdc-device.c ****   }
 831:application-library/usb-device/usb-cdc-device.c **** 
 832:application-library/usb-device/usb-cdc-device.c ****   hcdc->RxBuffer = pbuff;
 833:application-library/usb-device/usb-cdc-device.c **** 
 834:application-library/usb-device/usb-cdc-device.c ****   return (uint8_t)USBD_OK;
 835:application-library/usb-device/usb-cdc-device.c **** }
 836:application-library/usb-device/usb-cdc-device.c **** 
 837:application-library/usb-device/usb-cdc-device.c **** 
 838:application-library/usb-device/usb-cdc-device.c **** /**
 839:application-library/usb-device/usb-cdc-device.c ****   * @brief  USBD_CDC_ReceivePacket
 840:application-library/usb-device/usb-cdc-device.c ****   *         prepare OUT Endpoint for reception
 841:application-library/usb-device/usb-cdc-device.c ****   * @param  p_usbd_instance: device instance
 842:application-library/usb-device/usb-cdc-device.c ****   * @retval status
 843:application-library/usb-device/usb-cdc-device.c ****   */
 844:application-library/usb-device/usb-cdc-device.c **** uint8_t USBD_CDC_ReceivePacket(USBD_Handle_t *p_usbd_instance)
 845:application-library/usb-device/usb-cdc-device.c **** {
 846:application-library/usb-device/usb-cdc-device.c ****   USBD_CDC_Buffer_t *hcdc = (USBD_CDC_Buffer_t *)p_usbd_instance->pClassDataCmsit;
 847:application-library/usb-device/usb-cdc-device.c **** 
ARM GAS  /tmp/ccfNPkge.s 			page 19


 848:application-library/usb-device/usb-cdc-device.c ****   if (p_usbd_instance->pClassDataCmsit == NULL)
 849:application-library/usb-device/usb-cdc-device.c ****   {
 850:application-library/usb-device/usb-cdc-device.c ****     return (uint8_t)USBD_FAIL;
 851:application-library/usb-device/usb-cdc-device.c ****   }
 852:application-library/usb-device/usb-cdc-device.c **** 
 853:application-library/usb-device/usb-cdc-device.c ****   if (p_usbd_instance->dev_speed == USBD_SPEED_HIGH)
 854:application-library/usb-device/usb-cdc-device.c ****   {
 855:application-library/usb-device/usb-cdc-device.c ****     /* Prepare Out endpoint to receive next packet */
 856:application-library/usb-device/usb-cdc-device.c ****     USBD_LL_PrepareReceive(p_usbd_instance, CDC_OUT_EP, hcdc->RxBuffer,
 857:application-library/usb-device/usb-cdc-device.c ****                                  CDC_DATA_HS_OUT_PACKET_SIZE);
 858:application-library/usb-device/usb-cdc-device.c ****   }
 859:application-library/usb-device/usb-cdc-device.c ****   else
 860:application-library/usb-device/usb-cdc-device.c ****   {
 861:application-library/usb-device/usb-cdc-device.c ****     /* Prepare Out endpoint to receive next packet */
 862:application-library/usb-device/usb-cdc-device.c ****     USBD_LL_PrepareReceive(p_usbd_instance, CDC_OUT_EP, hcdc->RxBuffer,
 863:application-library/usb-device/usb-cdc-device.c ****                                  CDC_DATA_FS_OUT_PACKET_SIZE);
 864:application-library/usb-device/usb-cdc-device.c ****   }
 865:application-library/usb-device/usb-cdc-device.c **** 
 866:application-library/usb-device/usb-cdc-device.c ****   return (uint8_t)USBD_OK;
 867:application-library/usb-device/usb-cdc-device.c **** }
 868:application-library/usb-device/usb-cdc-device.c **** 
 869:application-library/usb-device/usb-cdc-device.c **** /**
 870:application-library/usb-device/usb-cdc-device.c ****   * @brief  Initializes the device stack and load the class driver
 871:application-library/usb-device/usb-cdc-device.c ****   * @param  p_usbd_instance: device instance
 872:application-library/usb-device/usb-cdc-device.c ****   * @param  pdesc: Descriptor structure address
 873:application-library/usb-device/usb-cdc-device.c ****   * @param  id: Low level core index
 874:application-library/usb-device/usb-cdc-device.c ****   * @retval None
 875:application-library/usb-device/usb-cdc-device.c ****   */
 876:application-library/usb-device/usb-cdc-device.c **** USBD_StatusTypeDef USBD_Init(USBD_Handle_t *p_usbd_instance,
 877:application-library/usb-device/usb-cdc-device.c ****                              USBD_DescriptorsTypeDef *pdesc, uint8_t id)
 878:application-library/usb-device/usb-cdc-device.c **** {
 879:application-library/usb-device/usb-cdc-device.c ****   USBD_StatusTypeDef ret;
 880:application-library/usb-device/usb-cdc-device.c ****   /* Check whether the USB Host handle is valid */
 881:application-library/usb-device/usb-cdc-device.c ****   if (p_usbd_instance == NULL)
 882:application-library/usb-device/usb-cdc-device.c ****   {
 883:application-library/usb-device/usb-cdc-device.c ****     return USBD_FAIL;
 884:application-library/usb-device/usb-cdc-device.c ****   }
 885:application-library/usb-device/usb-cdc-device.c ****   /* Unlink previous class*/
 886:application-library/usb-device/usb-cdc-device.c ****   p_usbd_instance->pClass = NULL;
 887:application-library/usb-device/usb-cdc-device.c ****   p_usbd_instance->pUserData = NULL;
 888:application-library/usb-device/usb-cdc-device.c ****   p_usbd_instance->pConfDesc = NULL;
 889:application-library/usb-device/usb-cdc-device.c **** 
 890:application-library/usb-device/usb-cdc-device.c ****   /* Assign USBD Descriptors */
 891:application-library/usb-device/usb-cdc-device.c ****   if (pdesc != NULL)
 892:application-library/usb-device/usb-cdc-device.c ****   {
 893:application-library/usb-device/usb-cdc-device.c ****     p_usbd_instance->pDesc = pdesc;
 894:application-library/usb-device/usb-cdc-device.c ****   }
 895:application-library/usb-device/usb-cdc-device.c ****   /* Set Device initial State */
 896:application-library/usb-device/usb-cdc-device.c ****   p_usbd_instance->dev_state = USBD_STATE_DEFAULT;  // DEFAULT - ADDRESSED - CONFIGURED - SUSPEND
 897:application-library/usb-device/usb-cdc-device.c ****   p_usbd_instance->id = id; // DEVICE_FS (0)
 898:application-library/usb-device/usb-cdc-device.c ****   /* Initialize low level driver */
 899:application-library/usb-device/usb-cdc-device.c ****   ret = USBD_LL_Init(p_usbd_instance); // configure the TX or the RX FIFO of the new defined endpor
 900:application-library/usb-device/usb-cdc-device.c **** 
 901:application-library/usb-device/usb-cdc-device.c ****   return ret;
 902:application-library/usb-device/usb-cdc-device.c **** }
 903:application-library/usb-device/usb-cdc-device.c **** 
 904:application-library/usb-device/usb-cdc-device.c **** /**
ARM GAS  /tmp/ccfNPkge.s 			page 20


 905:application-library/usb-device/usb-cdc-device.c ****   * @brief  USBD_DeInit
 906:application-library/usb-device/usb-cdc-device.c ****   *         Re-Initialize the device library
 907:application-library/usb-device/usb-cdc-device.c ****   * @param  p_usbd_instance: device instance
 908:application-library/usb-device/usb-cdc-device.c ****   * @retval status: status
 909:application-library/usb-device/usb-cdc-device.c ****   */
 910:application-library/usb-device/usb-cdc-device.c **** USBD_StatusTypeDef USBD_DeInit(USBD_Handle_t *p_usbd_instance)
 911:application-library/usb-device/usb-cdc-device.c **** {
 912:application-library/usb-device/usb-cdc-device.c ****   USBD_StatusTypeDef ret;
 913:application-library/usb-device/usb-cdc-device.c **** 
 914:application-library/usb-device/usb-cdc-device.c ****   /* Disconnect the USB Device */
 915:application-library/usb-device/usb-cdc-device.c ****   USBD_LL_Stop(p_usbd_instance);
 916:application-library/usb-device/usb-cdc-device.c **** 
 917:application-library/usb-device/usb-cdc-device.c ****   /* Set Default State */
 918:application-library/usb-device/usb-cdc-device.c ****   p_usbd_instance->dev_state = USBD_STATE_DEFAULT;
 919:application-library/usb-device/usb-cdc-device.c **** 
 920:application-library/usb-device/usb-cdc-device.c ****   /* Free Class Resources */
 921:application-library/usb-device/usb-cdc-device.c ****   if (p_usbd_instance->pClass != NULL)
 922:application-library/usb-device/usb-cdc-device.c ****   {
 923:application-library/usb-device/usb-cdc-device.c ****     p_usbd_instance->pClass->DeInit(p_usbd_instance, (uint8_t)p_usbd_instance->dev_config);
 924:application-library/usb-device/usb-cdc-device.c ****   }
 925:application-library/usb-device/usb-cdc-device.c **** 
 926:application-library/usb-device/usb-cdc-device.c ****   p_usbd_instance->pUserData = NULL;
 927:application-library/usb-device/usb-cdc-device.c **** 
 928:application-library/usb-device/usb-cdc-device.c ****   /* Free Device descriptors resources */
 929:application-library/usb-device/usb-cdc-device.c ****   p_usbd_instance->pDesc = NULL;
 930:application-library/usb-device/usb-cdc-device.c ****   p_usbd_instance->pConfDesc = NULL;
 931:application-library/usb-device/usb-cdc-device.c **** 
 932:application-library/usb-device/usb-cdc-device.c ****   /* DeInitialize low level driver */
 933:application-library/usb-device/usb-cdc-device.c ****   ret = USBD_LL_DeInit(p_usbd_instance);
 934:application-library/usb-device/usb-cdc-device.c **** 
 935:application-library/usb-device/usb-cdc-device.c ****   return ret;
 936:application-library/usb-device/usb-cdc-device.c **** }
 937:application-library/usb-device/usb-cdc-device.c **** 
 938:application-library/usb-device/usb-cdc-device.c **** /**
 939:application-library/usb-device/usb-cdc-device.c ****   * @brief  USBD_RegisterClass
 940:application-library/usb-device/usb-cdc-device.c ****   *         Link class driver to Device Core.
 941:application-library/usb-device/usb-cdc-device.c ****   * @param  p_usbd_instanceice : Device Handle
 942:application-library/usb-device/usb-cdc-device.c ****   * @param  pclass: Class handle
 943:application-library/usb-device/usb-cdc-device.c ****   * @retval USBD Status
 944:application-library/usb-device/usb-cdc-device.c ****   */
 945:application-library/usb-device/usb-cdc-device.c **** USBD_StatusTypeDef USBD_RegisterClass(USBD_Handle_t *p_usbd_instance, USBD_ClassTypeDef *pclass)
 946:application-library/usb-device/usb-cdc-device.c **** {
 947:application-library/usb-device/usb-cdc-device.c ****   uint16_t len = 0U;
 948:application-library/usb-device/usb-cdc-device.c **** 
 949:application-library/usb-device/usb-cdc-device.c ****   if (pclass == NULL)
 950:application-library/usb-device/usb-cdc-device.c ****   {
 951:application-library/usb-device/usb-cdc-device.c ****     return USBD_FAIL;
 952:application-library/usb-device/usb-cdc-device.c ****   }
 953:application-library/usb-device/usb-cdc-device.c ****   /* link the class to the USB Device handle */
 954:application-library/usb-device/usb-cdc-device.c ****   p_usbd_instance->pClass = pclass;
 955:application-library/usb-device/usb-cdc-device.c **** 
 956:application-library/usb-device/usb-cdc-device.c ****   /* Get Device Configuration Descriptor */
 957:application-library/usb-device/usb-cdc-device.c ****   if (p_usbd_instance->pClass->GetFSConfigDescriptor != NULL)
 958:application-library/usb-device/usb-cdc-device.c ****   {
 959:application-library/usb-device/usb-cdc-device.c ****     p_usbd_instance->pConfDesc = (void *)p_usbd_instance->pClass->GetFSConfigDescriptor(&len);
 960:application-library/usb-device/usb-cdc-device.c ****   }
 961:application-library/usb-device/usb-cdc-device.c ****   /* Increment the NumClasses */
ARM GAS  /tmp/ccfNPkge.s 			page 21


 962:application-library/usb-device/usb-cdc-device.c ****   p_usbd_instance->NumClasses ++;
 963:application-library/usb-device/usb-cdc-device.c ****   return USBD_OK;
 964:application-library/usb-device/usb-cdc-device.c **** }
 965:application-library/usb-device/usb-cdc-device.c **** 
 966:application-library/usb-device/usb-cdc-device.c **** 
 967:application-library/usb-device/usb-cdc-device.c **** /**
 968:application-library/usb-device/usb-cdc-device.c ****   * @brief  USBD_Start
 969:application-library/usb-device/usb-cdc-device.c ****   *         Start the USB Device Core.
 970:application-library/usb-device/usb-cdc-device.c ****   * @param  p_usbd_instance: Device Handle
 971:application-library/usb-device/usb-cdc-device.c ****   * @retval USBD Status
 972:application-library/usb-device/usb-cdc-device.c ****   */
 973:application-library/usb-device/usb-cdc-device.c **** USBD_StatusTypeDef USBD_Start(USBD_Handle_t *p_usbd_instance)
 974:application-library/usb-device/usb-cdc-device.c **** {
 975:application-library/usb-device/usb-cdc-device.c ****   /* Start the low level driver  */
 976:application-library/usb-device/usb-cdc-device.c ****   // return USBD_LL_Start(p_usbd_instance);
 977:application-library/usb-device/usb-cdc-device.c ****   HAL_StatusTypeDef hal_status = HAL_OK;
 978:application-library/usb-device/usb-cdc-device.c ****   USBD_StatusTypeDef usb_status = USBD_OK;
 979:application-library/usb-device/usb-cdc-device.c **** 
 980:application-library/usb-device/usb-cdc-device.c ****   /* Enable USB Transciver */
 981:application-library/usb-device/usb-cdc-device.c ****   hal_status = HAL_PCD_Start(p_usbd_instance->pData);
 982:application-library/usb-device/usb-cdc-device.c **** 
 983:application-library/usb-device/usb-cdc-device.c ****   // usb_status =  USBD_Get_USB_Status(hal_status); /* defined in usbd_conf.c */
 984:application-library/usb-device/usb-cdc-device.c ****   switch (hal_status)
 985:application-library/usb-device/usb-cdc-device.c ****   {
 986:application-library/usb-device/usb-cdc-device.c ****     case HAL_OK :
 987:application-library/usb-device/usb-cdc-device.c ****       usb_status = USBD_OK;
 988:application-library/usb-device/usb-cdc-device.c ****     break;
 989:application-library/usb-device/usb-cdc-device.c ****     case HAL_ERROR :
 990:application-library/usb-device/usb-cdc-device.c ****       usb_status = USBD_FAIL;
 991:application-library/usb-device/usb-cdc-device.c ****     break;
 992:application-library/usb-device/usb-cdc-device.c ****     case HAL_BUSY :
 993:application-library/usb-device/usb-cdc-device.c ****       usb_status = USBD_BUSY;
 994:application-library/usb-device/usb-cdc-device.c ****     break;
 995:application-library/usb-device/usb-cdc-device.c ****     case HAL_TIMEOUT :
 996:application-library/usb-device/usb-cdc-device.c ****       usb_status = USBD_FAIL;
 997:application-library/usb-device/usb-cdc-device.c ****     break;
 998:application-library/usb-device/usb-cdc-device.c ****     default :
 999:application-library/usb-device/usb-cdc-device.c ****       usb_status = USBD_FAIL;
1000:application-library/usb-device/usb-cdc-device.c ****     break;
1001:application-library/usb-device/usb-cdc-device.c ****   }
1002:application-library/usb-device/usb-cdc-device.c **** 
1003:application-library/usb-device/usb-cdc-device.c ****   return usb_status;
1004:application-library/usb-device/usb-cdc-device.c **** }
1005:application-library/usb-device/usb-cdc-device.c **** 
1006:application-library/usb-device/usb-cdc-device.c **** 
1007:application-library/usb-device/usb-cdc-device.c **** /**
1008:application-library/usb-device/usb-cdc-device.c ****   * @brief  USBD_Stop
1009:application-library/usb-device/usb-cdc-device.c ****   *         Stop the USB Device Core.
1010:application-library/usb-device/usb-cdc-device.c ****   * @param  p_usbd_instance: Device Handle
1011:application-library/usb-device/usb-cdc-device.c ****   * @retval USBD Status
1012:application-library/usb-device/usb-cdc-device.c ****   */
1013:application-library/usb-device/usb-cdc-device.c **** USBD_StatusTypeDef USBD_Stop(USBD_Handle_t *p_usbd_instance)
1014:application-library/usb-device/usb-cdc-device.c **** {
1015:application-library/usb-device/usb-cdc-device.c ****   /* Disconnect USB Device */
1016:application-library/usb-device/usb-cdc-device.c ****   USBD_LL_Stop(p_usbd_instance);
1017:application-library/usb-device/usb-cdc-device.c **** 
1018:application-library/usb-device/usb-cdc-device.c ****   /* Free Class Resources */
ARM GAS  /tmp/ccfNPkge.s 			page 22


1019:application-library/usb-device/usb-cdc-device.c ****   if (p_usbd_instance->pClass != NULL)
1020:application-library/usb-device/usb-cdc-device.c ****   {
1021:application-library/usb-device/usb-cdc-device.c ****     (void)p_usbd_instance->pClass->DeInit(p_usbd_instance, (uint8_t)p_usbd_instance->dev_config);
1022:application-library/usb-device/usb-cdc-device.c ****   }
1023:application-library/usb-device/usb-cdc-device.c **** 
1024:application-library/usb-device/usb-cdc-device.c ****   return USBD_OK;
1025:application-library/usb-device/usb-cdc-device.c **** }
1026:application-library/usb-device/usb-cdc-device.c **** 
1027:application-library/usb-device/usb-cdc-device.c **** /**
1028:application-library/usb-device/usb-cdc-device.c ****   * @brief  USBD_SetClassConfig
1029:application-library/usb-device/usb-cdc-device.c ****   *        Configure device and start the interface
1030:application-library/usb-device/usb-cdc-device.c ****   * @param  p_usbd_instance: device instance
1031:application-library/usb-device/usb-cdc-device.c ****   * @param  cfgidx: configuration index
1032:application-library/usb-device/usb-cdc-device.c ****   * @retval None.
1033:application-library/usb-device/usb-cdc-device.c ****   */
1034:application-library/usb-device/usb-cdc-device.c **** 
1035:application-library/usb-device/usb-cdc-device.c **** void USBD_SetClassConfig(USBD_Handle_t *p_usbd_instance, uint8_t cfgidx)
1036:application-library/usb-device/usb-cdc-device.c **** {
1037:application-library/usb-device/usb-cdc-device.c ****   if (p_usbd_instance->pClass != NULL)
1038:application-library/usb-device/usb-cdc-device.c ****   {
1039:application-library/usb-device/usb-cdc-device.c ****     /* Set configuration and Start the Class */
1040:application-library/usb-device/usb-cdc-device.c ****     p_usbd_instance->pClass->Init(p_usbd_instance, cfgidx);
1041:application-library/usb-device/usb-cdc-device.c ****   }
1042:application-library/usb-device/usb-cdc-device.c **** }
1043:application-library/usb-device/usb-cdc-device.c **** 
1044:application-library/usb-device/usb-cdc-device.c **** /**
1045:application-library/usb-device/usb-cdc-device.c ****   * @brief  USBD_ClrClassConfig
1046:application-library/usb-device/usb-cdc-device.c ****   *         Clear current configuration
1047:application-library/usb-device/usb-cdc-device.c ****   * @param  p_usbd_instance: device instance
1048:application-library/usb-device/usb-cdc-device.c ****   * @param  cfgidx: configuration index
1049:application-library/usb-device/usb-cdc-device.c ****   * @retval status: USBD_StatusTypeDef
1050:application-library/usb-device/usb-cdc-device.c ****   */
1051:application-library/usb-device/usb-cdc-device.c **** USBD_StatusTypeDef USBD_ClrClassConfig(USBD_Handle_t *p_usbd_instance, uint8_t cfgidx)
1052:application-library/usb-device/usb-cdc-device.c **** {
1053:application-library/usb-device/usb-cdc-device.c ****   USBD_StatusTypeDef ret = USBD_OK;
1054:application-library/usb-device/usb-cdc-device.c **** 
1055:application-library/usb-device/usb-cdc-device.c ****   /* Clear configuration  and De-initialize the Class process */
1056:application-library/usb-device/usb-cdc-device.c ****   if (p_usbd_instance->pClass->DeInit(p_usbd_instance, cfgidx) != 0U)
1057:application-library/usb-device/usb-cdc-device.c ****   {
1058:application-library/usb-device/usb-cdc-device.c ****     ret = USBD_FAIL;
1059:application-library/usb-device/usb-cdc-device.c ****   }
1060:application-library/usb-device/usb-cdc-device.c **** 
1061:application-library/usb-device/usb-cdc-device.c ****   return ret;
1062:application-library/usb-device/usb-cdc-device.c **** }
1063:application-library/usb-device/usb-cdc-device.c **** 
1064:application-library/usb-device/usb-cdc-device.c **** 
1065:application-library/usb-device/usb-cdc-device.c **** /**
1066:application-library/usb-device/usb-cdc-device.c ****   * @brief  Handle the setup stage
1067:application-library/usb-device/usb-cdc-device.c ****   * @param  p_usbd_instance: device instance
1068:application-library/usb-device/usb-cdc-device.c ****   * @retval None.
1069:application-library/usb-device/usb-cdc-device.c ****   */
1070:application-library/usb-device/usb-cdc-device.c **** void USBD_LL_SetupStage(USBD_Handle_t *p_usbd_instance, uint8_t *psetup)
1071:application-library/usb-device/usb-cdc-device.c **** {
1072:application-library/usb-device/usb-cdc-device.c **** 
1073:application-library/usb-device/usb-cdc-device.c ****   USBD_ParseSetupRequest(&p_usbd_instance->request, psetup);
1074:application-library/usb-device/usb-cdc-device.c **** 
1075:application-library/usb-device/usb-cdc-device.c ****   p_usbd_instance->ep0_state = USBD_EP0_SETUP;
ARM GAS  /tmp/ccfNPkge.s 			page 23


1076:application-library/usb-device/usb-cdc-device.c **** 
1077:application-library/usb-device/usb-cdc-device.c ****   p_usbd_instance->ep0_data_len = p_usbd_instance->request.wLength;
1078:application-library/usb-device/usb-cdc-device.c **** 
1079:application-library/usb-device/usb-cdc-device.c ****   switch (p_usbd_instance->request.bmRequest & 0x1FU)
1080:application-library/usb-device/usb-cdc-device.c ****   {
1081:application-library/usb-device/usb-cdc-device.c ****     case USB_REQ_RECIPIENT_DEVICE:
1082:application-library/usb-device/usb-cdc-device.c ****       USBD_StdDevReq(p_usbd_instance, &p_usbd_instance->request);
1083:application-library/usb-device/usb-cdc-device.c ****       break;
1084:application-library/usb-device/usb-cdc-device.c **** 
1085:application-library/usb-device/usb-cdc-device.c ****     case USB_REQ_RECIPIENT_INTERFACE:
1086:application-library/usb-device/usb-cdc-device.c ****       USBD_StdItfReq(p_usbd_instance, &p_usbd_instance->request);
1087:application-library/usb-device/usb-cdc-device.c ****       break;
1088:application-library/usb-device/usb-cdc-device.c **** 
1089:application-library/usb-device/usb-cdc-device.c ****     case USB_REQ_RECIPIENT_ENDPOINT:
1090:application-library/usb-device/usb-cdc-device.c ****       USBD_StdEPReq(p_usbd_instance, &p_usbd_instance->request);
1091:application-library/usb-device/usb-cdc-device.c ****       break;
1092:application-library/usb-device/usb-cdc-device.c **** 
1093:application-library/usb-device/usb-cdc-device.c ****     default:
1094:application-library/usb-device/usb-cdc-device.c ****       USBD_LL_StallEP(p_usbd_instance, (p_usbd_instance->request.bmRequest & 0x80U));
1095:application-library/usb-device/usb-cdc-device.c ****       break;
1096:application-library/usb-device/usb-cdc-device.c ****   }
1097:application-library/usb-device/usb-cdc-device.c **** }
1098:application-library/usb-device/usb-cdc-device.c **** 
1099:application-library/usb-device/usb-cdc-device.c **** /**
1100:application-library/usb-device/usb-cdc-device.c ****   * @brief  USBD_LL_DataOutStage
1101:application-library/usb-device/usb-cdc-device.c ****   *         Handle data OUT stage
1102:application-library/usb-device/usb-cdc-device.c ****   * @param  p_usbd_instance: device instance
1103:application-library/usb-device/usb-cdc-device.c ****   * @param  epnum: endpoint index
1104:application-library/usb-device/usb-cdc-device.c ****   * @param  pdata: data pointer
1105:application-library/usb-device/usb-cdc-device.c ****   * @retval status
1106:application-library/usb-device/usb-cdc-device.c ****   */
1107:application-library/usb-device/usb-cdc-device.c **** USBD_StatusTypeDef USBD_LL_DataOutStage(USBD_Handle_t *p_usbd_instance,
1108:application-library/usb-device/usb-cdc-device.c ****                                         uint8_t epnum, uint8_t *pdata)
1109:application-library/usb-device/usb-cdc-device.c **** {
1110:application-library/usb-device/usb-cdc-device.c ****   USBD_EndpointTypeDef *pep;
1111:application-library/usb-device/usb-cdc-device.c ****   USBD_StatusTypeDef ret = USBD_OK;
1112:application-library/usb-device/usb-cdc-device.c ****   uint8_t idx;
1113:application-library/usb-device/usb-cdc-device.c **** 
1114:application-library/usb-device/usb-cdc-device.c ****   if (epnum == 0U)
1115:application-library/usb-device/usb-cdc-device.c ****   {
1116:application-library/usb-device/usb-cdc-device.c ****     pep = &p_usbd_instance->ep_out[0];
1117:application-library/usb-device/usb-cdc-device.c **** 
1118:application-library/usb-device/usb-cdc-device.c ****     if (p_usbd_instance->ep0_state == USBD_EP0_DATA_OUT)
1119:application-library/usb-device/usb-cdc-device.c ****     {
1120:application-library/usb-device/usb-cdc-device.c ****       if (pep->rem_length > pep->maxpacket)
1121:application-library/usb-device/usb-cdc-device.c ****       {
1122:application-library/usb-device/usb-cdc-device.c ****         pep->rem_length -= pep->maxpacket;
1123:application-library/usb-device/usb-cdc-device.c **** 
1124:application-library/usb-device/usb-cdc-device.c ****         (void)USBD_CtlContinueRx(p_usbd_instance, pdata, MIN(pep->rem_length, pep->maxpacket));
1125:application-library/usb-device/usb-cdc-device.c ****       }
1126:application-library/usb-device/usb-cdc-device.c ****       else
1127:application-library/usb-device/usb-cdc-device.c ****       {
1128:application-library/usb-device/usb-cdc-device.c ****         /* Find the class ID relative to the current request */
1129:application-library/usb-device/usb-cdc-device.c ****         switch (p_usbd_instance->request.bmRequest & 0x1FU)
1130:application-library/usb-device/usb-cdc-device.c ****         {
1131:application-library/usb-device/usb-cdc-device.c ****           case USB_REQ_RECIPIENT_DEVICE:
1132:application-library/usb-device/usb-cdc-device.c ****             /* Device requests must be managed by the first instantiated class
ARM GAS  /tmp/ccfNPkge.s 			page 24


1133:application-library/usb-device/usb-cdc-device.c ****                (or duplicated by all classes for simplicity) */
1134:application-library/usb-device/usb-cdc-device.c ****             idx = 0U;
1135:application-library/usb-device/usb-cdc-device.c ****             break;
1136:application-library/usb-device/usb-cdc-device.c **** 
1137:application-library/usb-device/usb-cdc-device.c ****           case USB_REQ_RECIPIENT_INTERFACE:
1138:application-library/usb-device/usb-cdc-device.c ****             idx = 0x00U;
1139:application-library/usb-device/usb-cdc-device.c ****             break;
1140:application-library/usb-device/usb-cdc-device.c **** 
1141:application-library/usb-device/usb-cdc-device.c ****           case USB_REQ_RECIPIENT_ENDPOINT:
1142:application-library/usb-device/usb-cdc-device.c ****             idx = USBD_CoreFindEP(p_usbd_instance, LOBYTE(p_usbd_instance->request.wIndex));
1143:application-library/usb-device/usb-cdc-device.c ****             break;
1144:application-library/usb-device/usb-cdc-device.c **** 
1145:application-library/usb-device/usb-cdc-device.c ****           default:
1146:application-library/usb-device/usb-cdc-device.c ****             /* Back to the first class in case of doubt */
1147:application-library/usb-device/usb-cdc-device.c ****             idx = 0U;
1148:application-library/usb-device/usb-cdc-device.c ****             break;
1149:application-library/usb-device/usb-cdc-device.c ****         }
1150:application-library/usb-device/usb-cdc-device.c **** 
1151:application-library/usb-device/usb-cdc-device.c ****         /* Setup the class ID and route the request to the relative class function */
1152:application-library/usb-device/usb-cdc-device.c ****         if (p_usbd_instance->dev_state == USBD_STATE_CONFIGURED)
1153:application-library/usb-device/usb-cdc-device.c ****         {
1154:application-library/usb-device/usb-cdc-device.c ****           if (p_usbd_instance->pClass->EP0_RxReady != NULL)
1155:application-library/usb-device/usb-cdc-device.c ****           {
1156:application-library/usb-device/usb-cdc-device.c ****             // p_usbd_instance->classId = idx;
1157:application-library/usb-device/usb-cdc-device.c ****             p_usbd_instance->pClass->EP0_RxReady(p_usbd_instance);
1158:application-library/usb-device/usb-cdc-device.c ****           }
1159:application-library/usb-device/usb-cdc-device.c ****         }
1160:application-library/usb-device/usb-cdc-device.c **** 
1161:application-library/usb-device/usb-cdc-device.c ****         USBD_CtlSendStatus(p_usbd_instance);
1162:application-library/usb-device/usb-cdc-device.c ****       }
1163:application-library/usb-device/usb-cdc-device.c ****     }
1164:application-library/usb-device/usb-cdc-device.c ****     else
1165:application-library/usb-device/usb-cdc-device.c ****     {
1166:application-library/usb-device/usb-cdc-device.c ****     }
1167:application-library/usb-device/usb-cdc-device.c ****   }
1168:application-library/usb-device/usb-cdc-device.c ****   else
1169:application-library/usb-device/usb-cdc-device.c ****   {
1170:application-library/usb-device/usb-cdc-device.c ****     /* Get the class index relative to this interface */
1171:application-library/usb-device/usb-cdc-device.c ****     idx = USBD_CoreFindEP(p_usbd_instance, (epnum & 0x7FU));
1172:application-library/usb-device/usb-cdc-device.c **** 
1173:application-library/usb-device/usb-cdc-device.c ****     if ((uint16_t)idx != 0xFFU)
1174:application-library/usb-device/usb-cdc-device.c ****     {
1175:application-library/usb-device/usb-cdc-device.c ****       /* Call the class data out function to manage the request */
1176:application-library/usb-device/usb-cdc-device.c ****       if (p_usbd_instance->dev_state == USBD_STATE_CONFIGURED)
1177:application-library/usb-device/usb-cdc-device.c ****       {
1178:application-library/usb-device/usb-cdc-device.c ****         if (p_usbd_instance->pClass->DataOut != NULL)
1179:application-library/usb-device/usb-cdc-device.c ****         {
1180:application-library/usb-device/usb-cdc-device.c ****           // p_usbd_instance->classId = idx;
1181:application-library/usb-device/usb-cdc-device.c ****           ret = (USBD_StatusTypeDef)p_usbd_instance->pClass->DataOut(p_usbd_instance, epnum);
1182:application-library/usb-device/usb-cdc-device.c ****         }
1183:application-library/usb-device/usb-cdc-device.c ****       }
1184:application-library/usb-device/usb-cdc-device.c ****       if (ret != USBD_OK)
1185:application-library/usb-device/usb-cdc-device.c ****       {
1186:application-library/usb-device/usb-cdc-device.c ****         return ret;
1187:application-library/usb-device/usb-cdc-device.c ****       }
1188:application-library/usb-device/usb-cdc-device.c ****     }
1189:application-library/usb-device/usb-cdc-device.c ****   }
ARM GAS  /tmp/ccfNPkge.s 			page 25


1190:application-library/usb-device/usb-cdc-device.c **** 
1191:application-library/usb-device/usb-cdc-device.c ****   return USBD_OK;
1192:application-library/usb-device/usb-cdc-device.c **** }
1193:application-library/usb-device/usb-cdc-device.c **** 
1194:application-library/usb-device/usb-cdc-device.c **** /**
1195:application-library/usb-device/usb-cdc-device.c ****   * @brief  USBD_LL_DataInStage
1196:application-library/usb-device/usb-cdc-device.c ****   *         Handle data in stage
1197:application-library/usb-device/usb-cdc-device.c ****   * @param  p_usbd_instance: device instance
1198:application-library/usb-device/usb-cdc-device.c ****   * @param  epnum: endpoint index
1199:application-library/usb-device/usb-cdc-device.c ****   * @retval void.
1200:application-library/usb-device/usb-cdc-device.c ****   */
1201:application-library/usb-device/usb-cdc-device.c **** void USBD_LL_DataInStage(USBD_Handle_t *p_usbd_instance,
1202:application-library/usb-device/usb-cdc-device.c ****                                        uint8_t epnum, uint8_t *pdata)
1203:application-library/usb-device/usb-cdc-device.c **** {
1204:application-library/usb-device/usb-cdc-device.c ****   USBD_EndpointTypeDef *pep;
1205:application-library/usb-device/usb-cdc-device.c ****   uint8_t idx;
1206:application-library/usb-device/usb-cdc-device.c **** 
1207:application-library/usb-device/usb-cdc-device.c ****   if (epnum == 0U)
1208:application-library/usb-device/usb-cdc-device.c ****   {
1209:application-library/usb-device/usb-cdc-device.c ****     pep = &p_usbd_instance->ep_in[0];
1210:application-library/usb-device/usb-cdc-device.c **** 
1211:application-library/usb-device/usb-cdc-device.c ****     if (p_usbd_instance->ep0_state == USBD_EP0_DATA_IN)
1212:application-library/usb-device/usb-cdc-device.c ****     {
1213:application-library/usb-device/usb-cdc-device.c ****       if (pep->rem_length > pep->maxpacket)
1214:application-library/usb-device/usb-cdc-device.c ****       {
1215:application-library/usb-device/usb-cdc-device.c ****         pep->rem_length -= pep->maxpacket;
1216:application-library/usb-device/usb-cdc-device.c **** 
1217:application-library/usb-device/usb-cdc-device.c ****         USBD_CtlContinueSendData(p_usbd_instance, pdata, pep->rem_length);
1218:application-library/usb-device/usb-cdc-device.c **** 
1219:application-library/usb-device/usb-cdc-device.c ****         /* Prepare endpoint for premature end of transfer */
1220:application-library/usb-device/usb-cdc-device.c ****         USBD_LL_PrepareReceive(p_usbd_instance, 0U, NULL, 0U);
1221:application-library/usb-device/usb-cdc-device.c ****       }
1222:application-library/usb-device/usb-cdc-device.c ****       else
1223:application-library/usb-device/usb-cdc-device.c ****       {
1224:application-library/usb-device/usb-cdc-device.c ****         /* last packet is MPS multiple, so send ZLP packet */
1225:application-library/usb-device/usb-cdc-device.c ****         if ((pep->maxpacket == pep->rem_length) &&
1226:application-library/usb-device/usb-cdc-device.c ****             (pep->total_length >= pep->maxpacket) &&
1227:application-library/usb-device/usb-cdc-device.c ****             (pep->total_length < p_usbd_instance->ep0_data_len))
1228:application-library/usb-device/usb-cdc-device.c ****         {
1229:application-library/usb-device/usb-cdc-device.c ****           USBD_CtlContinueSendData(p_usbd_instance, NULL, 0U);
1230:application-library/usb-device/usb-cdc-device.c ****           p_usbd_instance->ep0_data_len = 0U;
1231:application-library/usb-device/usb-cdc-device.c **** 
1232:application-library/usb-device/usb-cdc-device.c ****           /* Prepare endpoint for premature end of transfer */
1233:application-library/usb-device/usb-cdc-device.c ****           USBD_LL_PrepareReceive(p_usbd_instance, 0U, NULL, 0U);
1234:application-library/usb-device/usb-cdc-device.c ****         }
1235:application-library/usb-device/usb-cdc-device.c ****         else
1236:application-library/usb-device/usb-cdc-device.c ****         {
1237:application-library/usb-device/usb-cdc-device.c ****           if (p_usbd_instance->dev_state == USBD_STATE_CONFIGURED)
1238:application-library/usb-device/usb-cdc-device.c ****           {
1239:application-library/usb-device/usb-cdc-device.c ****             if (p_usbd_instance->pClass->EP0_TxSent != NULL)
1240:application-library/usb-device/usb-cdc-device.c ****             {
1241:application-library/usb-device/usb-cdc-device.c ****               // p_usbd_instance->classId = 0U;
1242:application-library/usb-device/usb-cdc-device.c ****               p_usbd_instance->pClass->EP0_TxSent(p_usbd_instance);
1243:application-library/usb-device/usb-cdc-device.c ****             }
1244:application-library/usb-device/usb-cdc-device.c ****           }
1245:application-library/usb-device/usb-cdc-device.c ****           (void)USBD_LL_StallEP(p_usbd_instance, 0x80U);
1246:application-library/usb-device/usb-cdc-device.c ****           (void)USBD_CtlReceiveStatus(p_usbd_instance);
ARM GAS  /tmp/ccfNPkge.s 			page 26


1247:application-library/usb-device/usb-cdc-device.c ****         }
1248:application-library/usb-device/usb-cdc-device.c ****       }
1249:application-library/usb-device/usb-cdc-device.c ****     }
1250:application-library/usb-device/usb-cdc-device.c ****   }
1251:application-library/usb-device/usb-cdc-device.c ****   else
1252:application-library/usb-device/usb-cdc-device.c ****   {
1253:application-library/usb-device/usb-cdc-device.c ****     /* Get the class index relative to this interface */
1254:application-library/usb-device/usb-cdc-device.c ****     idx = USBD_CoreFindEP(p_usbd_instance, ((uint8_t)epnum | 0x80U));
1255:application-library/usb-device/usb-cdc-device.c **** 
1256:application-library/usb-device/usb-cdc-device.c ****     if ((uint16_t)idx != 0xFFU)
1257:application-library/usb-device/usb-cdc-device.c ****     {
1258:application-library/usb-device/usb-cdc-device.c ****       /* Call the class data out function to manage the request */
1259:application-library/usb-device/usb-cdc-device.c ****       if (p_usbd_instance->dev_state == USBD_STATE_CONFIGURED)
1260:application-library/usb-device/usb-cdc-device.c ****       {
1261:application-library/usb-device/usb-cdc-device.c ****         if (p_usbd_instance->pClass->DataIn != NULL)
1262:application-library/usb-device/usb-cdc-device.c ****         {
1263:application-library/usb-device/usb-cdc-device.c ****           // p_usbd_instance->classId = idx;
1264:application-library/usb-device/usb-cdc-device.c ****           p_usbd_instance->pClass->DataIn(p_usbd_instance, epnum);
1265:application-library/usb-device/usb-cdc-device.c ****         }
1266:application-library/usb-device/usb-cdc-device.c ****       }
1267:application-library/usb-device/usb-cdc-device.c ****     }
1268:application-library/usb-device/usb-cdc-device.c ****   }
1269:application-library/usb-device/usb-cdc-device.c **** }
1270:application-library/usb-device/usb-cdc-device.c **** 
1271:application-library/usb-device/usb-cdc-device.c **** /**
1272:application-library/usb-device/usb-cdc-device.c ****   * @brief  USBD_LL_Reset
1273:application-library/usb-device/usb-cdc-device.c ****   *         Handle Reset event
1274:application-library/usb-device/usb-cdc-device.c ****   * @param  p_usbd_instance: device instance
1275:application-library/usb-device/usb-cdc-device.c ****   * @retval status
1276:application-library/usb-device/usb-cdc-device.c ****   */
1277:application-library/usb-device/usb-cdc-device.c **** 
1278:application-library/usb-device/usb-cdc-device.c **** USBD_StatusTypeDef USBD_LL_Reset(USBD_Handle_t *p_usbd_instance)
1279:application-library/usb-device/usb-cdc-device.c **** {
1280:application-library/usb-device/usb-cdc-device.c ****   USBD_StatusTypeDef ret = USBD_OK;
1281:application-library/usb-device/usb-cdc-device.c **** 
1282:application-library/usb-device/usb-cdc-device.c ****   /* Upon Reset call user call back */
1283:application-library/usb-device/usb-cdc-device.c ****   p_usbd_instance->dev_state = USBD_STATE_DEFAULT;
1284:application-library/usb-device/usb-cdc-device.c ****   p_usbd_instance->ep0_state = USBD_EP0_IDLE;
1285:application-library/usb-device/usb-cdc-device.c ****   p_usbd_instance->dev_config = 0U;
1286:application-library/usb-device/usb-cdc-device.c ****   p_usbd_instance->dev_remote_wakeup = 0U;
1287:application-library/usb-device/usb-cdc-device.c **** 
1288:application-library/usb-device/usb-cdc-device.c ****   if (p_usbd_instance->pClass != NULL)
1289:application-library/usb-device/usb-cdc-device.c ****   {
1290:application-library/usb-device/usb-cdc-device.c ****     if (p_usbd_instance->pClass->DeInit != NULL)
1291:application-library/usb-device/usb-cdc-device.c ****     {
1292:application-library/usb-device/usb-cdc-device.c ****       if (p_usbd_instance->pClass->DeInit(p_usbd_instance, (uint8_t)p_usbd_instance->dev_config) !=
1293:application-library/usb-device/usb-cdc-device.c ****       {
1294:application-library/usb-device/usb-cdc-device.c ****         ret = USBD_FAIL;
1295:application-library/usb-device/usb-cdc-device.c ****       }
1296:application-library/usb-device/usb-cdc-device.c ****     }
1297:application-library/usb-device/usb-cdc-device.c ****   }
1298:application-library/usb-device/usb-cdc-device.c **** 
1299:application-library/usb-device/usb-cdc-device.c ****   /* Open EP0 OUT */
1300:application-library/usb-device/usb-cdc-device.c ****   USBD_LL_OpenEP(p_usbd_instance, 0x00U, USBD_EP_TYPE_CTRL, USB_MAX_EP0_SIZE);
1301:application-library/usb-device/usb-cdc-device.c ****   p_usbd_instance->ep_out[0x00U & 0xFU].is_used = 1U;
1302:application-library/usb-device/usb-cdc-device.c **** 
1303:application-library/usb-device/usb-cdc-device.c ****   p_usbd_instance->ep_out[0].maxpacket = USB_MAX_EP0_SIZE;
ARM GAS  /tmp/ccfNPkge.s 			page 27


1304:application-library/usb-device/usb-cdc-device.c **** 
1305:application-library/usb-device/usb-cdc-device.c ****   /* Open EP0 IN */
1306:application-library/usb-device/usb-cdc-device.c ****   USBD_LL_OpenEP(p_usbd_instance, 0x80U, USBD_EP_TYPE_CTRL, USB_MAX_EP0_SIZE);
1307:application-library/usb-device/usb-cdc-device.c ****   p_usbd_instance->ep_in[0x80U & 0xFU].is_used = 1U;
1308:application-library/usb-device/usb-cdc-device.c **** 
1309:application-library/usb-device/usb-cdc-device.c ****   p_usbd_instance->ep_in[0].maxpacket = USB_MAX_EP0_SIZE;
1310:application-library/usb-device/usb-cdc-device.c **** 
1311:application-library/usb-device/usb-cdc-device.c ****   return ret;
1312:application-library/usb-device/usb-cdc-device.c **** }
1313:application-library/usb-device/usb-cdc-device.c **** 
1314:application-library/usb-device/usb-cdc-device.c **** /**
1315:application-library/usb-device/usb-cdc-device.c ****   * @brief  USBD_LL_SetSpeed
1316:application-library/usb-device/usb-cdc-device.c ****   *         Handle Reset event
1317:application-library/usb-device/usb-cdc-device.c ****   * @param  p_usbd_instance: device instance
1318:application-library/usb-device/usb-cdc-device.c ****   * @retval None.
1319:application-library/usb-device/usb-cdc-device.c ****   */
1320:application-library/usb-device/usb-cdc-device.c **** void USBD_LL_SetSpeed(USBD_Handle_t *p_usbd_instance,
1321:application-library/usb-device/usb-cdc-device.c ****                                     USBD_SpeedTypeDef speed)
1322:application-library/usb-device/usb-cdc-device.c **** {
1323:application-library/usb-device/usb-cdc-device.c ****   p_usbd_instance->dev_speed = speed;
1324:application-library/usb-device/usb-cdc-device.c **** }
1325:application-library/usb-device/usb-cdc-device.c **** 
1326:application-library/usb-device/usb-cdc-device.c **** /**
1327:application-library/usb-device/usb-cdc-device.c ****   * @brief  USBD_LL_Suspend
1328:application-library/usb-device/usb-cdc-device.c ****   *         Handle Suspend event
1329:application-library/usb-device/usb-cdc-device.c ****   * @param  p_usbd_instance: device instance
1330:application-library/usb-device/usb-cdc-device.c ****   * @retval status
1331:application-library/usb-device/usb-cdc-device.c ****   */
1332:application-library/usb-device/usb-cdc-device.c **** 
1333:application-library/usb-device/usb-cdc-device.c **** USBD_StatusTypeDef USBD_LL_Suspend(USBD_Handle_t *p_usbd_instance)
1334:application-library/usb-device/usb-cdc-device.c **** {
1335:application-library/usb-device/usb-cdc-device.c ****   p_usbd_instance->dev_old_state = p_usbd_instance->dev_state;
1336:application-library/usb-device/usb-cdc-device.c ****   p_usbd_instance->dev_state = USBD_STATE_SUSPENDED;
1337:application-library/usb-device/usb-cdc-device.c ****   return USBD_OK;
1338:application-library/usb-device/usb-cdc-device.c **** }
1339:application-library/usb-device/usb-cdc-device.c **** 
1340:application-library/usb-device/usb-cdc-device.c **** /**
1341:application-library/usb-device/usb-cdc-device.c ****   * @brief  USBD_LL_Resume
1342:application-library/usb-device/usb-cdc-device.c ****   *         Handle Resume event
1343:application-library/usb-device/usb-cdc-device.c ****   * @param  p_usbd_instance: device instance
1344:application-library/usb-device/usb-cdc-device.c ****   * @retval status
1345:application-library/usb-device/usb-cdc-device.c ****   */
1346:application-library/usb-device/usb-cdc-device.c **** USBD_StatusTypeDef USBD_LL_Resume(USBD_Handle_t *p_usbd_instance)
1347:application-library/usb-device/usb-cdc-device.c **** {
1348:application-library/usb-device/usb-cdc-device.c ****   if (p_usbd_instance->dev_state == USBD_STATE_SUSPENDED)
1349:application-library/usb-device/usb-cdc-device.c ****   {
1350:application-library/usb-device/usb-cdc-device.c ****     p_usbd_instance->dev_state = p_usbd_instance->dev_old_state;
1351:application-library/usb-device/usb-cdc-device.c ****   }
1352:application-library/usb-device/usb-cdc-device.c **** 
1353:application-library/usb-device/usb-cdc-device.c ****   return USBD_OK;
1354:application-library/usb-device/usb-cdc-device.c **** }
1355:application-library/usb-device/usb-cdc-device.c **** 
1356:application-library/usb-device/usb-cdc-device.c **** /**
1357:application-library/usb-device/usb-cdc-device.c ****   * @brief  USBD_LL_SOF
1358:application-library/usb-device/usb-cdc-device.c ****   *         Handle SOF event
1359:application-library/usb-device/usb-cdc-device.c ****   * @param  p_usbd_instance: device instance
1360:application-library/usb-device/usb-cdc-device.c ****   * @retval status
ARM GAS  /tmp/ccfNPkge.s 			page 28


1361:application-library/usb-device/usb-cdc-device.c ****   */
1362:application-library/usb-device/usb-cdc-device.c **** 
1363:application-library/usb-device/usb-cdc-device.c **** USBD_StatusTypeDef USBD_LL_SOF(USBD_Handle_t *p_usbd_instance)
1364:application-library/usb-device/usb-cdc-device.c **** {
1365:application-library/usb-device/usb-cdc-device.c ****   /* The SOF event can be distributed for all classes that support it */
1366:application-library/usb-device/usb-cdc-device.c ****   if (p_usbd_instance->dev_state == USBD_STATE_CONFIGURED)
1367:application-library/usb-device/usb-cdc-device.c ****   {
1368:application-library/usb-device/usb-cdc-device.c ****     if (p_usbd_instance->pClass != NULL)
1369:application-library/usb-device/usb-cdc-device.c ****     {
1370:application-library/usb-device/usb-cdc-device.c ****       if (p_usbd_instance->pClass->SOF != NULL)
1371:application-library/usb-device/usb-cdc-device.c ****       {
1372:application-library/usb-device/usb-cdc-device.c ****         (void)p_usbd_instance->pClass->SOF(p_usbd_instance);
1373:application-library/usb-device/usb-cdc-device.c ****       }
1374:application-library/usb-device/usb-cdc-device.c ****     }
1375:application-library/usb-device/usb-cdc-device.c ****   }
1376:application-library/usb-device/usb-cdc-device.c **** 
1377:application-library/usb-device/usb-cdc-device.c ****   return USBD_OK;
1378:application-library/usb-device/usb-cdc-device.c **** }
1379:application-library/usb-device/usb-cdc-device.c **** 
1380:application-library/usb-device/usb-cdc-device.c **** /**
1381:application-library/usb-device/usb-cdc-device.c ****   * @brief  USBD_LL_IsoINIncomplete
1382:application-library/usb-device/usb-cdc-device.c ****   *         Handle iso in incomplete event
1383:application-library/usb-device/usb-cdc-device.c ****   * @param  p_usbd_instance: device instance
1384:application-library/usb-device/usb-cdc-device.c ****   * @retval status
1385:application-library/usb-device/usb-cdc-device.c ****   */
1386:application-library/usb-device/usb-cdc-device.c **** USBD_StatusTypeDef USBD_LL_IsoINIncomplete(USBD_Handle_t *p_usbd_instance,
1387:application-library/usb-device/usb-cdc-device.c ****                                            uint8_t epnum)
1388:application-library/usb-device/usb-cdc-device.c **** {
1389:application-library/usb-device/usb-cdc-device.c ****   if (p_usbd_instance->pClass == NULL)
1390:application-library/usb-device/usb-cdc-device.c ****   {
1391:application-library/usb-device/usb-cdc-device.c ****     return USBD_FAIL;
1392:application-library/usb-device/usb-cdc-device.c ****   }
1393:application-library/usb-device/usb-cdc-device.c **** 
1394:application-library/usb-device/usb-cdc-device.c ****   if (p_usbd_instance->dev_state == USBD_STATE_CONFIGURED)
1395:application-library/usb-device/usb-cdc-device.c ****   {
1396:application-library/usb-device/usb-cdc-device.c ****     if (p_usbd_instance->pClass->IsoINIncomplete != NULL)
1397:application-library/usb-device/usb-cdc-device.c ****     {
1398:application-library/usb-device/usb-cdc-device.c ****       (void)p_usbd_instance->pClass->IsoINIncomplete(p_usbd_instance, epnum);
1399:application-library/usb-device/usb-cdc-device.c ****     }
1400:application-library/usb-device/usb-cdc-device.c ****   }
1401:application-library/usb-device/usb-cdc-device.c **** 
1402:application-library/usb-device/usb-cdc-device.c ****   return USBD_OK;
1403:application-library/usb-device/usb-cdc-device.c **** }
1404:application-library/usb-device/usb-cdc-device.c **** 
1405:application-library/usb-device/usb-cdc-device.c **** /**
1406:application-library/usb-device/usb-cdc-device.c ****   * @brief  Handle iso out incomplete event.
1407:application-library/usb-device/usb-cdc-device.c ****   * @param  p_usbd_instance: device instance
1408:application-library/usb-device/usb-cdc-device.c ****   * @retval None.
1409:application-library/usb-device/usb-cdc-device.c ****   */
1410:application-library/usb-device/usb-cdc-device.c **** void USBD_LL_IsoOUTIncomplete(USBD_Handle_t *p_usbd_instance,
1411:application-library/usb-device/usb-cdc-device.c ****                                             uint8_t epnum)
1412:application-library/usb-device/usb-cdc-device.c **** {
1413:application-library/usb-device/usb-cdc-device.c ****   if (p_usbd_instance->pClass == NULL)
1414:application-library/usb-device/usb-cdc-device.c ****   {
1415:application-library/usb-device/usb-cdc-device.c ****     return;
1416:application-library/usb-device/usb-cdc-device.c ****   }
1417:application-library/usb-device/usb-cdc-device.c **** 
ARM GAS  /tmp/ccfNPkge.s 			page 29


1418:application-library/usb-device/usb-cdc-device.c ****   if (p_usbd_instance->dev_state == USBD_STATE_CONFIGURED)
1419:application-library/usb-device/usb-cdc-device.c ****   {
1420:application-library/usb-device/usb-cdc-device.c ****     if (p_usbd_instance->pClass->IsoOUTIncomplete != NULL)
1421:application-library/usb-device/usb-cdc-device.c ****     {
1422:application-library/usb-device/usb-cdc-device.c ****       (void)p_usbd_instance->pClass->IsoOUTIncomplete(p_usbd_instance, epnum);
1423:application-library/usb-device/usb-cdc-device.c ****     }
1424:application-library/usb-device/usb-cdc-device.c ****   }
1425:application-library/usb-device/usb-cdc-device.c **** }
1426:application-library/usb-device/usb-cdc-device.c **** 
1427:application-library/usb-device/usb-cdc-device.c **** /**
1428:application-library/usb-device/usb-cdc-device.c ****   * @brief  USBD_LL_DevConnected
1429:application-library/usb-device/usb-cdc-device.c ****   *         Handle device connection event
1430:application-library/usb-device/usb-cdc-device.c ****   * @param  p_usbd_instance: device instance
1431:application-library/usb-device/usb-cdc-device.c ****   * @retval status
1432:application-library/usb-device/usb-cdc-device.c ****   */
1433:application-library/usb-device/usb-cdc-device.c **** USBD_StatusTypeDef USBD_LL_DevConnected(USBD_Handle_t *p_usbd_instance)
1434:application-library/usb-device/usb-cdc-device.c **** {
1435:application-library/usb-device/usb-cdc-device.c ****   /* Prevent unused argument compilation warning */
1436:application-library/usb-device/usb-cdc-device.c ****   UNUSED(p_usbd_instance);
1437:application-library/usb-device/usb-cdc-device.c ****   return USBD_OK;
1438:application-library/usb-device/usb-cdc-device.c **** }
1439:application-library/usb-device/usb-cdc-device.c **** 
1440:application-library/usb-device/usb-cdc-device.c **** /**
1441:application-library/usb-device/usb-cdc-device.c ****   * @brief  USBD_LL_DevDisconnected
1442:application-library/usb-device/usb-cdc-device.c ****   *         Handle device disconnection event
1443:application-library/usb-device/usb-cdc-device.c ****   * @param  p_usbd_instance: device instance
1444:application-library/usb-device/usb-cdc-device.c ****   * @retval status
1445:application-library/usb-device/usb-cdc-device.c ****   */
1446:application-library/usb-device/usb-cdc-device.c **** USBD_StatusTypeDef USBD_LL_DevDisconnected(USBD_Handle_t *p_usbd_instance)
1447:application-library/usb-device/usb-cdc-device.c **** {
1448:application-library/usb-device/usb-cdc-device.c ****   USBD_StatusTypeDef   ret = USBD_OK;
1449:application-library/usb-device/usb-cdc-device.c **** 
1450:application-library/usb-device/usb-cdc-device.c ****   /* Free Class Resources */
1451:application-library/usb-device/usb-cdc-device.c ****   p_usbd_instance->dev_state = USBD_STATE_DEFAULT;
1452:application-library/usb-device/usb-cdc-device.c **** 
1453:application-library/usb-device/usb-cdc-device.c ****   if (p_usbd_instance->pClass != NULL)
1454:application-library/usb-device/usb-cdc-device.c ****   {
1455:application-library/usb-device/usb-cdc-device.c ****     if (p_usbd_instance->pClass->DeInit(p_usbd_instance, (uint8_t)p_usbd_instance->dev_config) != 0
1456:application-library/usb-device/usb-cdc-device.c ****     {
1457:application-library/usb-device/usb-cdc-device.c ****       ret = USBD_FAIL;
1458:application-library/usb-device/usb-cdc-device.c ****     }
1459:application-library/usb-device/usb-cdc-device.c ****   }
1460:application-library/usb-device/usb-cdc-device.c **** 
1461:application-library/usb-device/usb-cdc-device.c ****   return ret;
1462:application-library/usb-device/usb-cdc-device.c **** }
1463:application-library/usb-device/usb-cdc-device.c **** 
1464:application-library/usb-device/usb-cdc-device.c **** /**
1465:application-library/usb-device/usb-cdc-device.c ****   * @brief  Returns the class index relative to the selected endpoint
1466:application-library/usb-device/usb-cdc-device.c ****   * @param  p_usbd_instance: device instance
1467:application-library/usb-device/usb-cdc-device.c ****   * @param  index : selected endpoint number
1468:application-library/usb-device/usb-cdc-device.c ****   * @retval index of the class using the selected endpoint number. 0xFF if no class found.
1469:application-library/usb-device/usb-cdc-device.c ****   */
1470:application-library/usb-device/usb-cdc-device.c **** uint8_t USBD_CoreFindEP(USBD_Handle_t *p_usbd_instance, uint8_t index)
1471:application-library/usb-device/usb-cdc-device.c **** {
1472:application-library/usb-device/usb-cdc-device.c ****   UNUSED(p_usbd_instance);
1473:application-library/usb-device/usb-cdc-device.c ****   UNUSED(index);
1474:application-library/usb-device/usb-cdc-device.c ****   return 0x00U;
ARM GAS  /tmp/ccfNPkge.s 			page 30


1475:application-library/usb-device/usb-cdc-device.c **** }
1476:application-library/usb-device/usb-cdc-device.c **** 
1477:application-library/usb-device/usb-cdc-device.c **** /**
1478:application-library/usb-device/usb-cdc-device.c ****   * @brief  Returns the Endpoint descriptor
1479:application-library/usb-device/usb-cdc-device.c ****   * @param  p_usbd_instance: device instance
1480:application-library/usb-device/usb-cdc-device.c ****   * @param  pConfDesc:  pointer to Bos descriptor
1481:application-library/usb-device/usb-cdc-device.c ****   * @param  EpAddr:  endpoint address
1482:application-library/usb-device/usb-cdc-device.c ****   * @retval pointer to video endpoint descriptor
1483:application-library/usb-device/usb-cdc-device.c ****   */
1484:application-library/usb-device/usb-cdc-device.c **** void *USBD_GetEpDesc(uint8_t *pConfDesc, uint8_t EpAddr)
1485:application-library/usb-device/usb-cdc-device.c **** {
1486:application-library/usb-device/usb-cdc-device.c ****   USBD_DescHeaderTypeDef *pdesc = (USBD_DescHeaderTypeDef *)(void *)pConfDesc;
1487:application-library/usb-device/usb-cdc-device.c ****   USBD_ConfigDescTypeDef *desc = (USBD_ConfigDescTypeDef *)(void *)pConfDesc;
1488:application-library/usb-device/usb-cdc-device.c ****   USBD_EpDescTypeDef *pEpDesc = NULL;
1489:application-library/usb-device/usb-cdc-device.c ****   uint16_t ptr;
1490:application-library/usb-device/usb-cdc-device.c **** 
1491:application-library/usb-device/usb-cdc-device.c ****   if (desc->wTotalLength > desc->bLength)
1492:application-library/usb-device/usb-cdc-device.c ****   {
1493:application-library/usb-device/usb-cdc-device.c ****     ptr = desc->bLength;
1494:application-library/usb-device/usb-cdc-device.c ****     while (ptr < desc->wTotalLength)
1495:application-library/usb-device/usb-cdc-device.c ****     {
1496:application-library/usb-device/usb-cdc-device.c ****       pdesc = USBD_GetNextDesc((uint8_t *)pdesc, &ptr);
1497:application-library/usb-device/usb-cdc-device.c ****       if (pdesc->bDescriptorType == USB_DESC_TYPE_ENDPOINT)
1498:application-library/usb-device/usb-cdc-device.c ****       {
1499:application-library/usb-device/usb-cdc-device.c ****         pEpDesc = (USBD_EpDescTypeDef *)(void *)pdesc;
1500:application-library/usb-device/usb-cdc-device.c **** 
1501:application-library/usb-device/usb-cdc-device.c ****         if (pEpDesc->bEndpointAddress == EpAddr)
1502:application-library/usb-device/usb-cdc-device.c ****         {
1503:application-library/usb-device/usb-cdc-device.c ****           break;
1504:application-library/usb-device/usb-cdc-device.c ****         }
1505:application-library/usb-device/usb-cdc-device.c ****         else
1506:application-library/usb-device/usb-cdc-device.c ****         {
1507:application-library/usb-device/usb-cdc-device.c ****           pEpDesc = NULL;
1508:application-library/usb-device/usb-cdc-device.c ****         }
1509:application-library/usb-device/usb-cdc-device.c ****       }
1510:application-library/usb-device/usb-cdc-device.c ****     }
1511:application-library/usb-device/usb-cdc-device.c ****   }
1512:application-library/usb-device/usb-cdc-device.c **** 
1513:application-library/usb-device/usb-cdc-device.c ****   return (void *)pEpDesc;
1514:application-library/usb-device/usb-cdc-device.c **** }
1515:application-library/usb-device/usb-cdc-device.c **** 
1516:application-library/usb-device/usb-cdc-device.c **** /**
1517:application-library/usb-device/usb-cdc-device.c ****   * @brief  Returns the next descriptor header
1518:application-library/usb-device/usb-cdc-device.c ****   * @param  buf: Buffer where the descriptor is available
1519:application-library/usb-device/usb-cdc-device.c ****   * @param  ptr: data pointer inside the descriptor
1520:application-library/usb-device/usb-cdc-device.c ****   * @retval next header
1521:application-library/usb-device/usb-cdc-device.c ****   */
1522:application-library/usb-device/usb-cdc-device.c **** USBD_DescHeaderTypeDef *USBD_GetNextDesc(uint8_t *pbuf, uint16_t *ptr)
1523:application-library/usb-device/usb-cdc-device.c **** {
1524:application-library/usb-device/usb-cdc-device.c ****   USBD_DescHeaderTypeDef *pnext = (USBD_DescHeaderTypeDef *)(void *)pbuf;
1525:application-library/usb-device/usb-cdc-device.c **** 
1526:application-library/usb-device/usb-cdc-device.c ****   *ptr += pnext->bLength;
1527:application-library/usb-device/usb-cdc-device.c ****   pnext = (USBD_DescHeaderTypeDef *)(void *)(pbuf + pnext->bLength);
1528:application-library/usb-device/usb-cdc-device.c ****   return (pnext);
1529:application-library/usb-device/usb-cdc-device.c **** }
1530:application-library/usb-device/usb-cdc-device.c **** 
1531:application-library/usb-device/usb-cdc-device.c **** /**
ARM GAS  /tmp/ccfNPkge.s 			page 31


1532:application-library/usb-device/usb-cdc-device.c ****   * @brief  USBD_StdDevReq
1533:application-library/usb-device/usb-cdc-device.c ****   *         Handle standard usb device requests
1534:application-library/usb-device/usb-cdc-device.c ****   * @param  p_usbd_instance: device instance
1535:application-library/usb-device/usb-cdc-device.c ****   * @param  req: usb request
1536:application-library/usb-device/usb-cdc-device.c ****   * @retval status
1537:application-library/usb-device/usb-cdc-device.c ****   */
1538:application-library/usb-device/usb-cdc-device.c **** USBD_StatusTypeDef USBD_StdDevReq(USBD_Handle_t *p_usbd_instance, USBD_SetupReqTypedef *req)
1539:application-library/usb-device/usb-cdc-device.c **** {
1540:application-library/usb-device/usb-cdc-device.c ****   USBD_StatusTypeDef ret = USBD_OK;
1541:application-library/usb-device/usb-cdc-device.c **** 
1542:application-library/usb-device/usb-cdc-device.c ****   switch (req->bmRequest & USB_REQ_TYPE_MASK)
1543:application-library/usb-device/usb-cdc-device.c ****   {
1544:application-library/usb-device/usb-cdc-device.c ****     case USB_REQ_TYPE_CLASS:
1545:application-library/usb-device/usb-cdc-device.c ****     case USB_REQ_TYPE_VENDOR:
1546:application-library/usb-device/usb-cdc-device.c ****       ret = (USBD_StatusTypeDef)p_usbd_instance->pClass->Setup(p_usbd_instance, req);
1547:application-library/usb-device/usb-cdc-device.c ****       break;
1548:application-library/usb-device/usb-cdc-device.c **** 
1549:application-library/usb-device/usb-cdc-device.c ****     case USB_REQ_TYPE_STANDARD:
1550:application-library/usb-device/usb-cdc-device.c ****       switch (req->bRequest)
1551:application-library/usb-device/usb-cdc-device.c ****       {
1552:application-library/usb-device/usb-cdc-device.c ****         case USB_REQ_GET_DESCRIPTOR:
1553:application-library/usb-device/usb-cdc-device.c ****           USBD_GetDescriptor(p_usbd_instance, req);
1554:application-library/usb-device/usb-cdc-device.c ****           break;
1555:application-library/usb-device/usb-cdc-device.c **** 
1556:application-library/usb-device/usb-cdc-device.c ****         case USB_REQ_SET_ADDRESS:
1557:application-library/usb-device/usb-cdc-device.c ****           USBD_SetAddress(p_usbd_instance, req);
1558:application-library/usb-device/usb-cdc-device.c ****           break;
1559:application-library/usb-device/usb-cdc-device.c **** 
1560:application-library/usb-device/usb-cdc-device.c ****         case USB_REQ_SET_CONFIGURATION:
1561:application-library/usb-device/usb-cdc-device.c ****           ret = USBD_SetConfig(p_usbd_instance, req);
1562:application-library/usb-device/usb-cdc-device.c ****           break;
1563:application-library/usb-device/usb-cdc-device.c **** 
1564:application-library/usb-device/usb-cdc-device.c ****         case USB_REQ_GET_CONFIGURATION:
1565:application-library/usb-device/usb-cdc-device.c ****           USBD_GetConfig(p_usbd_instance, req);
1566:application-library/usb-device/usb-cdc-device.c ****           break;
1567:application-library/usb-device/usb-cdc-device.c **** 
1568:application-library/usb-device/usb-cdc-device.c ****         case USB_REQ_GET_STATUS:
1569:application-library/usb-device/usb-cdc-device.c ****           USBD_GetStatus(p_usbd_instance, req);
1570:application-library/usb-device/usb-cdc-device.c ****           break;
1571:application-library/usb-device/usb-cdc-device.c **** 
1572:application-library/usb-device/usb-cdc-device.c ****         case USB_REQ_SET_FEATURE:
1573:application-library/usb-device/usb-cdc-device.c ****           USBD_SetFeature(p_usbd_instance, req);
1574:application-library/usb-device/usb-cdc-device.c ****           break;
1575:application-library/usb-device/usb-cdc-device.c **** 
1576:application-library/usb-device/usb-cdc-device.c ****         case USB_REQ_CLEAR_FEATURE:
1577:application-library/usb-device/usb-cdc-device.c ****           USBD_ClrFeature(p_usbd_instance, req);
1578:application-library/usb-device/usb-cdc-device.c ****           break;
1579:application-library/usb-device/usb-cdc-device.c **** 
1580:application-library/usb-device/usb-cdc-device.c ****         default:
1581:application-library/usb-device/usb-cdc-device.c ****           USBD_CtlError(p_usbd_instance, req);
1582:application-library/usb-device/usb-cdc-device.c ****           break;
1583:application-library/usb-device/usb-cdc-device.c ****       }
1584:application-library/usb-device/usb-cdc-device.c ****       break;
1585:application-library/usb-device/usb-cdc-device.c **** 
1586:application-library/usb-device/usb-cdc-device.c ****     default:
1587:application-library/usb-device/usb-cdc-device.c ****       USBD_CtlError(p_usbd_instance, req);
1588:application-library/usb-device/usb-cdc-device.c ****       break;
ARM GAS  /tmp/ccfNPkge.s 			page 32


1589:application-library/usb-device/usb-cdc-device.c ****   }
1590:application-library/usb-device/usb-cdc-device.c **** 
1591:application-library/usb-device/usb-cdc-device.c ****   return ret;
1592:application-library/usb-device/usb-cdc-device.c **** }
1593:application-library/usb-device/usb-cdc-device.c **** 
1594:application-library/usb-device/usb-cdc-device.c **** /**
1595:application-library/usb-device/usb-cdc-device.c ****   * @brief  USBD_StdItfReq
1596:application-library/usb-device/usb-cdc-device.c ****   *         Handle standard usb interface requests
1597:application-library/usb-device/usb-cdc-device.c ****   * @param  p_usbd_instance: device instance
1598:application-library/usb-device/usb-cdc-device.c ****   * @param  req: usb request
1599:application-library/usb-device/usb-cdc-device.c ****   * @retval status
1600:application-library/usb-device/usb-cdc-device.c ****   */
1601:application-library/usb-device/usb-cdc-device.c **** USBD_StatusTypeDef USBD_StdItfReq(USBD_Handle_t *p_usbd_instance, USBD_SetupReqTypedef *req)
1602:application-library/usb-device/usb-cdc-device.c **** {
1603:application-library/usb-device/usb-cdc-device.c ****   USBD_StatusTypeDef ret = USBD_OK;
1604:application-library/usb-device/usb-cdc-device.c ****   uint8_t idx;
1605:application-library/usb-device/usb-cdc-device.c **** 
1606:application-library/usb-device/usb-cdc-device.c ****   switch (req->bmRequest & USB_REQ_TYPE_MASK)
1607:application-library/usb-device/usb-cdc-device.c ****   {
1608:application-library/usb-device/usb-cdc-device.c ****     case USB_REQ_TYPE_CLASS:
1609:application-library/usb-device/usb-cdc-device.c ****     case USB_REQ_TYPE_VENDOR:
1610:application-library/usb-device/usb-cdc-device.c ****     case USB_REQ_TYPE_STANDARD:
1611:application-library/usb-device/usb-cdc-device.c ****       switch (p_usbd_instance->dev_state)
1612:application-library/usb-device/usb-cdc-device.c ****       {
1613:application-library/usb-device/usb-cdc-device.c ****         case USBD_STATE_DEFAULT:
1614:application-library/usb-device/usb-cdc-device.c ****         case USBD_STATE_ADDRESSED:
1615:application-library/usb-device/usb-cdc-device.c ****         case USBD_STATE_CONFIGURED:
1616:application-library/usb-device/usb-cdc-device.c **** 
1617:application-library/usb-device/usb-cdc-device.c ****           if (LOBYTE(req->wIndex) <= USBD_MAX_NUM_INTERFACES)
1618:application-library/usb-device/usb-cdc-device.c ****           {
1619:application-library/usb-device/usb-cdc-device.c ****             /* Get the class index relative to this interface */
1620:application-library/usb-device/usb-cdc-device.c ****             idx = 0x00U;
1621:application-library/usb-device/usb-cdc-device.c ****             if ((uint8_t)idx != 0xFFU)
1622:application-library/usb-device/usb-cdc-device.c ****             {
1623:application-library/usb-device/usb-cdc-device.c ****               /* Call the class data out function to manage the request */
1624:application-library/usb-device/usb-cdc-device.c ****               if (p_usbd_instance->pClass->Setup != NULL)
1625:application-library/usb-device/usb-cdc-device.c ****               {
1626:application-library/usb-device/usb-cdc-device.c ****                 // p_usbd_instance->classId = idx;
1627:application-library/usb-device/usb-cdc-device.c ****                 ret = (USBD_StatusTypeDef)(p_usbd_instance->pClass->Setup(p_usbd_instance, req));
1628:application-library/usb-device/usb-cdc-device.c ****               }
1629:application-library/usb-device/usb-cdc-device.c ****               else
1630:application-library/usb-device/usb-cdc-device.c ****               {
1631:application-library/usb-device/usb-cdc-device.c ****                 /* should never reach this condition */
1632:application-library/usb-device/usb-cdc-device.c ****                 ret = USBD_FAIL;
1633:application-library/usb-device/usb-cdc-device.c ****               }
1634:application-library/usb-device/usb-cdc-device.c ****             }
1635:application-library/usb-device/usb-cdc-device.c ****             else
1636:application-library/usb-device/usb-cdc-device.c ****             {
1637:application-library/usb-device/usb-cdc-device.c ****               /* No relative interface found */
1638:application-library/usb-device/usb-cdc-device.c ****               ret = USBD_FAIL;
1639:application-library/usb-device/usb-cdc-device.c ****             }
1640:application-library/usb-device/usb-cdc-device.c **** 
1641:application-library/usb-device/usb-cdc-device.c ****             if ((req->wLength == 0U) && (ret == USBD_OK))
1642:application-library/usb-device/usb-cdc-device.c ****             {
1643:application-library/usb-device/usb-cdc-device.c ****               USBD_CtlSendStatus(p_usbd_instance);
1644:application-library/usb-device/usb-cdc-device.c ****             }
1645:application-library/usb-device/usb-cdc-device.c ****           }
ARM GAS  /tmp/ccfNPkge.s 			page 33


1646:application-library/usb-device/usb-cdc-device.c ****           else
1647:application-library/usb-device/usb-cdc-device.c ****           {
1648:application-library/usb-device/usb-cdc-device.c ****             USBD_CtlError(p_usbd_instance, req);
1649:application-library/usb-device/usb-cdc-device.c ****           }
1650:application-library/usb-device/usb-cdc-device.c ****           break;
1651:application-library/usb-device/usb-cdc-device.c **** 
1652:application-library/usb-device/usb-cdc-device.c ****         default:
1653:application-library/usb-device/usb-cdc-device.c ****           USBD_CtlError(p_usbd_instance, req);
1654:application-library/usb-device/usb-cdc-device.c ****           break;
1655:application-library/usb-device/usb-cdc-device.c ****       }
1656:application-library/usb-device/usb-cdc-device.c ****       break;
1657:application-library/usb-device/usb-cdc-device.c **** 
1658:application-library/usb-device/usb-cdc-device.c ****     default:
1659:application-library/usb-device/usb-cdc-device.c ****       USBD_CtlError(p_usbd_instance, req);
1660:application-library/usb-device/usb-cdc-device.c ****       break;
1661:application-library/usb-device/usb-cdc-device.c ****   }
1662:application-library/usb-device/usb-cdc-device.c **** 
1663:application-library/usb-device/usb-cdc-device.c ****   return ret;
1664:application-library/usb-device/usb-cdc-device.c **** }
1665:application-library/usb-device/usb-cdc-device.c **** 
1666:application-library/usb-device/usb-cdc-device.c **** /**
1667:application-library/usb-device/usb-cdc-device.c ****   * @brief  Handle standard usb endpoint requests
1668:application-library/usb-device/usb-cdc-device.c ****   * @param  p_usbd_instance: device instance
1669:application-library/usb-device/usb-cdc-device.c ****   * @param  req: usb request
1670:application-library/usb-device/usb-cdc-device.c ****   * @retval status
1671:application-library/usb-device/usb-cdc-device.c ****   */
1672:application-library/usb-device/usb-cdc-device.c **** USBD_StatusTypeDef USBD_StdEPReq(USBD_Handle_t *p_usbd_instance, USBD_SetupReqTypedef *req)
1673:application-library/usb-device/usb-cdc-device.c **** {
1674:application-library/usb-device/usb-cdc-device.c ****   USBD_EndpointTypeDef *pep;
1675:application-library/usb-device/usb-cdc-device.c ****   uint8_t ep_addr;
1676:application-library/usb-device/usb-cdc-device.c ****   uint8_t idx;
1677:application-library/usb-device/usb-cdc-device.c ****   USBD_StatusTypeDef ret = USBD_OK;
1678:application-library/usb-device/usb-cdc-device.c **** 
1679:application-library/usb-device/usb-cdc-device.c ****   ep_addr = LOBYTE(req->wIndex);
1680:application-library/usb-device/usb-cdc-device.c **** 
1681:application-library/usb-device/usb-cdc-device.c ****   switch (req->bmRequest & USB_REQ_TYPE_MASK)
1682:application-library/usb-device/usb-cdc-device.c ****   {
1683:application-library/usb-device/usb-cdc-device.c ****     case USB_REQ_TYPE_CLASS:
1684:application-library/usb-device/usb-cdc-device.c ****     case USB_REQ_TYPE_VENDOR:
1685:application-library/usb-device/usb-cdc-device.c ****       /* Get the class index relative to this endpoint */
1686:application-library/usb-device/usb-cdc-device.c ****       idx = USBD_CoreFindEP(p_usbd_instance, ep_addr);
1687:application-library/usb-device/usb-cdc-device.c ****       if ((uint8_t)idx != 0xFFU)
1688:application-library/usb-device/usb-cdc-device.c ****       {
1689:application-library/usb-device/usb-cdc-device.c ****         // p_usbd_instance->classId = idx;
1690:application-library/usb-device/usb-cdc-device.c ****         /* Call the class data out function to manage the request */
1691:application-library/usb-device/usb-cdc-device.c ****         if (p_usbd_instance->pClass->Setup != NULL)
1692:application-library/usb-device/usb-cdc-device.c ****         {
1693:application-library/usb-device/usb-cdc-device.c ****           ret = (USBD_StatusTypeDef)p_usbd_instance->pClass->Setup(p_usbd_instance, req);
1694:application-library/usb-device/usb-cdc-device.c ****         }
1695:application-library/usb-device/usb-cdc-device.c ****       }
1696:application-library/usb-device/usb-cdc-device.c ****       break;
1697:application-library/usb-device/usb-cdc-device.c **** 
1698:application-library/usb-device/usb-cdc-device.c ****     case USB_REQ_TYPE_STANDARD:
1699:application-library/usb-device/usb-cdc-device.c ****       switch (req->bRequest)
1700:application-library/usb-device/usb-cdc-device.c ****       {
1701:application-library/usb-device/usb-cdc-device.c ****         case USB_REQ_SET_FEATURE:
1702:application-library/usb-device/usb-cdc-device.c ****           switch (p_usbd_instance->dev_state)
ARM GAS  /tmp/ccfNPkge.s 			page 34


1703:application-library/usb-device/usb-cdc-device.c ****           {
1704:application-library/usb-device/usb-cdc-device.c ****             case USBD_STATE_ADDRESSED:
1705:application-library/usb-device/usb-cdc-device.c ****               if ((ep_addr != 0x00U) && (ep_addr != 0x80U))
1706:application-library/usb-device/usb-cdc-device.c ****               {
1707:application-library/usb-device/usb-cdc-device.c ****                 (void)USBD_LL_StallEP(p_usbd_instance, ep_addr);
1708:application-library/usb-device/usb-cdc-device.c ****                 (void)USBD_LL_StallEP(p_usbd_instance, 0x80U);
1709:application-library/usb-device/usb-cdc-device.c ****               }
1710:application-library/usb-device/usb-cdc-device.c ****               else
1711:application-library/usb-device/usb-cdc-device.c ****               {
1712:application-library/usb-device/usb-cdc-device.c ****                 USBD_CtlError(p_usbd_instance, req);
1713:application-library/usb-device/usb-cdc-device.c ****               }
1714:application-library/usb-device/usb-cdc-device.c ****               break;
1715:application-library/usb-device/usb-cdc-device.c **** 
1716:application-library/usb-device/usb-cdc-device.c ****             case USBD_STATE_CONFIGURED:
1717:application-library/usb-device/usb-cdc-device.c ****               if (req->wValue == USB_FEATURE_EP_HALT)
1718:application-library/usb-device/usb-cdc-device.c ****               {
1719:application-library/usb-device/usb-cdc-device.c ****                 if ((ep_addr != 0x00U) && (ep_addr != 0x80U) && (req->wLength == 0x00U))
1720:application-library/usb-device/usb-cdc-device.c ****                 {
1721:application-library/usb-device/usb-cdc-device.c ****                   (void)USBD_LL_StallEP(p_usbd_instance, ep_addr);
1722:application-library/usb-device/usb-cdc-device.c ****                 }
1723:application-library/usb-device/usb-cdc-device.c ****               }
1724:application-library/usb-device/usb-cdc-device.c ****               USBD_CtlSendStatus(p_usbd_instance);
1725:application-library/usb-device/usb-cdc-device.c **** 
1726:application-library/usb-device/usb-cdc-device.c ****               break;
1727:application-library/usb-device/usb-cdc-device.c **** 
1728:application-library/usb-device/usb-cdc-device.c ****             default:
1729:application-library/usb-device/usb-cdc-device.c ****               USBD_CtlError(p_usbd_instance, req);
1730:application-library/usb-device/usb-cdc-device.c ****               break;
1731:application-library/usb-device/usb-cdc-device.c ****           }
1732:application-library/usb-device/usb-cdc-device.c ****           break;
1733:application-library/usb-device/usb-cdc-device.c **** 
1734:application-library/usb-device/usb-cdc-device.c ****         case USB_REQ_CLEAR_FEATURE:
1735:application-library/usb-device/usb-cdc-device.c **** 
1736:application-library/usb-device/usb-cdc-device.c ****           switch (p_usbd_instance->dev_state)
1737:application-library/usb-device/usb-cdc-device.c ****           {
1738:application-library/usb-device/usb-cdc-device.c ****             case USBD_STATE_ADDRESSED:
1739:application-library/usb-device/usb-cdc-device.c ****               if ((ep_addr != 0x00U) && (ep_addr != 0x80U))
1740:application-library/usb-device/usb-cdc-device.c ****               {
1741:application-library/usb-device/usb-cdc-device.c ****                 (void)USBD_LL_StallEP(p_usbd_instance, ep_addr);
1742:application-library/usb-device/usb-cdc-device.c ****                 (void)USBD_LL_StallEP(p_usbd_instance, 0x80U);
1743:application-library/usb-device/usb-cdc-device.c ****               }
1744:application-library/usb-device/usb-cdc-device.c ****               else
1745:application-library/usb-device/usb-cdc-device.c ****               {
1746:application-library/usb-device/usb-cdc-device.c ****                 USBD_CtlError(p_usbd_instance, req);
1747:application-library/usb-device/usb-cdc-device.c ****               }
1748:application-library/usb-device/usb-cdc-device.c ****               break;
1749:application-library/usb-device/usb-cdc-device.c **** 
1750:application-library/usb-device/usb-cdc-device.c ****             case USBD_STATE_CONFIGURED:
1751:application-library/usb-device/usb-cdc-device.c ****               if (req->wValue == USB_FEATURE_EP_HALT)
1752:application-library/usb-device/usb-cdc-device.c ****               {
1753:application-library/usb-device/usb-cdc-device.c ****                 if ((ep_addr & 0x7FU) != 0x00U)
1754:application-library/usb-device/usb-cdc-device.c ****                 {
1755:application-library/usb-device/usb-cdc-device.c ****                   USBD_LL_ClearStallEP(p_usbd_instance, ep_addr);
1756:application-library/usb-device/usb-cdc-device.c ****                 }
1757:application-library/usb-device/usb-cdc-device.c ****                 USBD_CtlSendStatus(p_usbd_instance);
1758:application-library/usb-device/usb-cdc-device.c **** 
1759:application-library/usb-device/usb-cdc-device.c ****                 /* Get the class index relative to this interface */
ARM GAS  /tmp/ccfNPkge.s 			page 35


1760:application-library/usb-device/usb-cdc-device.c ****                 idx = USBD_CoreFindEP(p_usbd_instance, ep_addr);
1761:application-library/usb-device/usb-cdc-device.c ****                 if ((uint8_t)idx != 0xFFU)
1762:application-library/usb-device/usb-cdc-device.c ****                 {
1763:application-library/usb-device/usb-cdc-device.c ****                   // p_usbd_instance->classId = idx;
1764:application-library/usb-device/usb-cdc-device.c ****                   /* Call the class data out function to manage the request */
1765:application-library/usb-device/usb-cdc-device.c ****                   if (p_usbd_instance->pClass->Setup != NULL)
1766:application-library/usb-device/usb-cdc-device.c ****                   {
1767:application-library/usb-device/usb-cdc-device.c ****                     ret = (USBD_StatusTypeDef)(p_usbd_instance->pClass->Setup(p_usbd_instance, req)
1768:application-library/usb-device/usb-cdc-device.c ****                   }
1769:application-library/usb-device/usb-cdc-device.c ****                 }
1770:application-library/usb-device/usb-cdc-device.c ****               }
1771:application-library/usb-device/usb-cdc-device.c ****               break;
1772:application-library/usb-device/usb-cdc-device.c **** 
1773:application-library/usb-device/usb-cdc-device.c ****             default:
1774:application-library/usb-device/usb-cdc-device.c ****               USBD_CtlError(p_usbd_instance, req);
1775:application-library/usb-device/usb-cdc-device.c ****               break;
1776:application-library/usb-device/usb-cdc-device.c ****           }
1777:application-library/usb-device/usb-cdc-device.c ****           break;
1778:application-library/usb-device/usb-cdc-device.c **** 
1779:application-library/usb-device/usb-cdc-device.c ****         case USB_REQ_GET_STATUS:
1780:application-library/usb-device/usb-cdc-device.c ****           switch (p_usbd_instance->dev_state)
1781:application-library/usb-device/usb-cdc-device.c ****           {
1782:application-library/usb-device/usb-cdc-device.c ****             case USBD_STATE_ADDRESSED:
1783:application-library/usb-device/usb-cdc-device.c ****               if ((ep_addr != 0x00U) && (ep_addr != 0x80U))
1784:application-library/usb-device/usb-cdc-device.c ****               {
1785:application-library/usb-device/usb-cdc-device.c ****                 USBD_CtlError(p_usbd_instance, req);
1786:application-library/usb-device/usb-cdc-device.c ****                 break;
1787:application-library/usb-device/usb-cdc-device.c ****               }
1788:application-library/usb-device/usb-cdc-device.c ****               pep = ((ep_addr & 0x80U) == 0x80U) ? &p_usbd_instance->ep_in[ep_addr & 0x7FU] : \
1789:application-library/usb-device/usb-cdc-device.c ****                     &p_usbd_instance->ep_out[ep_addr & 0x7FU];
1790:application-library/usb-device/usb-cdc-device.c **** 
1791:application-library/usb-device/usb-cdc-device.c ****               pep->status = 0x0000U;
1792:application-library/usb-device/usb-cdc-device.c **** 
1793:application-library/usb-device/usb-cdc-device.c ****               USBD_CtlSendData(p_usbd_instance, (uint8_t *)&pep->status, 2U);
1794:application-library/usb-device/usb-cdc-device.c ****               break;
1795:application-library/usb-device/usb-cdc-device.c **** 
1796:application-library/usb-device/usb-cdc-device.c ****             case USBD_STATE_CONFIGURED:
1797:application-library/usb-device/usb-cdc-device.c ****               if ((ep_addr & 0x80U) == 0x80U)
1798:application-library/usb-device/usb-cdc-device.c ****               {
1799:application-library/usb-device/usb-cdc-device.c ****                 if (p_usbd_instance->ep_in[ep_addr & 0xFU].is_used == 0U)
1800:application-library/usb-device/usb-cdc-device.c ****                 {
1801:application-library/usb-device/usb-cdc-device.c ****                   USBD_CtlError(p_usbd_instance, req);
1802:application-library/usb-device/usb-cdc-device.c ****                   break;
1803:application-library/usb-device/usb-cdc-device.c ****                 }
1804:application-library/usb-device/usb-cdc-device.c ****               }
1805:application-library/usb-device/usb-cdc-device.c ****               else
1806:application-library/usb-device/usb-cdc-device.c ****               {
1807:application-library/usb-device/usb-cdc-device.c ****                 if (p_usbd_instance->ep_out[ep_addr & 0xFU].is_used == 0U)
1808:application-library/usb-device/usb-cdc-device.c ****                 {
1809:application-library/usb-device/usb-cdc-device.c ****                   USBD_CtlError(p_usbd_instance, req);
1810:application-library/usb-device/usb-cdc-device.c ****                   break;
1811:application-library/usb-device/usb-cdc-device.c ****                 }
1812:application-library/usb-device/usb-cdc-device.c ****               }
1813:application-library/usb-device/usb-cdc-device.c **** 
1814:application-library/usb-device/usb-cdc-device.c ****               pep = ((ep_addr & 0x80U) == 0x80U) ? &p_usbd_instance->ep_in[ep_addr & 0x7FU] : \
1815:application-library/usb-device/usb-cdc-device.c ****                     &p_usbd_instance->ep_out[ep_addr & 0x7FU];
1816:application-library/usb-device/usb-cdc-device.c **** 
ARM GAS  /tmp/ccfNPkge.s 			page 36


1817:application-library/usb-device/usb-cdc-device.c ****               if ((ep_addr == 0x00U) || (ep_addr == 0x80U))
1818:application-library/usb-device/usb-cdc-device.c ****               {
1819:application-library/usb-device/usb-cdc-device.c ****                 pep->status = 0x0000U;
1820:application-library/usb-device/usb-cdc-device.c ****               }
1821:application-library/usb-device/usb-cdc-device.c ****               else if (USBD_LL_IsStallEP(p_usbd_instance, ep_addr) != 0U)
1822:application-library/usb-device/usb-cdc-device.c ****               {
1823:application-library/usb-device/usb-cdc-device.c ****                 pep->status = 0x0001U;
1824:application-library/usb-device/usb-cdc-device.c ****               }
1825:application-library/usb-device/usb-cdc-device.c ****               else
1826:application-library/usb-device/usb-cdc-device.c ****               {
1827:application-library/usb-device/usb-cdc-device.c ****                 pep->status = 0x0000U;
1828:application-library/usb-device/usb-cdc-device.c ****               }
1829:application-library/usb-device/usb-cdc-device.c **** 
1830:application-library/usb-device/usb-cdc-device.c ****               USBD_CtlSendData(p_usbd_instance, (uint8_t *)&pep->status, 2U);
1831:application-library/usb-device/usb-cdc-device.c ****               break;
1832:application-library/usb-device/usb-cdc-device.c **** 
1833:application-library/usb-device/usb-cdc-device.c ****             default:
1834:application-library/usb-device/usb-cdc-device.c ****               USBD_CtlError(p_usbd_instance, req);
1835:application-library/usb-device/usb-cdc-device.c ****               break;
1836:application-library/usb-device/usb-cdc-device.c ****           }
1837:application-library/usb-device/usb-cdc-device.c ****           break;
1838:application-library/usb-device/usb-cdc-device.c **** 
1839:application-library/usb-device/usb-cdc-device.c ****         default:
1840:application-library/usb-device/usb-cdc-device.c ****           USBD_CtlError(p_usbd_instance, req);
1841:application-library/usb-device/usb-cdc-device.c ****           break;
1842:application-library/usb-device/usb-cdc-device.c ****       }
1843:application-library/usb-device/usb-cdc-device.c ****       break;
1844:application-library/usb-device/usb-cdc-device.c **** 
1845:application-library/usb-device/usb-cdc-device.c ****     default:
1846:application-library/usb-device/usb-cdc-device.c ****       USBD_CtlError(p_usbd_instance, req);
1847:application-library/usb-device/usb-cdc-device.c ****       break;
1848:application-library/usb-device/usb-cdc-device.c ****   }
1849:application-library/usb-device/usb-cdc-device.c **** 
1850:application-library/usb-device/usb-cdc-device.c ****   return ret;
1851:application-library/usb-device/usb-cdc-device.c **** }
1852:application-library/usb-device/usb-cdc-device.c **** 
1853:application-library/usb-device/usb-cdc-device.c **** 
1854:application-library/usb-device/usb-cdc-device.c **** /**
1855:application-library/usb-device/usb-cdc-device.c ****   * @brief  Handle Get Descriptor requests
1856:application-library/usb-device/usb-cdc-device.c ****   * @param  p_usbd_instance: device instance
1857:application-library/usb-device/usb-cdc-device.c ****   * @param  req: usb request
1858:application-library/usb-device/usb-cdc-device.c ****   * @retval status
1859:application-library/usb-device/usb-cdc-device.c ****   */
1860:application-library/usb-device/usb-cdc-device.c **** void USBD_GetDescriptor(USBD_Handle_t *p_usbd_instance, USBD_SetupReqTypedef *req)
1861:application-library/usb-device/usb-cdc-device.c **** {
1862:application-library/usb-device/usb-cdc-device.c ****   uint16_t len = 0U;
1863:application-library/usb-device/usb-cdc-device.c ****   uint8_t *pbuf = NULL;
1864:application-library/usb-device/usb-cdc-device.c ****   uint8_t err = 0U;
1865:application-library/usb-device/usb-cdc-device.c **** 
1866:application-library/usb-device/usb-cdc-device.c ****   switch (req->wValue >> 8)
1867:application-library/usb-device/usb-cdc-device.c ****   {
1868:application-library/usb-device/usb-cdc-device.c ****     case USB_DESC_TYPE_DEVICE:
1869:application-library/usb-device/usb-cdc-device.c ****       pbuf = p_usbd_instance->pDesc->GetDeviceDescriptor(p_usbd_instance->dev_speed, &len);
1870:application-library/usb-device/usb-cdc-device.c ****       break;
1871:application-library/usb-device/usb-cdc-device.c **** 
1872:application-library/usb-device/usb-cdc-device.c ****     case USB_DESC_TYPE_CONFIGURATION:
1873:application-library/usb-device/usb-cdc-device.c ****       if (p_usbd_instance->dev_speed == USBD_SPEED_HIGH)
ARM GAS  /tmp/ccfNPkge.s 			page 37


1874:application-library/usb-device/usb-cdc-device.c ****       {
1875:application-library/usb-device/usb-cdc-device.c ****         pbuf = (uint8_t *)p_usbd_instance->pClass->GetHSConfigDescriptor(&len);
1876:application-library/usb-device/usb-cdc-device.c ****         pbuf[1] = USB_DESC_TYPE_CONFIGURATION;
1877:application-library/usb-device/usb-cdc-device.c ****       }
1878:application-library/usb-device/usb-cdc-device.c ****       else
1879:application-library/usb-device/usb-cdc-device.c ****       {
1880:application-library/usb-device/usb-cdc-device.c ****         pbuf   = (uint8_t *)p_usbd_instance->pClass->GetFSConfigDescriptor(&len);
1881:application-library/usb-device/usb-cdc-device.c ****         pbuf[1] = USB_DESC_TYPE_CONFIGURATION;
1882:application-library/usb-device/usb-cdc-device.c ****       }
1883:application-library/usb-device/usb-cdc-device.c ****       break;
1884:application-library/usb-device/usb-cdc-device.c **** 
1885:application-library/usb-device/usb-cdc-device.c ****     case USB_DESC_TYPE_STRING:
1886:application-library/usb-device/usb-cdc-device.c ****       switch ((uint8_t)(req->wValue))
1887:application-library/usb-device/usb-cdc-device.c ****       {
1888:application-library/usb-device/usb-cdc-device.c ****         case USBD_IDX_LANGID_STR:
1889:application-library/usb-device/usb-cdc-device.c ****           if (p_usbd_instance->pDesc->GetLangIDStrDescriptor != NULL)
1890:application-library/usb-device/usb-cdc-device.c ****           {
1891:application-library/usb-device/usb-cdc-device.c ****             pbuf = p_usbd_instance->pDesc->GetLangIDStrDescriptor(p_usbd_instance->dev_speed, &len)
1892:application-library/usb-device/usb-cdc-device.c ****           }
1893:application-library/usb-device/usb-cdc-device.c ****           else
1894:application-library/usb-device/usb-cdc-device.c ****           {
1895:application-library/usb-device/usb-cdc-device.c ****             USBD_CtlError(p_usbd_instance, req);
1896:application-library/usb-device/usb-cdc-device.c ****             err++;
1897:application-library/usb-device/usb-cdc-device.c ****           }
1898:application-library/usb-device/usb-cdc-device.c ****           break;
1899:application-library/usb-device/usb-cdc-device.c **** 
1900:application-library/usb-device/usb-cdc-device.c ****         case USBD_IDX_MFC_STR:
1901:application-library/usb-device/usb-cdc-device.c ****           if (p_usbd_instance->pDesc->GetManufacturerStrDescriptor != NULL)
1902:application-library/usb-device/usb-cdc-device.c ****           {
1903:application-library/usb-device/usb-cdc-device.c ****             pbuf = p_usbd_instance->pDesc->GetManufacturerStrDescriptor(p_usbd_instance->dev_speed,
1904:application-library/usb-device/usb-cdc-device.c ****           }
1905:application-library/usb-device/usb-cdc-device.c ****           else
1906:application-library/usb-device/usb-cdc-device.c ****           {
1907:application-library/usb-device/usb-cdc-device.c ****             USBD_CtlError(p_usbd_instance, req);
1908:application-library/usb-device/usb-cdc-device.c ****             err++;
1909:application-library/usb-device/usb-cdc-device.c ****           }
1910:application-library/usb-device/usb-cdc-device.c ****           break;
1911:application-library/usb-device/usb-cdc-device.c **** 
1912:application-library/usb-device/usb-cdc-device.c ****         case USBD_IDX_PRODUCT_STR:
1913:application-library/usb-device/usb-cdc-device.c ****           if (p_usbd_instance->pDesc->GetProductStrDescriptor != NULL)
1914:application-library/usb-device/usb-cdc-device.c ****           {
1915:application-library/usb-device/usb-cdc-device.c ****             pbuf = p_usbd_instance->pDesc->GetProductStrDescriptor(p_usbd_instance->dev_speed, &len
1916:application-library/usb-device/usb-cdc-device.c ****           }
1917:application-library/usb-device/usb-cdc-device.c ****           else
1918:application-library/usb-device/usb-cdc-device.c ****           {
1919:application-library/usb-device/usb-cdc-device.c ****             USBD_CtlError(p_usbd_instance, req);
1920:application-library/usb-device/usb-cdc-device.c ****             err++;
1921:application-library/usb-device/usb-cdc-device.c ****           }
1922:application-library/usb-device/usb-cdc-device.c ****           break;
1923:application-library/usb-device/usb-cdc-device.c **** 
1924:application-library/usb-device/usb-cdc-device.c ****         case USBD_IDX_SERIAL_STR:
1925:application-library/usb-device/usb-cdc-device.c ****           if (p_usbd_instance->pDesc->GetSerialStrDescriptor != NULL)
1926:application-library/usb-device/usb-cdc-device.c ****           {
1927:application-library/usb-device/usb-cdc-device.c ****             pbuf = p_usbd_instance->pDesc->GetSerialStrDescriptor(p_usbd_instance->dev_speed, &len)
1928:application-library/usb-device/usb-cdc-device.c ****           }
1929:application-library/usb-device/usb-cdc-device.c ****           else
1930:application-library/usb-device/usb-cdc-device.c ****           {
ARM GAS  /tmp/ccfNPkge.s 			page 38


1931:application-library/usb-device/usb-cdc-device.c ****             USBD_CtlError(p_usbd_instance, req);
1932:application-library/usb-device/usb-cdc-device.c ****             err++;
1933:application-library/usb-device/usb-cdc-device.c ****           }
1934:application-library/usb-device/usb-cdc-device.c ****           break;
1935:application-library/usb-device/usb-cdc-device.c **** 
1936:application-library/usb-device/usb-cdc-device.c ****         case USBD_IDX_CONFIG_STR:
1937:application-library/usb-device/usb-cdc-device.c ****           if (p_usbd_instance->pDesc->GetConfigurationStrDescriptor != NULL)
1938:application-library/usb-device/usb-cdc-device.c ****           {
1939:application-library/usb-device/usb-cdc-device.c ****             pbuf = p_usbd_instance->pDesc->GetConfigurationStrDescriptor(p_usbd_instance->dev_speed
1940:application-library/usb-device/usb-cdc-device.c ****           }
1941:application-library/usb-device/usb-cdc-device.c ****           else
1942:application-library/usb-device/usb-cdc-device.c ****           {
1943:application-library/usb-device/usb-cdc-device.c ****             USBD_CtlError(p_usbd_instance, req);
1944:application-library/usb-device/usb-cdc-device.c ****             err++;
1945:application-library/usb-device/usb-cdc-device.c ****           }
1946:application-library/usb-device/usb-cdc-device.c ****           break;
1947:application-library/usb-device/usb-cdc-device.c **** 
1948:application-library/usb-device/usb-cdc-device.c ****         case USBD_IDX_INTERFACE_STR:
1949:application-library/usb-device/usb-cdc-device.c ****           if (p_usbd_instance->pDesc->GetInterfaceStrDescriptor != NULL)
1950:application-library/usb-device/usb-cdc-device.c ****           {
1951:application-library/usb-device/usb-cdc-device.c ****             pbuf = p_usbd_instance->pDesc->GetInterfaceStrDescriptor(p_usbd_instance->dev_speed, &l
1952:application-library/usb-device/usb-cdc-device.c ****           }
1953:application-library/usb-device/usb-cdc-device.c ****           else
1954:application-library/usb-device/usb-cdc-device.c ****           {
1955:application-library/usb-device/usb-cdc-device.c ****             USBD_CtlError(p_usbd_instance, req);
1956:application-library/usb-device/usb-cdc-device.c ****             err++;
1957:application-library/usb-device/usb-cdc-device.c ****           }
1958:application-library/usb-device/usb-cdc-device.c ****           break;
1959:application-library/usb-device/usb-cdc-device.c **** 
1960:application-library/usb-device/usb-cdc-device.c ****         default:
1961:application-library/usb-device/usb-cdc-device.c **** 
1962:application-library/usb-device/usb-cdc-device.c **** #if ((USBD_CLASS_USER_STRING_DESC == 0U) && (USBD_SUPPORT_USER_STRING_DESC == 0U))
1963:application-library/usb-device/usb-cdc-device.c ****           USBD_CtlError(p_usbd_instance, req);
1964:application-library/usb-device/usb-cdc-device.c ****           err++;
1965:application-library/usb-device/usb-cdc-device.c **** #endif /* (USBD_CLASS_USER_STRING_DESC == 0U) && (USBD_SUPPORT_USER_STRING_DESC == 0U) */
1966:application-library/usb-device/usb-cdc-device.c ****           break;
1967:application-library/usb-device/usb-cdc-device.c ****       }
1968:application-library/usb-device/usb-cdc-device.c ****       break;
1969:application-library/usb-device/usb-cdc-device.c **** 
1970:application-library/usb-device/usb-cdc-device.c ****     case USB_DESC_TYPE_DEVICE_QUALIFIER:
1971:application-library/usb-device/usb-cdc-device.c ****       if (p_usbd_instance->dev_speed == USBD_SPEED_HIGH)
1972:application-library/usb-device/usb-cdc-device.c ****       {
1973:application-library/usb-device/usb-cdc-device.c ****         pbuf = (uint8_t *)p_usbd_instance->pClass->GetDeviceQualifierDescriptor(&len);
1974:application-library/usb-device/usb-cdc-device.c ****       }
1975:application-library/usb-device/usb-cdc-device.c ****       else
1976:application-library/usb-device/usb-cdc-device.c ****       {
1977:application-library/usb-device/usb-cdc-device.c ****         USBD_CtlError(p_usbd_instance, req);
1978:application-library/usb-device/usb-cdc-device.c ****         err++;
1979:application-library/usb-device/usb-cdc-device.c ****       }
1980:application-library/usb-device/usb-cdc-device.c ****       break;
1981:application-library/usb-device/usb-cdc-device.c **** 
1982:application-library/usb-device/usb-cdc-device.c ****     case USB_DESC_TYPE_OTHER_SPEED_CONFIGURATION:
1983:application-library/usb-device/usb-cdc-device.c ****       if (p_usbd_instance->dev_speed == USBD_SPEED_HIGH)
1984:application-library/usb-device/usb-cdc-device.c ****       {
1985:application-library/usb-device/usb-cdc-device.c ****         pbuf = (uint8_t *)p_usbd_instance->pClass->GetOtherSpeedConfigDescriptor(&len);
1986:application-library/usb-device/usb-cdc-device.c ****         pbuf[1] = USB_DESC_TYPE_OTHER_SPEED_CONFIGURATION;
1987:application-library/usb-device/usb-cdc-device.c ****       }
ARM GAS  /tmp/ccfNPkge.s 			page 39


1988:application-library/usb-device/usb-cdc-device.c ****       else
1989:application-library/usb-device/usb-cdc-device.c ****       {
1990:application-library/usb-device/usb-cdc-device.c ****         USBD_CtlError(p_usbd_instance, req);
1991:application-library/usb-device/usb-cdc-device.c ****         err++;
1992:application-library/usb-device/usb-cdc-device.c ****       }
1993:application-library/usb-device/usb-cdc-device.c ****       break;
1994:application-library/usb-device/usb-cdc-device.c **** 
1995:application-library/usb-device/usb-cdc-device.c ****     default:
1996:application-library/usb-device/usb-cdc-device.c ****       USBD_CtlError(p_usbd_instance, req);
1997:application-library/usb-device/usb-cdc-device.c ****       err++;
1998:application-library/usb-device/usb-cdc-device.c ****       break;
1999:application-library/usb-device/usb-cdc-device.c ****   }
2000:application-library/usb-device/usb-cdc-device.c **** 
2001:application-library/usb-device/usb-cdc-device.c ****   if (err != 0U)
2002:application-library/usb-device/usb-cdc-device.c ****   {
2003:application-library/usb-device/usb-cdc-device.c ****     return;
2004:application-library/usb-device/usb-cdc-device.c ****   }
2005:application-library/usb-device/usb-cdc-device.c **** 
2006:application-library/usb-device/usb-cdc-device.c ****   if (req->wLength != 0U)
2007:application-library/usb-device/usb-cdc-device.c ****   {
2008:application-library/usb-device/usb-cdc-device.c ****     if (len != 0U)
2009:application-library/usb-device/usb-cdc-device.c ****     {
2010:application-library/usb-device/usb-cdc-device.c ****       len = MIN(len, req->wLength);
2011:application-library/usb-device/usb-cdc-device.c ****       USBD_CtlSendData(p_usbd_instance, pbuf, len);
2012:application-library/usb-device/usb-cdc-device.c ****     }
2013:application-library/usb-device/usb-cdc-device.c ****     else
2014:application-library/usb-device/usb-cdc-device.c ****     {
2015:application-library/usb-device/usb-cdc-device.c ****       USBD_CtlError(p_usbd_instance, req);
2016:application-library/usb-device/usb-cdc-device.c ****     }
2017:application-library/usb-device/usb-cdc-device.c ****   }
2018:application-library/usb-device/usb-cdc-device.c ****   else
2019:application-library/usb-device/usb-cdc-device.c ****   {
2020:application-library/usb-device/usb-cdc-device.c ****     USBD_CtlSendStatus(p_usbd_instance);
2021:application-library/usb-device/usb-cdc-device.c ****   }
2022:application-library/usb-device/usb-cdc-device.c **** }
2023:application-library/usb-device/usb-cdc-device.c **** 
2024:application-library/usb-device/usb-cdc-device.c **** 
2025:application-library/usb-device/usb-cdc-device.c **** /**
2026:application-library/usb-device/usb-cdc-device.c ****   * @brief  Set device address
2027:application-library/usb-device/usb-cdc-device.c ****   * @param  p_usbd_instance: device instance
2028:application-library/usb-device/usb-cdc-device.c ****   * @param  req: usb request
2029:application-library/usb-device/usb-cdc-device.c ****   * @retval status
2030:application-library/usb-device/usb-cdc-device.c ****   */
2031:application-library/usb-device/usb-cdc-device.c **** void USBD_SetAddress(USBD_Handle_t *p_usbd_instance, USBD_SetupReqTypedef *req)
2032:application-library/usb-device/usb-cdc-device.c **** {
2033:application-library/usb-device/usb-cdc-device.c ****   uint8_t  dev_addr;
2034:application-library/usb-device/usb-cdc-device.c **** 
2035:application-library/usb-device/usb-cdc-device.c ****   if ((req->wIndex == 0U) && (req->wLength == 0U) && (req->wValue < 128U))
2036:application-library/usb-device/usb-cdc-device.c ****   {
2037:application-library/usb-device/usb-cdc-device.c ****     dev_addr = (uint8_t)(req->wValue) & 0x7FU;
2038:application-library/usb-device/usb-cdc-device.c **** 
2039:application-library/usb-device/usb-cdc-device.c ****     if (p_usbd_instance->dev_state == USBD_STATE_CONFIGURED)
2040:application-library/usb-device/usb-cdc-device.c ****     {
2041:application-library/usb-device/usb-cdc-device.c ****       USBD_CtlError(p_usbd_instance, req);
2042:application-library/usb-device/usb-cdc-device.c ****     }
2043:application-library/usb-device/usb-cdc-device.c ****     else
2044:application-library/usb-device/usb-cdc-device.c ****     {
ARM GAS  /tmp/ccfNPkge.s 			page 40


2045:application-library/usb-device/usb-cdc-device.c ****       p_usbd_instance->dev_address = dev_addr;
2046:application-library/usb-device/usb-cdc-device.c ****       (void)USBD_LL_SetUSBAddress(p_usbd_instance, dev_addr);
2047:application-library/usb-device/usb-cdc-device.c ****       USBD_CtlSendStatus(p_usbd_instance);
2048:application-library/usb-device/usb-cdc-device.c **** 
2049:application-library/usb-device/usb-cdc-device.c ****       if (dev_addr != 0U)
2050:application-library/usb-device/usb-cdc-device.c ****       {
2051:application-library/usb-device/usb-cdc-device.c ****         p_usbd_instance->dev_state = USBD_STATE_ADDRESSED;
2052:application-library/usb-device/usb-cdc-device.c ****       }
2053:application-library/usb-device/usb-cdc-device.c ****       else
2054:application-library/usb-device/usb-cdc-device.c ****       {
2055:application-library/usb-device/usb-cdc-device.c ****         p_usbd_instance->dev_state = USBD_STATE_DEFAULT;
2056:application-library/usb-device/usb-cdc-device.c ****       }
2057:application-library/usb-device/usb-cdc-device.c ****     }
2058:application-library/usb-device/usb-cdc-device.c ****   }
2059:application-library/usb-device/usb-cdc-device.c ****   else
2060:application-library/usb-device/usb-cdc-device.c ****   {
2061:application-library/usb-device/usb-cdc-device.c ****     USBD_CtlError(p_usbd_instance, req);
2062:application-library/usb-device/usb-cdc-device.c ****   }
2063:application-library/usb-device/usb-cdc-device.c **** }
2064:application-library/usb-device/usb-cdc-device.c **** 
2065:application-library/usb-device/usb-cdc-device.c **** /**
2066:application-library/usb-device/usb-cdc-device.c ****   * @brief  Handle Set device configuration request
2067:application-library/usb-device/usb-cdc-device.c ****   * @param  p_usbd_instance: device instance
2068:application-library/usb-device/usb-cdc-device.c ****   * @param  req: usb request
2069:application-library/usb-device/usb-cdc-device.c ****   * @retval status
2070:application-library/usb-device/usb-cdc-device.c ****   */
2071:application-library/usb-device/usb-cdc-device.c **** USBD_StatusTypeDef USBD_SetConfig(USBD_Handle_t *p_usbd_instance, USBD_SetupReqTypedef *req)
2072:application-library/usb-device/usb-cdc-device.c **** {
2073:application-library/usb-device/usb-cdc-device.c ****   USBD_StatusTypeDef ret = USBD_OK;
2074:application-library/usb-device/usb-cdc-device.c ****   uint8_t cfgidx;
2075:application-library/usb-device/usb-cdc-device.c **** 
2076:application-library/usb-device/usb-cdc-device.c ****   cfgidx = (uint8_t)(req->wValue);
2077:application-library/usb-device/usb-cdc-device.c **** 
2078:application-library/usb-device/usb-cdc-device.c ****   if (cfgidx > USBD_MAX_NUM_CONFIGURATION)
2079:application-library/usb-device/usb-cdc-device.c ****   {
2080:application-library/usb-device/usb-cdc-device.c ****     USBD_CtlError(p_usbd_instance, req);
2081:application-library/usb-device/usb-cdc-device.c ****     return USBD_FAIL;
2082:application-library/usb-device/usb-cdc-device.c ****   }
2083:application-library/usb-device/usb-cdc-device.c **** 
2084:application-library/usb-device/usb-cdc-device.c ****   switch (p_usbd_instance->dev_state)
2085:application-library/usb-device/usb-cdc-device.c ****   {
2086:application-library/usb-device/usb-cdc-device.c ****     case USBD_STATE_ADDRESSED:
2087:application-library/usb-device/usb-cdc-device.c ****       if (cfgidx != 0U)
2088:application-library/usb-device/usb-cdc-device.c ****       {
2089:application-library/usb-device/usb-cdc-device.c ****         p_usbd_instance->dev_config = cfgidx;
2090:application-library/usb-device/usb-cdc-device.c **** 
2091:application-library/usb-device/usb-cdc-device.c ****         USBD_SetClassConfig(p_usbd_instance, cfgidx);
2092:application-library/usb-device/usb-cdc-device.c ****         USBD_CtlSendStatus(p_usbd_instance);
2093:application-library/usb-device/usb-cdc-device.c ****         p_usbd_instance->dev_state = USBD_STATE_CONFIGURED;
2094:application-library/usb-device/usb-cdc-device.c ****       }
2095:application-library/usb-device/usb-cdc-device.c ****       else
2096:application-library/usb-device/usb-cdc-device.c ****       {
2097:application-library/usb-device/usb-cdc-device.c ****         USBD_CtlSendStatus(p_usbd_instance);
2098:application-library/usb-device/usb-cdc-device.c ****       }
2099:application-library/usb-device/usb-cdc-device.c ****       break;
2100:application-library/usb-device/usb-cdc-device.c **** 
2101:application-library/usb-device/usb-cdc-device.c ****     case USBD_STATE_CONFIGURED:
ARM GAS  /tmp/ccfNPkge.s 			page 41


2102:application-library/usb-device/usb-cdc-device.c ****       if (cfgidx == 0U)
2103:application-library/usb-device/usb-cdc-device.c ****       {
2104:application-library/usb-device/usb-cdc-device.c ****         p_usbd_instance->dev_state = USBD_STATE_ADDRESSED;
2105:application-library/usb-device/usb-cdc-device.c ****         p_usbd_instance->dev_config = cfgidx;
2106:application-library/usb-device/usb-cdc-device.c ****         (void)USBD_ClrClassConfig(p_usbd_instance, cfgidx);
2107:application-library/usb-device/usb-cdc-device.c ****         USBD_CtlSendStatus(p_usbd_instance);
2108:application-library/usb-device/usb-cdc-device.c ****       }
2109:application-library/usb-device/usb-cdc-device.c ****       else if (cfgidx != p_usbd_instance->dev_config)
2110:application-library/usb-device/usb-cdc-device.c ****       {
2111:application-library/usb-device/usb-cdc-device.c ****         /* Clear old configuration */
2112:application-library/usb-device/usb-cdc-device.c ****         (void)USBD_ClrClassConfig(p_usbd_instance, (uint8_t)p_usbd_instance->dev_config);
2113:application-library/usb-device/usb-cdc-device.c **** 
2114:application-library/usb-device/usb-cdc-device.c ****         /* set new configuration */
2115:application-library/usb-device/usb-cdc-device.c ****         p_usbd_instance->dev_config = cfgidx;
2116:application-library/usb-device/usb-cdc-device.c **** 
2117:application-library/usb-device/usb-cdc-device.c ****         USBD_SetClassConfig(p_usbd_instance, cfgidx);
2118:application-library/usb-device/usb-cdc-device.c ****         USBD_CtlSendStatus(p_usbd_instance);
2119:application-library/usb-device/usb-cdc-device.c ****       }
2120:application-library/usb-device/usb-cdc-device.c ****       else
2121:application-library/usb-device/usb-cdc-device.c ****       {
2122:application-library/usb-device/usb-cdc-device.c ****         USBD_CtlSendStatus(p_usbd_instance);
2123:application-library/usb-device/usb-cdc-device.c ****       }
2124:application-library/usb-device/usb-cdc-device.c ****       break;
2125:application-library/usb-device/usb-cdc-device.c **** 
2126:application-library/usb-device/usb-cdc-device.c ****     default:
2127:application-library/usb-device/usb-cdc-device.c ****       USBD_CtlError(p_usbd_instance, req);
2128:application-library/usb-device/usb-cdc-device.c ****       (void)USBD_ClrClassConfig(p_usbd_instance, cfgidx);
2129:application-library/usb-device/usb-cdc-device.c ****       ret = USBD_FAIL;
2130:application-library/usb-device/usb-cdc-device.c ****       break;
2131:application-library/usb-device/usb-cdc-device.c ****   }
2132:application-library/usb-device/usb-cdc-device.c **** 
2133:application-library/usb-device/usb-cdc-device.c ****   return ret;
2134:application-library/usb-device/usb-cdc-device.c **** }
2135:application-library/usb-device/usb-cdc-device.c **** 
2136:application-library/usb-device/usb-cdc-device.c **** /**
2137:application-library/usb-device/usb-cdc-device.c ****   * @brief  Handle Get device configuration request
2138:application-library/usb-device/usb-cdc-device.c ****   * @param  p_usbd_instance: device instance
2139:application-library/usb-device/usb-cdc-device.c ****   * @param  req: usb request
2140:application-library/usb-device/usb-cdc-device.c ****   * @retval status
2141:application-library/usb-device/usb-cdc-device.c ****   */
2142:application-library/usb-device/usb-cdc-device.c **** void USBD_GetConfig(USBD_Handle_t *p_usbd_instance, USBD_SetupReqTypedef *req)
2143:application-library/usb-device/usb-cdc-device.c **** {
2144:application-library/usb-device/usb-cdc-device.c ****   if (req->wLength != 1U)
2145:application-library/usb-device/usb-cdc-device.c ****   {
2146:application-library/usb-device/usb-cdc-device.c ****     USBD_CtlError(p_usbd_instance, req);
2147:application-library/usb-device/usb-cdc-device.c ****   }
2148:application-library/usb-device/usb-cdc-device.c ****   else
2149:application-library/usb-device/usb-cdc-device.c ****   {
2150:application-library/usb-device/usb-cdc-device.c ****     switch (p_usbd_instance->dev_state)
2151:application-library/usb-device/usb-cdc-device.c ****     {
2152:application-library/usb-device/usb-cdc-device.c ****       case USBD_STATE_DEFAULT:
2153:application-library/usb-device/usb-cdc-device.c ****       case USBD_STATE_ADDRESSED:
2154:application-library/usb-device/usb-cdc-device.c ****         p_usbd_instance->dev_default_config = 0U;
2155:application-library/usb-device/usb-cdc-device.c ****         USBD_CtlSendData(p_usbd_instance, (uint8_t *)&p_usbd_instance->dev_default_config, 1U);
2156:application-library/usb-device/usb-cdc-device.c ****         break;
2157:application-library/usb-device/usb-cdc-device.c **** 
2158:application-library/usb-device/usb-cdc-device.c ****       case USBD_STATE_CONFIGURED:
ARM GAS  /tmp/ccfNPkge.s 			page 42


2159:application-library/usb-device/usb-cdc-device.c ****         USBD_CtlSendData(p_usbd_instance, (uint8_t *)&p_usbd_instance->dev_config, 1U);
2160:application-library/usb-device/usb-cdc-device.c ****         break;
2161:application-library/usb-device/usb-cdc-device.c **** 
2162:application-library/usb-device/usb-cdc-device.c ****       default:
2163:application-library/usb-device/usb-cdc-device.c ****         USBD_CtlError(p_usbd_instance, req);
2164:application-library/usb-device/usb-cdc-device.c ****         break;
2165:application-library/usb-device/usb-cdc-device.c ****     }
2166:application-library/usb-device/usb-cdc-device.c ****   }
2167:application-library/usb-device/usb-cdc-device.c **** }
2168:application-library/usb-device/usb-cdc-device.c **** 
2169:application-library/usb-device/usb-cdc-device.c **** /**
2170:application-library/usb-device/usb-cdc-device.c ****   * @brief  USBD_GetStatus
2171:application-library/usb-device/usb-cdc-device.c ****   *         Handle Get Status request
2172:application-library/usb-device/usb-cdc-device.c ****   * @param  p_usbd_instance: device instance
2173:application-library/usb-device/usb-cdc-device.c ****   * @param  req: usb request
2174:application-library/usb-device/usb-cdc-device.c ****   * @retval status
2175:application-library/usb-device/usb-cdc-device.c ****   */
2176:application-library/usb-device/usb-cdc-device.c **** void USBD_GetStatus(USBD_Handle_t *p_usbd_instance, USBD_SetupReqTypedef *req)
2177:application-library/usb-device/usb-cdc-device.c **** {
2178:application-library/usb-device/usb-cdc-device.c ****   switch (p_usbd_instance->dev_state)
2179:application-library/usb-device/usb-cdc-device.c ****   {
2180:application-library/usb-device/usb-cdc-device.c ****     case USBD_STATE_DEFAULT:
2181:application-library/usb-device/usb-cdc-device.c ****     case USBD_STATE_ADDRESSED:
2182:application-library/usb-device/usb-cdc-device.c ****     case USBD_STATE_CONFIGURED:
2183:application-library/usb-device/usb-cdc-device.c ****       if (req->wLength != 0x2U)
2184:application-library/usb-device/usb-cdc-device.c ****       {
2185:application-library/usb-device/usb-cdc-device.c ****         USBD_CtlError(p_usbd_instance, req);
2186:application-library/usb-device/usb-cdc-device.c ****         break;
2187:application-library/usb-device/usb-cdc-device.c ****       }
2188:application-library/usb-device/usb-cdc-device.c **** 
2189:application-library/usb-device/usb-cdc-device.c **** #if (USBD_SELF_POWERED == 1U)
2190:application-library/usb-device/usb-cdc-device.c ****       p_usbd_instance->dev_config_status = USB_CONFIG_SELF_POWERED;
2191:application-library/usb-device/usb-cdc-device.c **** #else
2192:application-library/usb-device/usb-cdc-device.c ****       p_usbd_instance->dev_config_status = 0U;
2193:application-library/usb-device/usb-cdc-device.c **** #endif /* USBD_SELF_POWERED */
2194:application-library/usb-device/usb-cdc-device.c **** 
2195:application-library/usb-device/usb-cdc-device.c ****       if (p_usbd_instance->dev_remote_wakeup != 0U)
2196:application-library/usb-device/usb-cdc-device.c ****       {
2197:application-library/usb-device/usb-cdc-device.c ****         p_usbd_instance->dev_config_status |= USB_CONFIG_REMOTE_WAKEUP;
2198:application-library/usb-device/usb-cdc-device.c ****       }
2199:application-library/usb-device/usb-cdc-device.c **** 
2200:application-library/usb-device/usb-cdc-device.c ****       USBD_CtlSendData(p_usbd_instance, (uint8_t *)&p_usbd_instance->dev_config_status, 2U);
2201:application-library/usb-device/usb-cdc-device.c ****       break;
2202:application-library/usb-device/usb-cdc-device.c **** 
2203:application-library/usb-device/usb-cdc-device.c ****     default:
2204:application-library/usb-device/usb-cdc-device.c ****       USBD_CtlError(p_usbd_instance, req);
2205:application-library/usb-device/usb-cdc-device.c ****       break;
2206:application-library/usb-device/usb-cdc-device.c ****   }
2207:application-library/usb-device/usb-cdc-device.c **** }
2208:application-library/usb-device/usb-cdc-device.c **** 
2209:application-library/usb-device/usb-cdc-device.c **** 
2210:application-library/usb-device/usb-cdc-device.c **** /**
2211:application-library/usb-device/usb-cdc-device.c ****   * @brief  USBD_SetFeature
2212:application-library/usb-device/usb-cdc-device.c ****   *         Handle Set device feature request
2213:application-library/usb-device/usb-cdc-device.c ****   * @param  p_usbd_instance: device instance
2214:application-library/usb-device/usb-cdc-device.c ****   * @param  req: usb request
2215:application-library/usb-device/usb-cdc-device.c ****   * @retval status
ARM GAS  /tmp/ccfNPkge.s 			page 43


2216:application-library/usb-device/usb-cdc-device.c ****   */
2217:application-library/usb-device/usb-cdc-device.c **** void USBD_SetFeature(USBD_Handle_t *p_usbd_instance, USBD_SetupReqTypedef *req)
2218:application-library/usb-device/usb-cdc-device.c **** {
2219:application-library/usb-device/usb-cdc-device.c ****   if (req->wValue == USB_FEATURE_REMOTE_WAKEUP)
2220:application-library/usb-device/usb-cdc-device.c ****   {
2221:application-library/usb-device/usb-cdc-device.c ****     p_usbd_instance->dev_remote_wakeup = 1U;
2222:application-library/usb-device/usb-cdc-device.c ****     USBD_CtlSendStatus(p_usbd_instance);
2223:application-library/usb-device/usb-cdc-device.c ****   }
2224:application-library/usb-device/usb-cdc-device.c ****   else
2225:application-library/usb-device/usb-cdc-device.c ****   {
2226:application-library/usb-device/usb-cdc-device.c ****     USBD_CtlError(p_usbd_instance, req);
2227:application-library/usb-device/usb-cdc-device.c ****   }
2228:application-library/usb-device/usb-cdc-device.c **** }
2229:application-library/usb-device/usb-cdc-device.c **** 
2230:application-library/usb-device/usb-cdc-device.c **** 
2231:application-library/usb-device/usb-cdc-device.c **** /**
2232:application-library/usb-device/usb-cdc-device.c ****   * @brief  USBD_ClrFeature
2233:application-library/usb-device/usb-cdc-device.c ****   *         Handle clear device feature request
2234:application-library/usb-device/usb-cdc-device.c ****   * @param  p_usbd_instance: device instance
2235:application-library/usb-device/usb-cdc-device.c ****   * @param  req: usb request
2236:application-library/usb-device/usb-cdc-device.c ****   * @retval status
2237:application-library/usb-device/usb-cdc-device.c ****   */
2238:application-library/usb-device/usb-cdc-device.c **** void USBD_ClrFeature(USBD_Handle_t *p_usbd_instance, USBD_SetupReqTypedef *req)
2239:application-library/usb-device/usb-cdc-device.c **** {
2240:application-library/usb-device/usb-cdc-device.c ****   switch (p_usbd_instance->dev_state)
2241:application-library/usb-device/usb-cdc-device.c ****   {
2242:application-library/usb-device/usb-cdc-device.c ****     case USBD_STATE_DEFAULT:
2243:application-library/usb-device/usb-cdc-device.c ****     case USBD_STATE_ADDRESSED:
2244:application-library/usb-device/usb-cdc-device.c ****     case USBD_STATE_CONFIGURED:
2245:application-library/usb-device/usb-cdc-device.c ****       if (req->wValue == USB_FEATURE_REMOTE_WAKEUP)
2246:application-library/usb-device/usb-cdc-device.c ****       {
2247:application-library/usb-device/usb-cdc-device.c ****         p_usbd_instance->dev_remote_wakeup = 0U;
2248:application-library/usb-device/usb-cdc-device.c ****         USBD_CtlSendStatus(p_usbd_instance);
2249:application-library/usb-device/usb-cdc-device.c ****       }
2250:application-library/usb-device/usb-cdc-device.c ****       break;
2251:application-library/usb-device/usb-cdc-device.c **** 
2252:application-library/usb-device/usb-cdc-device.c ****     default:
2253:application-library/usb-device/usb-cdc-device.c ****       USBD_CtlError(p_usbd_instance, req);
2254:application-library/usb-device/usb-cdc-device.c ****       break;
2255:application-library/usb-device/usb-cdc-device.c ****   }
2256:application-library/usb-device/usb-cdc-device.c **** }
2257:application-library/usb-device/usb-cdc-device.c **** 
2258:application-library/usb-device/usb-cdc-device.c **** 
2259:application-library/usb-device/usb-cdc-device.c **** /**
2260:application-library/usb-device/usb-cdc-device.c ****   * @brief  USBD_ParseSetupRequest
2261:application-library/usb-device/usb-cdc-device.c ****   *         Copy buffer into setup structure
2262:application-library/usb-device/usb-cdc-device.c ****   * @param  p_usbd_instance: device instance
2263:application-library/usb-device/usb-cdc-device.c ****   * @param  req: usb request
2264:application-library/usb-device/usb-cdc-device.c ****   * @retval None
2265:application-library/usb-device/usb-cdc-device.c ****   */
2266:application-library/usb-device/usb-cdc-device.c **** void USBD_ParseSetupRequest(USBD_SetupReqTypedef *req, uint8_t *pdata)
2267:application-library/usb-device/usb-cdc-device.c **** {
2268:application-library/usb-device/usb-cdc-device.c ****   uint8_t *pbuff = pdata;
2269:application-library/usb-device/usb-cdc-device.c **** 
2270:application-library/usb-device/usb-cdc-device.c ****   req->bmRequest = *(uint8_t *)(pbuff);
2271:application-library/usb-device/usb-cdc-device.c **** 
2272:application-library/usb-device/usb-cdc-device.c ****   pbuff++;
ARM GAS  /tmp/ccfNPkge.s 			page 44


2273:application-library/usb-device/usb-cdc-device.c ****   req->bRequest = *(uint8_t *)(pbuff);
2274:application-library/usb-device/usb-cdc-device.c **** 
2275:application-library/usb-device/usb-cdc-device.c ****   pbuff++;
2276:application-library/usb-device/usb-cdc-device.c ****   req->wValue = SWAPBYTE(pbuff);
2277:application-library/usb-device/usb-cdc-device.c **** 
2278:application-library/usb-device/usb-cdc-device.c ****   pbuff++;
2279:application-library/usb-device/usb-cdc-device.c ****   pbuff++;
2280:application-library/usb-device/usb-cdc-device.c ****   req->wIndex = SWAPBYTE(pbuff);
2281:application-library/usb-device/usb-cdc-device.c **** 
2282:application-library/usb-device/usb-cdc-device.c ****   pbuff++;
2283:application-library/usb-device/usb-cdc-device.c ****   pbuff++;
2284:application-library/usb-device/usb-cdc-device.c ****   req->wLength = SWAPBYTE(pbuff);
2285:application-library/usb-device/usb-cdc-device.c **** }
2286:application-library/usb-device/usb-cdc-device.c **** 
2287:application-library/usb-device/usb-cdc-device.c **** 
2288:application-library/usb-device/usb-cdc-device.c **** /**
2289:application-library/usb-device/usb-cdc-device.c ****   * @brief  Handle USB low level Error
2290:application-library/usb-device/usb-cdc-device.c ****   * @param  p_usbd_instance: device instance
2291:application-library/usb-device/usb-cdc-device.c ****   * @param  req: usb request
2292:application-library/usb-device/usb-cdc-device.c ****   * @retval None
2293:application-library/usb-device/usb-cdc-device.c ****   */
2294:application-library/usb-device/usb-cdc-device.c **** void USBD_CtlError(USBD_Handle_t *p_usbd_instance, USBD_SetupReqTypedef *req)
2295:application-library/usb-device/usb-cdc-device.c **** {
2296:application-library/usb-device/usb-cdc-device.c ****   UNUSED(req);
2297:application-library/usb-device/usb-cdc-device.c **** 
2298:application-library/usb-device/usb-cdc-device.c ****   (void)USBD_LL_StallEP(p_usbd_instance, 0x80U);
2299:application-library/usb-device/usb-cdc-device.c ****   (void)USBD_LL_StallEP(p_usbd_instance, 0U);
2300:application-library/usb-device/usb-cdc-device.c **** }
2301:application-library/usb-device/usb-cdc-device.c **** 
2302:application-library/usb-device/usb-cdc-device.c **** 
2303:application-library/usb-device/usb-cdc-device.c **** /**
2304:application-library/usb-device/usb-cdc-device.c ****   * @brief  USBD_GetString
2305:application-library/usb-device/usb-cdc-device.c ****   *         Convert Ascii string into unicode one
2306:application-library/usb-device/usb-cdc-device.c ****   * @param  desc : descriptor buffer
2307:application-library/usb-device/usb-cdc-device.c ****   * @param  unicode : Formatted string buffer (unicode)
2308:application-library/usb-device/usb-cdc-device.c ****   * @param  len : descriptor length
2309:application-library/usb-device/usb-cdc-device.c ****   * @retval None
2310:application-library/usb-device/usb-cdc-device.c ****   */
2311:application-library/usb-device/usb-cdc-device.c **** void USBD_GetString(uint8_t *desc, uint8_t *unicode, uint16_t *len)
2312:application-library/usb-device/usb-cdc-device.c **** {
2313:application-library/usb-device/usb-cdc-device.c ****   uint8_t idx = 0U;
2314:application-library/usb-device/usb-cdc-device.c ****   uint8_t *pdesc;
2315:application-library/usb-device/usb-cdc-device.c **** 
2316:application-library/usb-device/usb-cdc-device.c ****   if (desc == NULL)
2317:application-library/usb-device/usb-cdc-device.c ****   {
2318:application-library/usb-device/usb-cdc-device.c ****     return;
2319:application-library/usb-device/usb-cdc-device.c ****   }
2320:application-library/usb-device/usb-cdc-device.c **** 
2321:application-library/usb-device/usb-cdc-device.c ****   pdesc = desc;
2322:application-library/usb-device/usb-cdc-device.c ****   *len = ((uint16_t)USBD_GetLen(pdesc) * 2U) + 2U;
2323:application-library/usb-device/usb-cdc-device.c **** 
2324:application-library/usb-device/usb-cdc-device.c ****   unicode[idx] = *(uint8_t *)len;
2325:application-library/usb-device/usb-cdc-device.c ****   idx++;
2326:application-library/usb-device/usb-cdc-device.c ****   unicode[idx] = USB_DESC_TYPE_STRING;
2327:application-library/usb-device/usb-cdc-device.c ****   idx++;
2328:application-library/usb-device/usb-cdc-device.c **** 
2329:application-library/usb-device/usb-cdc-device.c ****   while (*pdesc != (uint8_t)'\0')
ARM GAS  /tmp/ccfNPkge.s 			page 45


2330:application-library/usb-device/usb-cdc-device.c ****   {
2331:application-library/usb-device/usb-cdc-device.c ****     unicode[idx] = *pdesc;
2332:application-library/usb-device/usb-cdc-device.c ****     pdesc++;
2333:application-library/usb-device/usb-cdc-device.c ****     idx++;
2334:application-library/usb-device/usb-cdc-device.c **** 
2335:application-library/usb-device/usb-cdc-device.c ****     unicode[idx] = 0U;
2336:application-library/usb-device/usb-cdc-device.c ****     idx++;
2337:application-library/usb-device/usb-cdc-device.c ****   }
2338:application-library/usb-device/usb-cdc-device.c **** }
2339:application-library/usb-device/usb-cdc-device.c **** 
2340:application-library/usb-device/usb-cdc-device.c **** 
2341:application-library/usb-device/usb-cdc-device.c **** /**
2342:application-library/usb-device/usb-cdc-device.c ****   * @brief  Return the string length
2343:application-library/usb-device/usb-cdc-device.c ****    * @param  buf : pointer to the ascii string buffer
2344:application-library/usb-device/usb-cdc-device.c ****   * @retval string length
2345:application-library/usb-device/usb-cdc-device.c ****   */
2346:application-library/usb-device/usb-cdc-device.c **** uint8_t USBD_GetLen(uint8_t *buf)
2347:application-library/usb-device/usb-cdc-device.c **** {
2348:application-library/usb-device/usb-cdc-device.c ****   uint8_t  len = 0U;
2349:application-library/usb-device/usb-cdc-device.c ****   uint8_t *pbuff = buf;
2350:application-library/usb-device/usb-cdc-device.c **** 
2351:application-library/usb-device/usb-cdc-device.c ****   while (*pbuff != (uint8_t)'\0')
2352:application-library/usb-device/usb-cdc-device.c ****   {
2353:application-library/usb-device/usb-cdc-device.c ****     len++;
2354:application-library/usb-device/usb-cdc-device.c ****     pbuff++;
2355:application-library/usb-device/usb-cdc-device.c ****   }
2356:application-library/usb-device/usb-cdc-device.c **** 
2357:application-library/usb-device/usb-cdc-device.c ****   return len;
2358:application-library/usb-device/usb-cdc-device.c **** }
2359:application-library/usb-device/usb-cdc-device.c **** 
2360:application-library/usb-device/usb-cdc-device.c **** /**
2361:application-library/usb-device/usb-cdc-device.c ****   * @brief  USBD_CtlSendData
2362:application-library/usb-device/usb-cdc-device.c ****   *         send data on the ctl pipe
2363:application-library/usb-device/usb-cdc-device.c ****   * @param  p_usbd_instance: device instance
2364:application-library/usb-device/usb-cdc-device.c ****   * @param  buff: pointer to data buffer
2365:application-library/usb-device/usb-cdc-device.c ****   * @param  len: length of data to be sent
2366:application-library/usb-device/usb-cdc-device.c ****   * @retval void
2367:application-library/usb-device/usb-cdc-device.c ****   */
2368:application-library/usb-device/usb-cdc-device.c **** void USBD_CtlSendData(USBD_Handle_t *p_usbd_instance,
2369:application-library/usb-device/usb-cdc-device.c ****                                     uint8_t *pbuf, uint32_t len)
2370:application-library/usb-device/usb-cdc-device.c **** {
2371:application-library/usb-device/usb-cdc-device.c ****   /* Set EP0 State */
2372:application-library/usb-device/usb-cdc-device.c ****   p_usbd_instance->ep0_state = USBD_EP0_DATA_IN;
2373:application-library/usb-device/usb-cdc-device.c ****   p_usbd_instance->ep_in[0].total_length = len;
2374:application-library/usb-device/usb-cdc-device.c ****   p_usbd_instance->ep_in[0].rem_length = len;
2375:application-library/usb-device/usb-cdc-device.c ****   /* Start the transfer */
2376:application-library/usb-device/usb-cdc-device.c ****   USBD_LL_Transmit(p_usbd_instance, 0x00U, pbuf, len);
2377:application-library/usb-device/usb-cdc-device.c **** }
2378:application-library/usb-device/usb-cdc-device.c **** 
2379:application-library/usb-device/usb-cdc-device.c **** /**
2380:application-library/usb-device/usb-cdc-device.c ****   * @brief  USBD_CtlContinueSendData
2381:application-library/usb-device/usb-cdc-device.c ****   *         continue sending data on the ctl pipe
2382:application-library/usb-device/usb-cdc-device.c ****   * @param  p_usbd_instance: device instance
2383:application-library/usb-device/usb-cdc-device.c ****   * @param  buff: pointer to data buffer
2384:application-library/usb-device/usb-cdc-device.c ****   * @param  len: length of data to be sent
2385:application-library/usb-device/usb-cdc-device.c ****   * @retval None.
2386:application-library/usb-device/usb-cdc-device.c ****   */
ARM GAS  /tmp/ccfNPkge.s 			page 46


2387:application-library/usb-device/usb-cdc-device.c **** void USBD_CtlContinueSendData(USBD_Handle_t *p_usbd_instance,
2388:application-library/usb-device/usb-cdc-device.c ****                                             uint8_t *pbuf, uint32_t len)
2389:application-library/usb-device/usb-cdc-device.c **** {
2390:application-library/usb-device/usb-cdc-device.c ****   /* Start the next transfer */
2391:application-library/usb-device/usb-cdc-device.c ****   USBD_LL_Transmit(p_usbd_instance, 0x00U, pbuf, len);
2392:application-library/usb-device/usb-cdc-device.c **** }
2393:application-library/usb-device/usb-cdc-device.c **** 
2394:application-library/usb-device/usb-cdc-device.c **** /**
2395:application-library/usb-device/usb-cdc-device.c ****   * @brief  USBD_CtlPrepareRx
2396:application-library/usb-device/usb-cdc-device.c ****   *         receive data on the ctl pipe
2397:application-library/usb-device/usb-cdc-device.c ****   * @param  p_usbd_instance: device instance
2398:application-library/usb-device/usb-cdc-device.c ****   * @param  buff: pointer to data buffer
2399:application-library/usb-device/usb-cdc-device.c ****   * @param  len: length of data to be received
2400:application-library/usb-device/usb-cdc-device.c ****   * @retval None.
2401:application-library/usb-device/usb-cdc-device.c ****   */
2402:application-library/usb-device/usb-cdc-device.c **** void USBD_CtlPrepareRx(USBD_Handle_t *p_usbd_instance,
2403:application-library/usb-device/usb-cdc-device.c ****                                      uint8_t *pbuf, uint32_t len)
2404:application-library/usb-device/usb-cdc-device.c **** {
2405:application-library/usb-device/usb-cdc-device.c ****   /* Set EP0 State */
2406:application-library/usb-device/usb-cdc-device.c ****   p_usbd_instance->ep0_state = USBD_EP0_DATA_OUT;
2407:application-library/usb-device/usb-cdc-device.c ****   p_usbd_instance->ep_out[0].total_length = len;
2408:application-library/usb-device/usb-cdc-device.c ****   p_usbd_instance->ep_out[0].rem_length = len;
2409:application-library/usb-device/usb-cdc-device.c **** 
2410:application-library/usb-device/usb-cdc-device.c ****   /* Start the transfer */
2411:application-library/usb-device/usb-cdc-device.c ****   USBD_LL_PrepareReceive(p_usbd_instance, 0U, pbuf, len);
2412:application-library/usb-device/usb-cdc-device.c **** }
2413:application-library/usb-device/usb-cdc-device.c **** 
2414:application-library/usb-device/usb-cdc-device.c **** /**
2415:application-library/usb-device/usb-cdc-device.c ****   * @brief  USBD_CtlContinueRx
2416:application-library/usb-device/usb-cdc-device.c ****   *         continue receive data on the ctl pipe
2417:application-library/usb-device/usb-cdc-device.c ****   * @param  p_usbd_instance: device instance
2418:application-library/usb-device/usb-cdc-device.c ****   * @param  buff: pointer to data buffer
2419:application-library/usb-device/usb-cdc-device.c ****   * @param  len: length of data to be received
2420:application-library/usb-device/usb-cdc-device.c ****   * @retval status
2421:application-library/usb-device/usb-cdc-device.c ****   */
2422:application-library/usb-device/usb-cdc-device.c **** USBD_StatusTypeDef USBD_CtlContinueRx(USBD_Handle_t *p_usbd_instance,
2423:application-library/usb-device/usb-cdc-device.c ****                                       uint8_t *pbuf, uint32_t len)
2424:application-library/usb-device/usb-cdc-device.c **** {
2425:application-library/usb-device/usb-cdc-device.c ****   USBD_LL_PrepareReceive(p_usbd_instance, 0U, pbuf, len);
2426:application-library/usb-device/usb-cdc-device.c **** 
2427:application-library/usb-device/usb-cdc-device.c ****   return USBD_OK;
2428:application-library/usb-device/usb-cdc-device.c **** }
2429:application-library/usb-device/usb-cdc-device.c **** 
2430:application-library/usb-device/usb-cdc-device.c **** /**
2431:application-library/usb-device/usb-cdc-device.c ****   * @brief  USBD_CtlSendStatus
2432:application-library/usb-device/usb-cdc-device.c ****   *         send zero lzngth packet on the ctl pipe
2433:application-library/usb-device/usb-cdc-device.c ****   * @param  p_usbd_instance: device instance
2434:application-library/usb-device/usb-cdc-device.c ****   * @retval status
2435:application-library/usb-device/usb-cdc-device.c ****   */
2436:application-library/usb-device/usb-cdc-device.c **** void USBD_CtlSendStatus(USBD_Handle_t *p_usbd_instance)
2437:application-library/usb-device/usb-cdc-device.c **** {
2438:application-library/usb-device/usb-cdc-device.c ****   /* Set EP0 State */
2439:application-library/usb-device/usb-cdc-device.c ****   p_usbd_instance->ep0_state = USBD_EP0_STATUS_IN;
2440:application-library/usb-device/usb-cdc-device.c **** 
2441:application-library/usb-device/usb-cdc-device.c ****   /* Start the transfer */
2442:application-library/usb-device/usb-cdc-device.c ****   USBD_LL_Transmit(p_usbd_instance, 0x00U, NULL, 0U);
2443:application-library/usb-device/usb-cdc-device.c **** }
ARM GAS  /tmp/ccfNPkge.s 			page 47


2444:application-library/usb-device/usb-cdc-device.c **** 
2445:application-library/usb-device/usb-cdc-device.c **** /**
2446:application-library/usb-device/usb-cdc-device.c ****   * @brief  USBD_CtlReceiveStatus
2447:application-library/usb-device/usb-cdc-device.c ****   *         receive zero lzngth packet on the ctl pipe
2448:application-library/usb-device/usb-cdc-device.c ****   * @param  p_usbd_instance: device instance
2449:application-library/usb-device/usb-cdc-device.c ****   * @retval status
2450:application-library/usb-device/usb-cdc-device.c ****   */
2451:application-library/usb-device/usb-cdc-device.c **** USBD_StatusTypeDef USBD_CtlReceiveStatus(USBD_Handle_t *p_usbd_instance)
2452:application-library/usb-device/usb-cdc-device.c **** {
2453:application-library/usb-device/usb-cdc-device.c ****   /* Set EP0 State */
2454:application-library/usb-device/usb-cdc-device.c ****   p_usbd_instance->ep0_state = USBD_EP0_STATUS_OUT;
2455:application-library/usb-device/usb-cdc-device.c **** 
2456:application-library/usb-device/usb-cdc-device.c ****   /* Start the transfer */
2457:application-library/usb-device/usb-cdc-device.c ****   USBD_LL_PrepareReceive(p_usbd_instance, 0U, NULL, 0U);
2458:application-library/usb-device/usb-cdc-device.c **** 
2459:application-library/usb-device/usb-cdc-device.c ****   return USBD_OK;
2460:application-library/usb-device/usb-cdc-device.c **** }
2461:application-library/usb-device/usb-cdc-device.c **** 
2462:application-library/usb-device/usb-cdc-device.c **** /**
2463:application-library/usb-device/usb-cdc-device.c ****   * @brief  USBD_GetRxCount
2464:application-library/usb-device/usb-cdc-device.c ****   *         returns the received data length
2465:application-library/usb-device/usb-cdc-device.c ****   * @param  p_usbd_instance: device instance
2466:application-library/usb-device/usb-cdc-device.c ****   * @param  ep_addr: endpoint address
2467:application-library/usb-device/usb-cdc-device.c ****   * @retval Rx Data blength
2468:application-library/usb-device/usb-cdc-device.c ****   */
2469:application-library/usb-device/usb-cdc-device.c **** uint32_t USBD_GetRxCount(USBD_Handle_t *p_usbd_instance, uint8_t ep_addr)
2470:application-library/usb-device/usb-cdc-device.c **** {
2471:application-library/usb-device/usb-cdc-device.c ****   return USBD_LL_GetRxDataSize(p_usbd_instance, ep_addr);
2472:application-library/usb-device/usb-cdc-device.c **** }
2473:application-library/usb-device/usb-cdc-device.c **** 
2474:application-library/usb-device/usb-cdc-device.c **** /* usbd_ioreq.c END ---- ---- ---- ---- */
2475:application-library/usb-device/usb-cdc-device.c **** 
2476:application-library/usb-device/usb-cdc-device.c **** 
2477:application-library/usb-device/usb-cdc-device.c **** 
2478:application-library/usb-device/usb-cdc-device.c **** PCD_HandleTypeDef hpcd_USB_OTG_FS;
2479:application-library/usb-device/usb-cdc-device.c **** void Error_Handler(void);
2480:application-library/usb-device/usb-cdc-device.c **** 
2481:application-library/usb-device/usb-cdc-device.c **** void SystemClock_Config(void);
2482:application-library/usb-device/usb-cdc-device.c **** USBD_StatusTypeDef USBD_Get_USB_Status(HAL_StatusTypeDef hal_status);
2483:application-library/usb-device/usb-cdc-device.c **** 
2484:application-library/usb-device/usb-cdc-device.c **** /*******************************************************************************
2485:application-library/usb-device/usb-cdc-device.c ****                        LL Driver Callbacks (PCD -> USB Device Library)
2486:application-library/usb-device/usb-cdc-device.c **** *******************************************************************************/
2487:application-library/usb-device/usb-cdc-device.c **** /* MSP Init */
2488:application-library/usb-device/usb-cdc-device.c **** 
2489:application-library/usb-device/usb-cdc-device.c **** void HAL_PCD_MspInit(PCD_HandleTypeDef* pcdHandle)
2490:application-library/usb-device/usb-cdc-device.c **** {
2491:application-library/usb-device/usb-cdc-device.c ****   GPIO_InitTypeDef GPIO_InitStruct = {0};
2492:application-library/usb-device/usb-cdc-device.c ****   if(pcdHandle->Instance==USB_OTG_FS)
2493:application-library/usb-device/usb-cdc-device.c ****   {
2494:application-library/usb-device/usb-cdc-device.c ****   /* USER CODE BEGIN USB_OTG_FS_MspInit 0 */
2495:application-library/usb-device/usb-cdc-device.c **** 
2496:application-library/usb-device/usb-cdc-device.c ****   /* USER CODE END USB_OTG_FS_MspInit 0 */
2497:application-library/usb-device/usb-cdc-device.c **** 
2498:application-library/usb-device/usb-cdc-device.c ****     __HAL_RCC_GPIOA_CLK_ENABLE();
2499:application-library/usb-device/usb-cdc-device.c ****     /**USB_OTG_FS GPIO Configuration
2500:application-library/usb-device/usb-cdc-device.c ****     PA11     ------> USB_OTG_FS_DM
ARM GAS  /tmp/ccfNPkge.s 			page 48


2501:application-library/usb-device/usb-cdc-device.c ****     PA12     ------> USB_OTG_FS_DP
2502:application-library/usb-device/usb-cdc-device.c ****     */
2503:application-library/usb-device/usb-cdc-device.c ****     GPIO_InitStruct.Pin = GPIO_PIN_11|GPIO_PIN_12;
2504:application-library/usb-device/usb-cdc-device.c ****     GPIO_InitStruct.Mode = GPIO_MODE_AF_PP;
2505:application-library/usb-device/usb-cdc-device.c ****     GPIO_InitStruct.Pull = GPIO_NOPULL;
2506:application-library/usb-device/usb-cdc-device.c ****     GPIO_InitStruct.Speed = GPIO_SPEED_FREQ_VERY_HIGH;
2507:application-library/usb-device/usb-cdc-device.c ****     GPIO_InitStruct.Alternate = GPIO_AF10_OTG_FS;
2508:application-library/usb-device/usb-cdc-device.c ****     HAL_GPIO_Init(GPIOA, &GPIO_InitStruct);
2509:application-library/usb-device/usb-cdc-device.c **** 
2510:application-library/usb-device/usb-cdc-device.c ****     /* Peripheral clock enable */
2511:application-library/usb-device/usb-cdc-device.c ****     __HAL_RCC_USB_OTG_FS_CLK_ENABLE();
2512:application-library/usb-device/usb-cdc-device.c **** 
2513:application-library/usb-device/usb-cdc-device.c ****     /* Peripheral interrupt init */
2514:application-library/usb-device/usb-cdc-device.c ****     HAL_NVIC_SetPriority(OTG_FS_IRQn, 0, 0);
2515:application-library/usb-device/usb-cdc-device.c ****     HAL_NVIC_EnableIRQ(OTG_FS_IRQn);
2516:application-library/usb-device/usb-cdc-device.c ****   /* USER CODE BEGIN USB_OTG_FS_MspInit 1 */
2517:application-library/usb-device/usb-cdc-device.c **** 
2518:application-library/usb-device/usb-cdc-device.c ****   /* USER CODE END USB_OTG_FS_MspInit 1 */
2519:application-library/usb-device/usb-cdc-device.c ****   }
2520:application-library/usb-device/usb-cdc-device.c **** }
2521:application-library/usb-device/usb-cdc-device.c **** 
2522:application-library/usb-device/usb-cdc-device.c **** void HAL_PCD_MspDeInit(PCD_HandleTypeDef* pcdHandle)
2523:application-library/usb-device/usb-cdc-device.c **** {
2524:application-library/usb-device/usb-cdc-device.c ****   if(pcdHandle->Instance==USB_OTG_FS)
2525:application-library/usb-device/usb-cdc-device.c ****   {
2526:application-library/usb-device/usb-cdc-device.c ****   /* USER CODE BEGIN USB_OTG_FS_MspDeInit 0 */
2527:application-library/usb-device/usb-cdc-device.c **** 
2528:application-library/usb-device/usb-cdc-device.c ****   /* USER CODE END USB_OTG_FS_MspDeInit 0 */
2529:application-library/usb-device/usb-cdc-device.c ****     /* Peripheral clock disable */
2530:application-library/usb-device/usb-cdc-device.c ****     __HAL_RCC_USB_OTG_FS_CLK_DISABLE();
2531:application-library/usb-device/usb-cdc-device.c **** 
2532:application-library/usb-device/usb-cdc-device.c ****     /**USB_OTG_FS GPIO Configuration
2533:application-library/usb-device/usb-cdc-device.c ****     PA11     ------> USB_OTG_FS_DM
2534:application-library/usb-device/usb-cdc-device.c ****     PA12     ------> USB_OTG_FS_DP
2535:application-library/usb-device/usb-cdc-device.c ****     */
2536:application-library/usb-device/usb-cdc-device.c ****     HAL_GPIO_DeInit(GPIOA, GPIO_PIN_11|GPIO_PIN_12);
2537:application-library/usb-device/usb-cdc-device.c **** 
2538:application-library/usb-device/usb-cdc-device.c ****     /* Peripheral interrupt Deinit*/
2539:application-library/usb-device/usb-cdc-device.c ****     HAL_NVIC_DisableIRQ(OTG_FS_IRQn);
2540:application-library/usb-device/usb-cdc-device.c ****   }
2541:application-library/usb-device/usb-cdc-device.c **** }
2542:application-library/usb-device/usb-cdc-device.c **** 
2543:application-library/usb-device/usb-cdc-device.c **** /**
2544:application-library/usb-device/usb-cdc-device.c ****   * @brief  Setup stage callback
2545:application-library/usb-device/usb-cdc-device.c ****   * @param  hpcd: PCD handle
2546:application-library/usb-device/usb-cdc-device.c ****   * @retval None
2547:application-library/usb-device/usb-cdc-device.c ****   */
2548:application-library/usb-device/usb-cdc-device.c **** void HAL_PCD_SetupStageCallback(PCD_HandleTypeDef *hpcd)
2549:application-library/usb-device/usb-cdc-device.c **** {
2550:application-library/usb-device/usb-cdc-device.c ****   USBD_LL_SetupStage((USBD_Handle_t*)hpcd->pData, (uint8_t *)hpcd->Setup);
2551:application-library/usb-device/usb-cdc-device.c **** }
2552:application-library/usb-device/usb-cdc-device.c **** 
2553:application-library/usb-device/usb-cdc-device.c **** /**
2554:application-library/usb-device/usb-cdc-device.c ****   * @brief  Data Out stage callback.
2555:application-library/usb-device/usb-cdc-device.c ****   * @param  hpcd: PCD handle
2556:application-library/usb-device/usb-cdc-device.c ****   * @param  epnum: Endpoint number
2557:application-library/usb-device/usb-cdc-device.c ****   * @retval None
ARM GAS  /tmp/ccfNPkge.s 			page 49


2558:application-library/usb-device/usb-cdc-device.c ****   */
2559:application-library/usb-device/usb-cdc-device.c **** void HAL_PCD_DataOutStageCallback(PCD_HandleTypeDef *hpcd, uint8_t epnum)
2560:application-library/usb-device/usb-cdc-device.c **** {
2561:application-library/usb-device/usb-cdc-device.c ****   USBD_LL_DataOutStage((USBD_Handle_t*)hpcd->pData, epnum, hpcd->OUT_ep[epnum].xfer_buff);
2562:application-library/usb-device/usb-cdc-device.c **** }
2563:application-library/usb-device/usb-cdc-device.c **** 
2564:application-library/usb-device/usb-cdc-device.c **** /**
2565:application-library/usb-device/usb-cdc-device.c ****   * @brief  Data In stage callback.
2566:application-library/usb-device/usb-cdc-device.c ****   * @param  hpcd: PCD handle
2567:application-library/usb-device/usb-cdc-device.c ****   * @param  epnum: Endpoint number
2568:application-library/usb-device/usb-cdc-device.c ****   * @retval None
2569:application-library/usb-device/usb-cdc-device.c ****   */
2570:application-library/usb-device/usb-cdc-device.c **** void HAL_PCD_DataInStageCallback(PCD_HandleTypeDef *hpcd, uint8_t epnum)
2571:application-library/usb-device/usb-cdc-device.c **** {
2572:application-library/usb-device/usb-cdc-device.c ****   USBD_LL_DataInStage((USBD_Handle_t*)hpcd->pData, epnum, hpcd->IN_ep[epnum].xfer_buff);
2573:application-library/usb-device/usb-cdc-device.c **** }
2574:application-library/usb-device/usb-cdc-device.c **** 
2575:application-library/usb-device/usb-cdc-device.c **** /**
2576:application-library/usb-device/usb-cdc-device.c ****   * @brief  SOF callback.
2577:application-library/usb-device/usb-cdc-device.c ****   * @param  hpcd: PCD handle
2578:application-library/usb-device/usb-cdc-device.c ****   * @retval None
2579:application-library/usb-device/usb-cdc-device.c ****   */
2580:application-library/usb-device/usb-cdc-device.c **** void HAL_PCD_SOFCallback(PCD_HandleTypeDef *hpcd)
2581:application-library/usb-device/usb-cdc-device.c **** {
2582:application-library/usb-device/usb-cdc-device.c ****   USBD_LL_SOF((USBD_Handle_t*)hpcd->pData);
2583:application-library/usb-device/usb-cdc-device.c **** }
2584:application-library/usb-device/usb-cdc-device.c **** 
2585:application-library/usb-device/usb-cdc-device.c **** /**
2586:application-library/usb-device/usb-cdc-device.c ****   * @brief  Reset callback.
2587:application-library/usb-device/usb-cdc-device.c ****   * @param  hpcd: PCD handle
2588:application-library/usb-device/usb-cdc-device.c ****   * @retval None
2589:application-library/usb-device/usb-cdc-device.c ****   */
2590:application-library/usb-device/usb-cdc-device.c **** void HAL_PCD_ResetCallback(PCD_HandleTypeDef *hpcd)
2591:application-library/usb-device/usb-cdc-device.c **** {
2592:application-library/usb-device/usb-cdc-device.c ****   USBD_SpeedTypeDef speed = USBD_SPEED_FULL;
2593:application-library/usb-device/usb-cdc-device.c **** 
2594:application-library/usb-device/usb-cdc-device.c ****   if ( hpcd->Init.speed == PCD_SPEED_HIGH)
2595:application-library/usb-device/usb-cdc-device.c ****   {
2596:application-library/usb-device/usb-cdc-device.c ****     speed = USBD_SPEED_HIGH;
2597:application-library/usb-device/usb-cdc-device.c ****   }
2598:application-library/usb-device/usb-cdc-device.c ****   else if ( hpcd->Init.speed == PCD_SPEED_FULL)
2599:application-library/usb-device/usb-cdc-device.c ****   {
2600:application-library/usb-device/usb-cdc-device.c ****     speed = USBD_SPEED_FULL;
2601:application-library/usb-device/usb-cdc-device.c ****   }
2602:application-library/usb-device/usb-cdc-device.c ****   else
2603:application-library/usb-device/usb-cdc-device.c ****   {
2604:application-library/usb-device/usb-cdc-device.c ****     Error_Handler();
2605:application-library/usb-device/usb-cdc-device.c ****   }
2606:application-library/usb-device/usb-cdc-device.c ****     /* Set Speed. */
2607:application-library/usb-device/usb-cdc-device.c ****   USBD_LL_SetSpeed((USBD_Handle_t*)hpcd->pData, speed);
2608:application-library/usb-device/usb-cdc-device.c **** 
2609:application-library/usb-device/usb-cdc-device.c ****   /* Reset Device. */
2610:application-library/usb-device/usb-cdc-device.c ****   USBD_LL_Reset((USBD_Handle_t*)hpcd->pData);
2611:application-library/usb-device/usb-cdc-device.c **** }
2612:application-library/usb-device/usb-cdc-device.c **** 
2613:application-library/usb-device/usb-cdc-device.c **** /**
2614:application-library/usb-device/usb-cdc-device.c ****   * @brief  Suspend callback.
ARM GAS  /tmp/ccfNPkge.s 			page 50


2615:application-library/usb-device/usb-cdc-device.c ****   * When Low power mode is enabled the debug cannot be used (IAR, Keil doesn't support it)
2616:application-library/usb-device/usb-cdc-device.c ****   * @param  hpcd: PCD handle
2617:application-library/usb-device/usb-cdc-device.c ****   * @retval None
2618:application-library/usb-device/usb-cdc-device.c ****   */
2619:application-library/usb-device/usb-cdc-device.c **** void HAL_PCD_SuspendCallback(PCD_HandleTypeDef *hpcd)
2620:application-library/usb-device/usb-cdc-device.c **** {
2621:application-library/usb-device/usb-cdc-device.c ****   /* Inform USB library that core enters in suspend Mode. */
2622:application-library/usb-device/usb-cdc-device.c ****   USBD_LL_Suspend((USBD_Handle_t*)hpcd->pData);
2623:application-library/usb-device/usb-cdc-device.c ****   __HAL_PCD_GATE_PHYCLOCK(hpcd);
2624:application-library/usb-device/usb-cdc-device.c ****   /* Enter in STOP mode. */
2625:application-library/usb-device/usb-cdc-device.c ****   /* USER CODE BEGIN 2 */
2626:application-library/usb-device/usb-cdc-device.c ****   if (hpcd->Init.low_power_enable)
2627:application-library/usb-device/usb-cdc-device.c ****   {
2628:application-library/usb-device/usb-cdc-device.c ****     /* Set SLEEPDEEP bit and SleepOnExit of Cortex System Control Register. */
2629:application-library/usb-device/usb-cdc-device.c ****     SCB->SCR |= (uint32_t)((uint32_t)(SCB_SCR_SLEEPDEEP_Msk | SCB_SCR_SLEEPONEXIT_Msk));
2630:application-library/usb-device/usb-cdc-device.c ****   }
2631:application-library/usb-device/usb-cdc-device.c **** }
2632:application-library/usb-device/usb-cdc-device.c **** 
2633:application-library/usb-device/usb-cdc-device.c **** 
2634:application-library/usb-device/usb-cdc-device.c **** /**
2635:application-library/usb-device/usb-cdc-device.c ****   * @brief  Connect callback.
2636:application-library/usb-device/usb-cdc-device.c ****   * @param  hpcd: PCD handle
2637:application-library/usb-device/usb-cdc-device.c ****   * @retval None
2638:application-library/usb-device/usb-cdc-device.c ****   */
2639:application-library/usb-device/usb-cdc-device.c **** void HAL_PCD_ConnectCallback(PCD_HandleTypeDef *hpcd)
2640:application-library/usb-device/usb-cdc-device.c **** {
2641:application-library/usb-device/usb-cdc-device.c ****   USBD_LL_DevConnected((USBD_Handle_t*)hpcd->pData);
2642:application-library/usb-device/usb-cdc-device.c **** }
2643:application-library/usb-device/usb-cdc-device.c **** 
2644:application-library/usb-device/usb-cdc-device.c **** /**
2645:application-library/usb-device/usb-cdc-device.c ****   * @brief  Disconnect callback.
2646:application-library/usb-device/usb-cdc-device.c ****   * @param  hpcd: PCD handle
2647:application-library/usb-device/usb-cdc-device.c ****   * @retval None
2648:application-library/usb-device/usb-cdc-device.c ****   */
2649:application-library/usb-device/usb-cdc-device.c **** void HAL_PCD_DisconnectCallback(PCD_HandleTypeDef *hpcd)
2650:application-library/usb-device/usb-cdc-device.c **** {
2651:application-library/usb-device/usb-cdc-device.c ****   USBD_LL_DevDisconnected((USBD_Handle_t*)hpcd->pData);
2652:application-library/usb-device/usb-cdc-device.c **** }
2653:application-library/usb-device/usb-cdc-device.c **** 
2654:application-library/usb-device/usb-cdc-device.c **** /*******************************************************************************
2655:application-library/usb-device/usb-cdc-device.c ****                        LL Driver Interface (USB Device Library --> PCD)
2656:application-library/usb-device/usb-cdc-device.c **** *******************************************************************************/
2657:application-library/usb-device/usb-cdc-device.c **** 
2658:application-library/usb-device/usb-cdc-device.c **** /**
2659:application-library/usb-device/usb-cdc-device.c ****   * @brief  Initializes the low level portion of the device driver.
2660:application-library/usb-device/usb-cdc-device.c ****   * @param  p_usbd_instance: Device handle
2661:application-library/usb-device/usb-cdc-device.c ****   * @retval USBD status
2662:application-library/usb-device/usb-cdc-device.c ****   */
2663:application-library/usb-device/usb-cdc-device.c **** USBD_StatusTypeDef USBD_LL_Init(USBD_Handle_t *p_usbd_instance)
2664:application-library/usb-device/usb-cdc-device.c **** {
2665:application-library/usb-device/usb-cdc-device.c ****   /* Init USB Ip. */
2666:application-library/usb-device/usb-cdc-device.c ****   if (p_usbd_instance->id == DEVICE_FS) {
2667:application-library/usb-device/usb-cdc-device.c ****   /* Link the driver to the stack. */
2668:application-library/usb-device/usb-cdc-device.c ****   hpcd_USB_OTG_FS.pData = p_usbd_instance;
2669:application-library/usb-device/usb-cdc-device.c ****   p_usbd_instance->pData = &hpcd_USB_OTG_FS;
2670:application-library/usb-device/usb-cdc-device.c **** 
2671:application-library/usb-device/usb-cdc-device.c ****   hpcd_USB_OTG_FS.Instance = USB_OTG_FS;
ARM GAS  /tmp/ccfNPkge.s 			page 51


2672:application-library/usb-device/usb-cdc-device.c ****   hpcd_USB_OTG_FS.Init.dev_endpoints = 4;
2673:application-library/usb-device/usb-cdc-device.c ****   hpcd_USB_OTG_FS.Init.speed = PCD_SPEED_FULL;
2674:application-library/usb-device/usb-cdc-device.c ****   hpcd_USB_OTG_FS.Init.dma_enable = DISABLE;
2675:application-library/usb-device/usb-cdc-device.c ****   hpcd_USB_OTG_FS.Init.phy_itface = PCD_PHY_EMBEDDED;
2676:application-library/usb-device/usb-cdc-device.c ****   hpcd_USB_OTG_FS.Init.Sof_enable = DISABLE;
2677:application-library/usb-device/usb-cdc-device.c ****   hpcd_USB_OTG_FS.Init.low_power_enable = DISABLE;
2678:application-library/usb-device/usb-cdc-device.c ****   hpcd_USB_OTG_FS.Init.lpm_enable = DISABLE;
2679:application-library/usb-device/usb-cdc-device.c ****   hpcd_USB_OTG_FS.Init.vbus_sensing_enable = DISABLE;
2680:application-library/usb-device/usb-cdc-device.c ****   hpcd_USB_OTG_FS.Init.use_dedicated_ep1 = DISABLE;
2681:application-library/usb-device/usb-cdc-device.c **** 
2682:application-library/usb-device/usb-cdc-device.c ****   /* Initialize the hardware. */
2683:application-library/usb-device/usb-cdc-device.c ****   if (HAL_PCD_Init(&hpcd_USB_OTG_FS) != HAL_OK)
2684:application-library/usb-device/usb-cdc-device.c ****   {
2685:application-library/usb-device/usb-cdc-device.c ****     Error_Handler( );
2686:application-library/usb-device/usb-cdc-device.c ****   }
2687:application-library/usb-device/usb-cdc-device.c **** 
2688:application-library/usb-device/usb-cdc-device.c ****   /* in stm32f4xx_hal_pcd_ex.h */ 
2689:application-library/usb-device/usb-cdc-device.c ****   HAL_PCDEx_SetRxFiFo(&hpcd_USB_OTG_FS, 0x80);    /* set RX FIFO size 0x80*/
2690:application-library/usb-device/usb-cdc-device.c ****   HAL_PCDEx_SetTxFiFo(&hpcd_USB_OTG_FS, 0, 0x40); /* set TX FIFO 0 with size 0x40 */ 
2691:application-library/usb-device/usb-cdc-device.c ****   HAL_PCDEx_SetTxFiFo(&hpcd_USB_OTG_FS, 1, 0x80); /* set TX FIFO 1 with size 0x80 */
2692:application-library/usb-device/usb-cdc-device.c ****   }
2693:application-library/usb-device/usb-cdc-device.c ****   return USBD_OK;
2694:application-library/usb-device/usb-cdc-device.c **** }
2695:application-library/usb-device/usb-cdc-device.c **** 
2696:application-library/usb-device/usb-cdc-device.c **** /**
2697:application-library/usb-device/usb-cdc-device.c ****   * @brief  De-Initializes the low level portion of the device driver.
2698:application-library/usb-device/usb-cdc-device.c ****   * @param  p_usbd_instance: Device handle
2699:application-library/usb-device/usb-cdc-device.c ****   * @retval USBD status
2700:application-library/usb-device/usb-cdc-device.c ****   */
2701:application-library/usb-device/usb-cdc-device.c **** USBD_StatusTypeDef USBD_LL_DeInit(USBD_Handle_t *p_usbd_instance)
2702:application-library/usb-device/usb-cdc-device.c **** {
2703:application-library/usb-device/usb-cdc-device.c ****   HAL_StatusTypeDef hal_status = HAL_OK;
2704:application-library/usb-device/usb-cdc-device.c ****   USBD_StatusTypeDef usb_status = USBD_OK;
2705:application-library/usb-device/usb-cdc-device.c **** 
2706:application-library/usb-device/usb-cdc-device.c ****   hal_status = HAL_PCD_DeInit(p_usbd_instance->pData);
2707:application-library/usb-device/usb-cdc-device.c **** 
2708:application-library/usb-device/usb-cdc-device.c ****   usb_status =  USBD_Get_USB_Status(hal_status);
2709:application-library/usb-device/usb-cdc-device.c **** 
2710:application-library/usb-device/usb-cdc-device.c ****   return usb_status;
2711:application-library/usb-device/usb-cdc-device.c **** }
2712:application-library/usb-device/usb-cdc-device.c **** 
2713:application-library/usb-device/usb-cdc-device.c **** /**
2714:application-library/usb-device/usb-cdc-device.c ****   * @brief  Starts the low level portion of the device driver.
2715:application-library/usb-device/usb-cdc-device.c ****   * @param  p_usbd_instance: Device handle
2716:application-library/usb-device/usb-cdc-device.c ****   * @retval USBD status
2717:application-library/usb-device/usb-cdc-device.c ****   */
2718:application-library/usb-device/usb-cdc-device.c **** USBD_StatusTypeDef USBD_LL_Start(USBD_Handle_t *p_usbd_instance)
2719:application-library/usb-device/usb-cdc-device.c **** {
2720:application-library/usb-device/usb-cdc-device.c ****   HAL_StatusTypeDef hal_status = HAL_OK;
2721:application-library/usb-device/usb-cdc-device.c ****   USBD_StatusTypeDef usb_status = USBD_OK;
2722:application-library/usb-device/usb-cdc-device.c **** 
2723:application-library/usb-device/usb-cdc-device.c ****   hal_status = HAL_PCD_Start(p_usbd_instance->pData);
2724:application-library/usb-device/usb-cdc-device.c **** 
2725:application-library/usb-device/usb-cdc-device.c ****   usb_status =  USBD_Get_USB_Status(hal_status);
2726:application-library/usb-device/usb-cdc-device.c **** 
2727:application-library/usb-device/usb-cdc-device.c ****   return usb_status;
2728:application-library/usb-device/usb-cdc-device.c **** }
ARM GAS  /tmp/ccfNPkge.s 			page 52


2729:application-library/usb-device/usb-cdc-device.c **** 
2730:application-library/usb-device/usb-cdc-device.c **** /**
2731:application-library/usb-device/usb-cdc-device.c ****   * @brief  Stops the low level portion of the device driver.
2732:application-library/usb-device/usb-cdc-device.c ****   * @param  p_usbd_instance: Device handle
2733:application-library/usb-device/usb-cdc-device.c ****   * @retval None.
2734:application-library/usb-device/usb-cdc-device.c ****   */
2735:application-library/usb-device/usb-cdc-device.c **** void USBD_LL_Stop(USBD_Handle_t *p_usbd_instance)
2736:application-library/usb-device/usb-cdc-device.c **** {
2737:application-library/usb-device/usb-cdc-device.c ****   HAL_StatusTypeDef hal_status = HAL_OK;
2738:application-library/usb-device/usb-cdc-device.c ****   hal_status = HAL_PCD_Stop(p_usbd_instance->pData);
2739:application-library/usb-device/usb-cdc-device.c ****   USBD_Get_USB_Status(hal_status);
2740:application-library/usb-device/usb-cdc-device.c **** }
2741:application-library/usb-device/usb-cdc-device.c **** 
2742:application-library/usb-device/usb-cdc-device.c **** /**
2743:application-library/usb-device/usb-cdc-device.c ****   * @brief  Opens an endpoint of the low level driver.
2744:application-library/usb-device/usb-cdc-device.c ****   * @param  p_usbd_instance: Device handle
2745:application-library/usb-device/usb-cdc-device.c ****   * @param  ep_addr: Endpoint number
2746:application-library/usb-device/usb-cdc-device.c ****   * @param  ep_type: Endpoint type
2747:application-library/usb-device/usb-cdc-device.c ****   * @param  ep_mps: Endpoint max packet size
2748:application-library/usb-device/usb-cdc-device.c ****   * @retval None.
2749:application-library/usb-device/usb-cdc-device.c ****   */
2750:application-library/usb-device/usb-cdc-device.c **** void USBD_LL_OpenEP(USBD_Handle_t *p_usbd_instance, uint8_t ep_addr, uint8_t ep_type, uint16_t ep_m
2751:application-library/usb-device/usb-cdc-device.c **** {
2752:application-library/usb-device/usb-cdc-device.c ****   HAL_PCD_EP_Open(p_usbd_instance->pData, ep_addr, ep_mps, ep_type);
2753:application-library/usb-device/usb-cdc-device.c **** }
2754:application-library/usb-device/usb-cdc-device.c **** 
2755:application-library/usb-device/usb-cdc-device.c **** /**
2756:application-library/usb-device/usb-cdc-device.c ****   * @brief  Closes an endpoint of the low level driver.
2757:application-library/usb-device/usb-cdc-device.c ****   * @param  p_usbd_instance: Device handle
2758:application-library/usb-device/usb-cdc-device.c ****   * @param  ep_addr: Endpoint number
2759:application-library/usb-device/usb-cdc-device.c ****   * @retval None.
2760:application-library/usb-device/usb-cdc-device.c ****   */
2761:application-library/usb-device/usb-cdc-device.c **** void USBD_LL_CloseEP(USBD_Handle_t *p_usbd_instance, uint8_t ep_addr)
2762:application-library/usb-device/usb-cdc-device.c **** {
2763:application-library/usb-device/usb-cdc-device.c ****   HAL_PCD_EP_Close(p_usbd_instance->pData, ep_addr);
2764:application-library/usb-device/usb-cdc-device.c **** }
2765:application-library/usb-device/usb-cdc-device.c **** 
2766:application-library/usb-device/usb-cdc-device.c **** /**
2767:application-library/usb-device/usb-cdc-device.c ****   * @brief  Flushes an endpoint of the Low Level Driver.
2768:application-library/usb-device/usb-cdc-device.c ****   * @param  p_usbd_instance: Device handle
2769:application-library/usb-device/usb-cdc-device.c ****   * @param  ep_addr: Endpoint number
2770:application-library/usb-device/usb-cdc-device.c ****   * @retval None.
2771:application-library/usb-device/usb-cdc-device.c ****   */
2772:application-library/usb-device/usb-cdc-device.c **** void USBD_LL_FlushEP(USBD_Handle_t *p_usbd_instance, uint8_t ep_addr)
2773:application-library/usb-device/usb-cdc-device.c **** {
2774:application-library/usb-device/usb-cdc-device.c ****   HAL_PCD_EP_Flush(p_usbd_instance->pData, ep_addr);
2775:application-library/usb-device/usb-cdc-device.c **** }
2776:application-library/usb-device/usb-cdc-device.c **** 
2777:application-library/usb-device/usb-cdc-device.c **** /**
2778:application-library/usb-device/usb-cdc-device.c ****   * @brief  Sets a Stall condition on an endpoint of the Low Level Driver.
2779:application-library/usb-device/usb-cdc-device.c ****   * @param  p_usbd_instance: Device handle
2780:application-library/usb-device/usb-cdc-device.c ****   * @param  ep_addr: Endpoint number
2781:application-library/usb-device/usb-cdc-device.c ****   * @retval None
2782:application-library/usb-device/usb-cdc-device.c ****   */
2783:application-library/usb-device/usb-cdc-device.c **** void USBD_LL_StallEP(USBD_Handle_t *p_usbd_instance, uint8_t ep_addr)
2784:application-library/usb-device/usb-cdc-device.c **** {
2785:application-library/usb-device/usb-cdc-device.c ****   HAL_PCD_EP_SetStall(p_usbd_instance->pData, ep_addr);
ARM GAS  /tmp/ccfNPkge.s 			page 53


2786:application-library/usb-device/usb-cdc-device.c **** }
2787:application-library/usb-device/usb-cdc-device.c **** 
2788:application-library/usb-device/usb-cdc-device.c **** /**
2789:application-library/usb-device/usb-cdc-device.c ****   * @brief  Clears a Stall condition on an endpoint of the Low Level Driver.
2790:application-library/usb-device/usb-cdc-device.c ****   * @param  p_usbd_instance: Device handle
2791:application-library/usb-device/usb-cdc-device.c ****   * @param  ep_addr: Endpoint number
2792:application-library/usb-device/usb-cdc-device.c ****   * @retval None.
2793:application-library/usb-device/usb-cdc-device.c ****   */
2794:application-library/usb-device/usb-cdc-device.c **** void USBD_LL_ClearStallEP(USBD_Handle_t *p_usbd_instance, uint8_t ep_addr)
2795:application-library/usb-device/usb-cdc-device.c **** {
2796:application-library/usb-device/usb-cdc-device.c ****   HAL_PCD_EP_ClrStall(p_usbd_instance->pData, ep_addr);
2797:application-library/usb-device/usb-cdc-device.c **** }
2798:application-library/usb-device/usb-cdc-device.c **** 
2799:application-library/usb-device/usb-cdc-device.c **** /**
2800:application-library/usb-device/usb-cdc-device.c ****   * @brief  Returns Stall condition.
2801:application-library/usb-device/usb-cdc-device.c ****   * @param  p_usbd_instance: Device handle
2802:application-library/usb-device/usb-cdc-device.c ****   * @param  ep_addr: Endpoint number
2803:application-library/usb-device/usb-cdc-device.c ****   * @retval Stall (1: Yes, 0: No)
2804:application-library/usb-device/usb-cdc-device.c ****   */
2805:application-library/usb-device/usb-cdc-device.c **** uint8_t USBD_LL_IsStallEP(USBD_Handle_t *p_usbd_instance, uint8_t ep_addr)
2806:application-library/usb-device/usb-cdc-device.c **** {
2807:application-library/usb-device/usb-cdc-device.c ****   PCD_HandleTypeDef *hpcd = (PCD_HandleTypeDef*) p_usbd_instance->pData;
2808:application-library/usb-device/usb-cdc-device.c **** 
